 binding

 Timestamp is 599f1f69 (Thu Aug 24 14:48:09 2017)

 Preferred load address is 0000000180000000

 Start         Length     Name                   Class
 0001:00000000 000000e0H .text$di                CODE
 0001:000000e0 000237e0H .text$mn                CODE
 0001:000238c0 00000020H .text$mn$00             CODE
 0001:000238e0 00003460H .text$x                 CODE
 0001:00026d40 000001aaH .text$yd                CODE
 0002:00000000 000004d0H .idata$5                DATA
 0002:000004d0 00000010H .00cfg                  DATA
 0002:000004e0 00000008H .CRT$XCA                DATA
 0002:000004e8 00000008H .CRT$XCL                DATA
 0002:000004f0 00000048H .CRT$XCU                DATA
 0002:00000538 00000008H .CRT$XCZ                DATA
 0002:00000540 00000008H .CRT$XIA                DATA
 0002:00000548 00000008H .CRT$XIC                DATA
 0002:00000550 00000008H .CRT$XIYB               DATA
 0002:00000558 00000008H .CRT$XIZ                DATA
 0002:00000560 00000008H .CRT$XLA                DATA
 0002:00000568 00000008H .CRT$XLZ                DATA
 0002:00000570 00000008H .CRT$XPA                DATA
 0002:00000578 00000008H .CRT$XPZ                DATA
 0002:00000580 00000008H .CRT$XTA                DATA
 0002:00000588 00000008H .CRT$XTZ                DATA
 0002:00000590 00005bb8H .rdata                  DATA
 0002:00006148 00000028H .rdata$T                DATA
 0002:00006170 0000045cH .rdata$r                DATA
 0002:000065cc 000004b4H .rdata$zzzdbg           DATA
 0002:00006a80 00000008H .rtc$IAA                DATA
 0002:00006a88 00000008H .rtc$IZZ                DATA
 0002:00006a90 00000008H .rtc$TAA                DATA
 0002:00006a98 00000008H .rtc$TZZ                DATA
 0002:00006aa0 0000a5a0H .xdata                  DATA
 0002:00011040 00000424H .xdata$x                DATA
 0002:00011464 00000020H .didat$2                DATA
 0002:00011484 00000024H .didat$3                DATA
 0002:000114a8 00000280H .didat$4                DATA
 0002:00011728 00001538H .didat$6                DATA
 0002:00012c60 00000280H .didat$7                DATA
 0002:00012ee0 00000054H .edata                  DATA
 0002:00012f34 000000b4H .idata$2                DATA
 0002:00012fe8 00000018H .idata$3                DATA
 0002:00013000 000004d0H .idata$4                DATA
 0002:000134d0 0000144eH .idata$6                DATA
 0003:00000000 00001890H .data                   DATA
 0003:00001890 00000ef0H .data$r                 DATA
 0003:00002780 00000280H .didat$5                DATA
 0003:00002a00 00000770H .bss                    DATA
 0004:00000000 00002988H .pdata                  DATA
 0005:00000000 00000008H minATL$__a              DATA
 0005:00000008 00000008H minATL$__m              DATA
 0005:00000010 00000008H minATL$__z              DATA
 0006:00000000 000000acH .gfids$y                DATA
 0007:00000000 00000004H .tls                    DATA
 0007:00000004 00000004H .tls$                   DATA
 0007:00000008 00000001H .tls$ZZZ                DATA
 0008:00000000 00000060H .rsrc$01                DATA
 0008:00000060 00000180H .rsrc$02                DATA

  Address         Publics by Value              Rva+Base               Lib:Object

 0000:00000000       __dynamic_value_reloc_table 0000000000000000     <absolute>
 0000:00000000       __guard_iat_count          0000000000000000     <absolute>
 0000:00000000       __guard_longjmp_table      0000000000000000     <absolute>
 0000:00000000       __guard_longjmp_count      0000000000000000     <absolute>
 0000:00000000       __guard_iat_table          0000000000000000     <absolute>
 0000:00000000       __guard_fids_count         0000000000000000     <absolute>
 0000:00000000       ___safe_se_handler_table   0000000000000000     <absolute>
 0000:00000000       ___safe_se_handler_count   0000000000000000     <absolute>
 0000:00000000       __guard_fids_table         0000000000000000     <absolute>
 0000:00000100       __guard_flags              0000000000000100     <absolute>
 0000:00000000       __ImageBase                0000000180000000     <linker-defined>
 0001:000000e0       ?__abi_winrt_ptr_dtor@@YAXQE$ADVObject@Platform@@@Z 00000001800010e0 f i _nodert_generated.obj
 0001:000000e0       ??$__abi_winrt_ptrto_delegate_dtor@V?$AsyncOperationCompletedHandler@PE$AAVWiFiAdapter@WiFi@Devices@Windows@@@Foundation@Windows@@@@YAXPE$ADV?$AsyncOperationCompletedHandler@PE$AAVWiFiAdapter@WiFi@Devices@Windows@@@Foundation@Windows@@@Z 00000001800010e0 f i _nodert_generated.obj
 0001:000000e0       ??$__abi_winrt_ptrto_delegate_dtor@V?$AsyncOperationCompletedHandler@PE$AAVWiFiConnectionResult@WiFi@Devices@Windows@@@Foundation@Windows@@@@YAXPE$ADV?$AsyncOperationCompletedHandler@PE$AAVWiFiConnectionResult@WiFi@Devices@Windows@@@Foundation@Windows@@@Z 00000001800010e0 f i _nodert_generated.obj
 0001:000000e0       ??$__abi_winrt_ptrto_delegate_dtor@V?$AsyncOperationCompletedHandler@E@Foundation@Windows@@@@YAXPE$ADV?$AsyncOperationCompletedHandler@E@Foundation@Windows@@@Z 00000001800010e0 f i _nodert_generated.obj
 0001:000000e0       ??$__abi_winrt_ptrto_delegate_dtor@V?$TypedEventHandler@PE$AAVWiFiAdapter@WiFi@Devices@Windows@@PE$AAVObject@Platform@@@Foundation@Windows@@@@YAXPE$ADV?$TypedEventHandler@PE$AAVWiFiAdapter@WiFi@Devices@Windows@@PE$AAVObject@Platform@@@Foundation@Windows@@@Z 00000001800010e0 f i _nodert_generated.obj
 0001:000000e0       ??$__abi_winrt_ptrto_delegate_dtor@V?$AsyncOperationCompletedHandler@W4WiFiAccessStatus@WiFi@Devices@Windows@@@Foundation@Windows@@@@YAXPE$ADV?$AsyncOperationCompletedHandler@W4WiFiAccessStatus@WiFi@Devices@Windows@@@Foundation@Windows@@@Z 00000001800010e0 f i _nodert_generated.obj
 0001:000000e0       ??$__abi_winrt_ptrto_delegate_dtor@V?$AsyncOperationCompletedHandler@PE$AAU?$IVectorView@PE$AAVWiFiAdapter@WiFi@Devices@Windows@@@Collections@Foundation@Windows@@@Foundation@Windows@@@@YAXPE$ADV?$AsyncOperationCompletedHandler@PE$AAU?$IVectorView@PE$AAVWiFiAdapter@WiFi@Devices@Windows@@@Collections@Foundation@Windows@@@Foundation@Windows@@@Z 00000001800010e0 f i _nodert_generated.obj
 0001:000000e0       ??$__abi_winrt_ptrto_delegate_dtor@VAsyncActionCompletedHandler@Foundation@Windows@@@@YAXPE$ADVAsyncActionCompletedHandler@Foundation@Windows@@@Z 00000001800010e0 f i _nodert_generated.obj
 0001:000000f0       ?__abi_winrt_ptrto_string_dtor@@YAXQE$ADVString@Platform@@@Z 00000001800010f0 f i _nodert_generated.obj
 0001:00000100       ?__abi_dtor@__abi_FTMWeakRefData@@QEAAXXZ 0000000180001100 f i _nodert_generated.obj
 0001:000001a0       ?Increment@__abi_FTMWeakRefData@@QECAKXZ 00000001800011a0 f i _nodert_generated.obj
 0001:000001d0       ?Decrement@__abi_FTMWeakRefData@@QECAKXZ 00000001800011d0 f i _nodert_generated.obj
 0001:00000260       ??_E__abi_CaptureBase@Details@Platform@@MEAAPEAXI@Z 0000000180001260 f i * CIL library *:* CIL module *
 0001:00000260       ??_G__abi_CaptureBase@Details@Platform@@MEAAPEAXI@Z 0000000180001260 f i _nodert_generated.obj
 0001:00000290       ??1__abi_CapturePtr@Details@Platform@@QEAA@XZ 0000000180001290 f i _nodert_generated.obj
 0001:000002e0       ?__abi_WinRTraiseException@@YAXJ@Z 00000001800012e0 f i _nodert_generated.obj
 0001:000003d0       ?__abi_winrt_ptrto_string_ctor@@YAPEAXPE$ADVString@Platform@@@Z 00000001800013d0 f i _nodert_generated.obj
 0001:00000400       ?PlacementFree@Heap@Details@Platform@@SAXPEAX0@Z 0000000180001400 f i _nodert_generated.obj
 0001:00000400       ?_Doraise@exception@stdext@@MEBAXXZ 0000000180001400 f i _nodert_generated.obj
 0001:00000400       _guard_check_icall_nop     0000000180001400 f i MSVCRT:guard_support.obj
 0001:00000400       ??3@YAXPEAX0@Z             0000000180001400 f i _nodert_generated.obj
 0001:00000410       ?__abi_QueryInterface@__abi_FTMWeakRefData@@QEAAJAEAVGuid@Platform@@PEAPEAX@Z 0000000180001410 f i _nodert_generated.obj
 0001:000004e0       ??0String@Platform@@QE$AAA@PEB_W@Z 00000001800014e0 f i _nodert_generated.obj
 0001:00000540       ??0exception@stdext@@QEAA@AEBV01@@Z 0000000180001540 f i _nodert_generated.obj
 0001:00000560       ?what@exception@stdext@@UEBAPEBDXZ 0000000180001560 f i _nodert_generated.obj
 0001:00000580       ?_Raise@exception@stdext@@QEBAXXZ 0000000180001580 f i _nodert_generated.obj
 0001:000005c0       ??_Etask_canceled@Concurrency@@UEAAPEAXI@Z 00000001800015c0 f i * CIL library *:* CIL module *
 0001:000005c0       ??_Eruntime_error@std@@UEAAPEAXI@Z 00000001800015c0 f i * CIL library *:* CIL module *
 0001:000005c0       ??_Gtask_canceled@Concurrency@@UEAAPEAXI@Z 00000001800015c0 f i _nodert_generated.obj
 0001:000005c0       ??_Einvalid_operation@Concurrency@@UEAAPEAXI@Z 00000001800015c0 f i * CIL library *:* CIL module *
 0001:000005c0       ??_Gruntime_error@std@@UEAAPEAXI@Z 00000001800015c0 f i _nodert_generated.obj
 0001:000005c0       ??_Eexception@stdext@@UEAAPEAXI@Z 00000001800015c0 f i * CIL library *:* CIL module *
 0001:000005c0       ??_Ginvalid_operation@Concurrency@@UEAAPEAXI@Z 00000001800015c0 f i _nodert_generated.obj
 0001:000005c0       ??_Gexception@stdext@@UEAAPEAXI@Z 00000001800015c0 f i _nodert_generated.obj
 0001:000005f0       ??1exception_ptr@std@@QEAA@XZ 00000001800015f0 f i _nodert_generated.obj
 0001:00000600       ?_Current_exception@exception_ptr@std@@SA?AV12@XZ 0000000180001600 f i _nodert_generated.obj
 0001:00000630       ?_Copy_exception@exception_ptr@std@@SA?AV12@PEAXPEBX@Z 0000000180001630 f i _nodert_generated.obj
 0001:000006a0       ?current_exception@std@@YA?AVexception_ptr@1@XZ 00000001800016a0 f i _nodert_generated.obj
 0001:000006c0       ?_Doraise@runtime_error@std@@MEBAXXZ 00000001800016c0 f i _nodert_generated.obj
 0001:000006e0       ??1task_canceled@Concurrency@@UEAA@XZ 00000001800016e0 f i _nodert_generated.obj
 0001:000006e0       ??1runtime_error@std@@UEAA@XZ 00000001800016e0 f i _nodert_generated.obj
 0001:000006e0       ??1invalid_operation@Concurrency@@UEAA@XZ 00000001800016e0 f i _nodert_generated.obj
 0001:00000900       ?Equals@Nan@@YA?AV?$Maybe@_N@v8@@V?$Local@VValue@v8@@@3@0@Z 0000000180001900 f i _nodert_generated.obj
 0001:00000980       ?NewInstance@Nan@@YA?AV?$MaybeLocal@VObject@v8@@@v8@@V?$Local@VFunction@v8@@@3@HQEAV?$Local@VValue@v8@@@3@@Z 0000000180001980 f i _nodert_generated.obj
 0001:00000a30       ?NewInstance@Nan@@YA?AV?$MaybeLocal@VObject@v8@@@v8@@V?$Local@VObjectTemplate@v8@@@3@@Z 0000000180001a30 f i _nodert_generated.obj
 0001:00000ab0       ?GetFunction@Nan@@YA?AV?$MaybeLocal@VFunction@v8@@@v8@@V?$Local@VFunctionTemplate@v8@@@3@@Z 0000000180001ab0 f i _nodert_generated.obj
 0001:00000b30       ?Set@Nan@@YA?AV?$Maybe@_N@v8@@V?$Local@VObject@v8@@@3@V?$Local@VValue@v8@@@3@1@Z 0000000180001b30 f i _nodert_generated.obj
 0001:00000bc0       ?Get@Nan@@YA?AV?$MaybeLocal@VValue@v8@@@v8@@V?$Local@VObject@v8@@@3@V?$Local@VValue@v8@@@3@@Z 0000000180001bc0 f i _nodert_generated.obj
 0001:00000c50       ?Delete@Nan@@YA?AV?$Maybe@_N@v8@@V?$Local@VObject@v8@@@3@V?$Local@VString@v8@@@3@@Z 0000000180001c50 f i _nodert_generated.obj
 0001:00000cd0       ?SetPrototype@Nan@@YA?AV?$Maybe@_N@v8@@V?$Local@VObject@v8@@@3@V?$Local@VValue@v8@@@3@@Z 0000000180001cd0 f i _nodert_generated.obj
 0001:00000d50       ?convert@?$ToFactory@VString@v8@@@imp@Nan@@SA?AV?$MaybeLocal@VString@v8@@@v8@@V?$Local@VValue@v8@@@5@@Z 0000000180001d50 f i _nodert_generated.obj
 0001:00000de0       ?convert@?$ToFactory@VObject@v8@@@imp@Nan@@SA?AV?$MaybeLocal@VObject@v8@@@v8@@V?$Local@VValue@v8@@@5@@Z 0000000180001de0 f i _nodert_generated.obj
 0001:00000e70       ?convert@?$ToFactory@VInteger@v8@@@imp@Nan@@SA?AV?$MaybeLocal@VInteger@v8@@@v8@@V?$Local@VValue@v8@@@5@@Z 0000000180001e70 f i _nodert_generated.obj
 0001:00000f00       ?convert@?$ToFactory@H@imp@Nan@@SA?AV?$Maybe@H@v8@@V?$Local@VValue@v8@@@5@@Z 0000000180001f00 f i _nodert_generated.obj
 0001:00000f80       ?New@?$Factory@VFunctionTemplate@v8@@@imp@Nan@@SA?AV?$Local@VFunctionTemplate@v8@@@v8@@P6AXAEBV?$FunctionCallbackInfo@VValue@v8@@@3@@ZV?$Local@VValue@v8@@@5@V?$Local@VSignature@v8@@@5@@Z 0000000180001f80 f i _nodert_generated.obj
 0001:000010f0       ??1EscapableHandleScope@Nan@@QEAA@XZ 00000001800020f0 f i _nodert_generated.obj
 0001:000010f0       ??1HandleScope@Nan@@QEAA@XZ 00000001800020f0 f i _nodert_generated.obj
 0001:00001100       ?ThrowError@Nan@@YAXV?$Local@VValue@v8@@@v8@@@Z 0000000180002100 f i _nodert_generated.obj
 0001:00001130       ?SetPrototypeMethod@Nan@@YAXV?$Local@VFunctionTemplate@v8@@@v8@@PEBDP6AXAEBV?$FunctionCallbackInfo@VValue@v8@@@1@@Z@Z 0000000180002130 f i _nodert_generated.obj
 0001:00001240       ?SetAccessor@Nan@@YAXV?$Local@VObjectTemplate@v8@@@v8@@V?$Local@VString@v8@@@3@P6AX1AEBV?$PropertyCallbackInfo@VValue@v8@@@1@@ZP6AX1V?$Local@VValue@v8@@@3@AEBV?$PropertyCallbackInfo@X@1@@Z4W4AccessControl@3@W4PropertyAttribute@3@V?$Local@VAccessorSignature@v8@@@3@@Z 0000000180002240 f i _nodert_generated.obj
 0001:00001370       ?SetIndexedPropertyHandler@Nan@@YAXV?$Local@VObjectTemplate@v8@@@v8@@P6AXIAEBV?$PropertyCallbackInfo@VValue@v8@@@1@@ZP6AXIV?$Local@VValue@v8@@@3@1@ZP6AXIAEBV?$PropertyCallbackInfo@VInteger@v8@@@1@@ZP6AXIAEBV?$PropertyCallbackInfo@VBoolean@v8@@@1@@ZP6AXAEBV?$PropertyCallbackInfo@VArray@v8@@@1@@Z3@Z 0000000180002370 f i _nodert_generated.obj
 0001:000014a0       ??1ObjectWrap@Nan@@UEAA@XZ 00000001800024a0 f i _nodert_generated.obj
 0001:00001520       ?Wrap@ObjectWrap@Nan@@IEAAXV?$Local@VObject@v8@@@v8@@@Z 0000000180002520 f i _nodert_generated.obj
 0001:00001600       ?Ref@ObjectWrap@Nan@@MEAAXXZ 0000000180002600 f i _nodert_generated.obj
 0001:00001640       ?Unref@ObjectWrap@Nan@@MEAAXXZ 0000000180002640 f i _nodert_generated.obj
 0001:000016f0       ?WeakCallback@ObjectWrap@Nan@@CAXAEBV?$WeakCallbackInfo@VObjectWrap@Nan@@@v8@@@Z 00000001800026f0 f i _nodert_generated.obj
 0001:00001780       ??_EObjectWrap@Nan@@UEAAPEAXI@Z 0000000180002780 f i * CIL library *:* CIL module *
 0001:00001780       ??_GObjectWrap@Nan@@UEAAPEAXI@Z 0000000180002780 f i _nodert_generated.obj
 0001:000017c0       ??1_Ref_count_base@std@@UEAA@XZ 00000001800027c0 f i _nodert_generated.obj
 0001:000017d0       _is_c_termination_complete 00000001800027d0 f i MSVCRT:ucrt_stubs.obj
 0001:000017d0       ?_Get_deleter@_Ref_count_base@std@@UEBAPEAXAEBVtype_info@@@Z 00000001800027d0 f i _nodert_generated.obj
 0001:000017d0       __scrt_stub_for_is_c_termination_complete 00000001800027d0 f i MSVCRT:ucrt_stubs.obj
 0001:000017e0       ??_E_Ref_count_base@std@@UEAAPEAXI@Z 00000001800027e0 f i * CIL library *:* CIL module *
 0001:000017e0       ??_G_Ref_count_base@std@@UEAAPEAXI@Z 00000001800027e0 f i _nodert_generated.obj
 0001:00001810       ??0scheduler_ptr@Concurrency@@QEAA@V?$shared_ptr@Uscheduler_interface@Concurrency@@@std@@@Z 0000000180002810 f i _nodert_generated.obj
 0001:000018a0       ?_Callback@_PPLTaskChore@_DefaultPPLTaskScheduler@details@Concurrency@@CAXPEAX@Z 00000001800028a0 f i _nodert_generated.obj
 0001:000018e0       ?schedule@_DefaultPPLTaskScheduler@details@Concurrency@@UEAAXP6AXPEAX@Z0@Z 00000001800028e0 f i _nodert_generated.obj
 0001:00001990       ?get_ambient_scheduler@Concurrency@@YAAEBV?$shared_ptr@Uscheduler_interface@Concurrency@@@std@@XZ 0000000180002990 f i _nodert_generated.obj
 0001:00001a00       ?_Destroy@_RefCounter@details@Concurrency@@MEAAXXZ 0000000180002a00 f i _nodert_generated.obj
 0001:00001a20       ??_E_RefCounter@details@Concurrency@@UEAAPEAXI@Z 0000000180002a20 f i * CIL library *:* CIL module *
 0001:00001a20       ??_G_RefCounter@details@Concurrency@@UEAAPEAXI@Z 0000000180002a20 f i _nodert_generated.obj
 0001:00001a50       ?_Invoke@_CancellationTokenRegistration@details@Concurrency@@AEAAXXZ 0000000180002a50 f i _nodert_generated.obj
 0001:00001b40       ??_E_CancellationTokenRegistration@details@Concurrency@@MEAAPEAXI@Z 0000000180002b40 f i * CIL library *:* CIL module *
 0001:00001b40       ??_G_CancellationTokenRegistration@details@Concurrency@@MEAAPEAXI@Z 0000000180002b40 f i _nodert_generated.obj
 0001:00001ba0       ?_RegisterCallback@_CancellationTokenState@details@Concurrency@@QEAAXPEAV_CancellationTokenRegistration@23@@Z 0000000180002ba0 f i _nodert_generated.obj
 0001:00001c70       ?_DeregisterCallback@_CancellationTokenState@details@Concurrency@@QEAAXPEAV_CancellationTokenRegistration@23@@Z 0000000180002c70 f i _nodert_generated.obj
 0001:00001e10       ?none@cancellation_token@Concurrency@@SA?AV12@XZ 0000000180002e10 f i _nodert_generated.obj
 0001:00001e20       ??1cancellation_token@Concurrency@@QEAA@XZ 0000000180002e20 f i _nodert_generated.obj
 0001:00001e80       ??1_TaskProcHandle@details@Concurrency@@UEAA@XZ 0000000180002e80 f i _nodert_generated.obj
 0001:00001e90       ?_RunChoreBridge@_TaskProcHandle@details@Concurrency@@SAXPEAX@Z 0000000180002e90 f i _nodert_generated.obj
 0001:00001ed0       ??_G_TaskProcHandle@details@Concurrency@@UEAAPEAXI@Z 0000000180002ed0 f i _nodert_generated.obj
 0001:00001ed0       ??_E_TaskProcHandle@details@Concurrency@@UEAAPEAXI@Z 0000000180002ed0 f i * CIL library *:* CIL module *
 0001:00001f00       ?WaitUntilStateChangedTo@_TaskCollectionBaseImpl@details@Concurrency@@IEAAXW4_TaskCollectionState@123@@Z 0000000180002f00 f i _nodert_generated.obj
 0001:00001f90       ??0_TaskCollectionBaseImpl@details@Concurrency@@QEAA@Uscheduler_ptr@2@@Z 0000000180002f90 f i _nodert_generated.obj
 0001:00002050       ?_Complete@_TaskCollectionBaseImpl@details@Concurrency@@QEAAXXZ 0000000180003050 f i _nodert_generated.obj
 0001:000020c0       ?_GetScheduler@_TaskCollectionBaseImpl@details@Concurrency@@QEBA?AUscheduler_ptr@3@XZ 00000001800030c0 f i _nodert_generated.obj
 0001:00002120       ?_RunTask@_TaskCollectionBaseImpl@details@Concurrency@@SAXP6AXPEAX@Z0W4_TaskInliningMode@23@@Z 0000000180003120 f i _nodert_generated.obj
 0001:000021f0       ??1?$task@PE$AAVWiFiAdapter@WiFi@Devices@Windows@@@Concurrency@@QEAA@XZ 00000001800031f0 f i _nodert_generated.obj
 0001:000021f0       ??1?$task@W4WiFiAccessStatus@WiFi@Devices@Windows@@@Concurrency@@QEAA@XZ 00000001800031f0 f i _nodert_generated.obj
 0001:000021f0       ??1?$task@PE$AAU?$IVectorView@PE$AAVWiFiAdapter@WiFi@Devices@Windows@@@Collections@Foundation@Windows@@@Concurrency@@QEAA@XZ 00000001800031f0 f i _nodert_generated.obj
 0001:000021f0       ??1?$task@PE$AAVWiFiConnectionResult@WiFi@Devices@Windows@@@Concurrency@@QEAA@XZ 00000001800031f0 f i _nodert_generated.obj
 0001:000021f0       ??1?$task@X@Concurrency@@QEAA@XZ 00000001800031f0 f i _nodert_generated.obj
 0001:000021f0       ??1?$task@E@Concurrency@@QEAA@XZ 00000001800031f0 f i _nodert_generated.obj
 0001:000021f0       ??1scheduler_ptr@Concurrency@@QEAA@XZ 00000001800031f0 f i _nodert_generated.obj
 0001:00002250       ?_NoCallOnDefaultTask_ErrorImpl@_DefaultTaskHelper@details@Concurrency@@SAXXZ 0000000180003250 f i _nodert_generated.obj
 0001:00002280       ?_CaptureSingleFrameCallstack@_TaskCreationCallstack@details@Concurrency@@SA?AV123@PEAX@Z 0000000180003280 f i _nodert_generated.obj
 0001:000022a0       ??1_TaskCreationCallstack@details@Concurrency@@QEAA@XZ 00000001800032a0 f i _nodert_generated.obj
 0001:000022e0       ?_Bridge@_TaskProcThunk@details@Concurrency@@SAXPEAX@Z 00000001800032e0 f i _nodert_generated.obj
 0001:00002340       ??1_Holder@_TaskProcThunk@details@Concurrency@@QEAA@XZ 0000000180003340 f i _nodert_generated.obj
 0001:00002390       ?_CaptureCurrent@_ContextCallback@details@Concurrency@@SA?AV123@XZ 0000000180003390 f i _nodert_generated.obj
 0001:000023d0       ??1_ContextCallback@details@Concurrency@@QEAA@XZ 00000001800033d0 f i _nodert_generated.obj
 0001:000023f0       ?_CallInContext@_ContextCallback@details@Concurrency@@QEBAXV?$function@$$A6AXXZ@std@@@Z 00000001800033f0 f i _nodert_generated.obj
 0001:00002480       ??1_ExceptionHolder@details@Concurrency@@QEAA@XZ 0000000180003480 f i _nodert_generated.obj
 0001:000024e0       ?_RethrowUserException@_ExceptionHolder@details@Concurrency@@QEAAXXZ 00000001800034e0 f i _nodert_generated.obj
 0001:00002520       ??0_TaskCreationCallstack@details@Concurrency@@QEAA@AEBV012@@Z 0000000180003520 f i _nodert_generated.obj
 0001:000025b0       ??0_IAsyncActionToAsyncOperationConverter@details@Concurrency@@QE$AAA@PE$AAUIAsyncAction@Foundation@Windows@@@Z 00000001800035b0 f i _nodert_generated.obj
 0001:00002640       ?GetResults@?Q?$IAsyncOperation@E@Foundation@Windows@@_IAsyncActionToAsyncOperationConverter@details@Concurrency@@UE$AAAEXZ 0000000180003640 f i _nodert_generated.obj
 0001:00002690       ?use_default@task_continuation_context@Concurrency@@SA?AV12@XZ 0000000180003690 f i _nodert_generated.obj
 0001:000026b0       ??1task_continuation_context@Concurrency@@QEAA@XZ 00000001800036b0 f i _nodert_generated.obj
 0001:000026d0       ??0task_options@Concurrency@@QEAA@XZ 00000001800036d0 f i _nodert_generated.obj
 0001:00002760       ?get_cancellation_token@task_options@Concurrency@@QEBA?AVcancellation_token@2@XZ 0000000180003760 f i _nodert_generated.obj
 0001:00002780       ?get_continuation_context@task_options@Concurrency@@QEBA?AVtask_continuation_context@2@XZ 0000000180003780 f i _nodert_generated.obj
 0001:000027c0       ?get_scheduler@task_options@Concurrency@@QEBA?AUscheduler_ptr@2@XZ 00000001800037c0 f i _nodert_generated.obj
 0001:00002810       ??1_Internal_task_options@details@Concurrency@@QEAA@XZ 0000000180003810 f i _nodert_generated.obj
 0001:00002850       ??0_ThenImplOptions@details@Concurrency@@QEAA@PEAV_CancellationTokenState@12@PEBVtask_continuation_context@2@Uscheduler_ptr@2@V_TaskCreationCallstack@12@W4_TaskInliningMode@12@@Z 0000000180003850 f i _nodert_generated.obj
 0001:00002940       ?_CreateOptions@_ThenImplOptions@details@Concurrency@@SA?AU123@AEBVtask_options@3@AEBVtask_continuation_context@3@AEBUscheduler_ptr@3@@Z 0000000180003940 f i _nodert_generated.obj
 0001:00002d60       ??1_ThenImplOptions@details@Concurrency@@QEAA@XZ 0000000180003d60 f i _nodert_generated.obj
 0001:00002de0       ??_G_ContinuationTaskHandleBase@details@Concurrency@@UEAAPEAXI@Z 0000000180003de0 f i _nodert_generated.obj
 0001:00002de0       ??_E_ContinuationTaskHandleBase@details@Concurrency@@UEAAPEAXI@Z 0000000180003de0 f i * CIL library *:* CIL module *
 0001:00002e40       ??1_TaskWorkItemRAIILogger@details@Concurrency@@QEAA@XZ 0000000180003e40 f i _nodert_generated.obj
 0001:00002e60       ??0_Task_impl_base@details@Concurrency@@QEAA@PEAV_CancellationTokenState@12@Uscheduler_ptr@2@@Z 0000000180003e60 f i _nodert_generated.obj
 0001:00002f80       ??1_Task_impl_base@details@Concurrency@@UEAA@XZ 0000000180003f80 f i _nodert_generated.obj
 0001:00003070       ?_Wait@_Task_impl_base@details@Concurrency@@QEAA?AW4task_group_status@3@XZ 0000000180004070 f i _nodert_generated.obj
 0001:00003110       ?_CancelWithException@_Task_impl_base@details@Concurrency@@QEAA_NAEBVexception_ptr@std@@@Z 0000000180004110 f i _nodert_generated.obj
 0001:000031d0       ?_RegisterCancellation@_Task_impl_base@details@Concurrency@@QEAAXV?$weak_ptr@U_Task_impl_base@details@Concurrency@@@std@@@Z 00000001800041d0 f i _nodert_generated.obj
 0001:00003320       ?_DeregisterCancellation@_Task_impl_base@details@Concurrency@@QEAAXXZ 0000000180004320 f i _nodert_generated.obj
 0001:000033a0       ?_GetTaskCreationCallstack@_Task_impl_base@details@Concurrency@@QEAA?AV_TaskCreationCallstack@23@XZ 00000001800043a0 f i _nodert_generated.obj
 0001:000033d0       ?_ScheduleTask@_Task_impl_base@details@Concurrency@@QEAAXPEAU_TaskProcHandle@23@W4_TaskInliningMode@23@@Z 00000001800043d0 f i _nodert_generated.obj
 0001:00003440       ?_ScheduleContinuationTask@_Task_impl_base@details@Concurrency@@QEAAXPEAU_ContinuationTaskHandleBase@23@@Z 0000000180004440 f i _nodert_generated.obj
 0001:00003670       ?_ScheduleContinuation@_Task_impl_base@details@Concurrency@@QEAAXPEAU_ContinuationTaskHandleBase@23@@Z 0000000180004670 f i _nodert_generated.obj
 0001:00003860       ?_RunTaskContinuations@_Task_impl_base@details@Concurrency@@QEAAXXZ 0000000180004860 f i _nodert_generated.obj
 0001:00003960       ?_GetScheduler@_Task_impl_base@details@Concurrency@@QEBA?AUscheduler_ptr@3@XZ 0000000180004960 f i _nodert_generated.obj
 0001:00003980       ??_G_Task_impl_base@details@Concurrency@@UEAAPEAXI@Z 0000000180004980 f i _nodert_generated.obj
 0001:00003980       ??_E_Task_impl_base@details@Concurrency@@UEAAPEAXI@Z 0000000180004980 f i * CIL library *:* CIL module *
 0001:000039c0       ??1_TaskCollectionBaseImpl@details@Concurrency@@QEAA@XZ 00000001800049c0 f i _nodert_generated.obj
 0001:00003a70       ?_CreateImpl@?$task@X@Concurrency@@QEAAXPEAV_CancellationTokenState@details@2@Uscheduler_ptr@2@@Z 0000000180004a70 f i _nodert_generated.obj
 0001:00003b20       ??1task_options@Concurrency@@QEAA@XZ 0000000180004b20 f i _nodert_generated.obj
 0001:00003bf0       ?IsOpaqueWrapper@OpaqueWrapper@NodeRT@@SA_NV?$Local@VValue@v8@@@v8@@@Z 0000000180004bf0 f i _nodert_generated.obj
 0001:00003cc0       ??1WrapperBase@NodeRT@@UEAA@XZ 0000000180004cc0 f i _nodert_generated.obj
 0001:00003cd0       ?NewAsyncToken@TokenData@Async@NodeUtils@@SAPEAUuv_async_s@@V?$Local@VFunction@v8@@@v8@@V?$Local@VValue@v8@@@6@@Z 0000000180004cd0 f i _nodert_generated.obj
 0001:00003da0       ?RunOnMain@Async@NodeUtils@@SAXV?$function@$$A6AXXZ@std@@@Z 0000000180004da0 f i _nodert_generated.obj
 0001:00003eb0       ?RunCallbackOnMain@Async@NodeUtils@@SAXPEAUuv_async_s@@V?$function@$$A6AXV?$function@$$A6AXHPEAV?$Local@VValue@v8@@@v8@@@Z@std@@@Z@std@@@Z 0000000180004eb0 f i _nodert_generated.obj
 0001:00004240       ?CreateCallbackData@Async@NodeUtils@@CA?AV?$Local@VObject@v8@@@v8@@V?$Local@VFunction@v8@@@4@V?$Local@VValue@v8@@@4@@Z 0000000180005240 f i _nodert_generated.obj
 0001:00004490       ?AyncCloseCb@Async@NodeUtils@@CAXPEAUuv_handle_s@@@Z 0000000180005490 f i _nodert_generated.obj
 0001:000044a0       ?AsyncCb@Async@NodeUtils@@CAXPEAUuv_async_s@@@Z 00000001800054a0 f i _nodert_generated.obj
 0001:00004500       ??_GTokenData@Async@NodeUtils@@UEAAPEAXI@Z 0000000180005500 f i _nodert_generated.obj
 0001:00004500       ??_ETokenData@Async@NodeUtils@@UEAAPEAXI@Z 0000000180005500 f i * CIL library *:* CIL module *
 0001:000055a0       ?Init@WiFiAdapter@WiFi@Devices@Windows@NodeRT@@SAXV?$Local@VObject@v8@@@v8@@@Z 00000001800065a0 f i _nodert_generated.obj
 0001:00005a20       ?GetObjectInstance@OpaqueWrapper@NodeRT@@UEBAPE$AAVObject@Platform@@XZ 0000000180006a20 f i OpaqueWrapper.obj
 0001:00005a20       ?GetObjectInstance@WiFiAdapter@WiFi@Devices@Windows@NodeRT@@UEBAPE$AAVObject@Platform@@XZ 0000000180006a20 f i _nodert_generated.obj
 0001:00005a20       ?GetObjectInstance@?$VectorViewWrapper@PE$AAVWiFiAvailableNetwork@WiFi@Devices@Windows@@@Collections@NodeRT@@UEBAPE$AAVObject@Platform@@XZ 0000000180006a20 f i _nodert_generated.obj
 0001:00005a20       ?GetObjectInstance@?$IteratorWrapper@PE$AAVWiFiAdapter@WiFi@Devices@Windows@@@Collections@NodeRT@@UEBAPE$AAVObject@Platform@@XZ 0000000180006a20 f i _nodert_generated.obj
 0001:00005a20       ?GetObjectInstance@?$VectorViewWrapper@PE$AAVWiFiAdapter@WiFi@Devices@Windows@@@Collections@NodeRT@@UEBAPE$AAVObject@Platform@@XZ 0000000180006a20 f i _nodert_generated.obj
 0001:00005a20       ?GetObjectInstance@WiFiConnectionResult@WiFi@Devices@Windows@NodeRT@@UEBAPE$AAVObject@Platform@@XZ 0000000180006a20 f i _nodert_generated.obj
 0001:00005a20       ?GetObjectInstance@WiFiAvailableNetwork@WiFi@Devices@Windows@NodeRT@@UEBAPE$AAVObject@Platform@@XZ 0000000180006a20 f i _nodert_generated.obj
 0001:00005a20       ?GetObjectInstance@?$IteratorWrapper@PE$AAVWiFiAvailableNetwork@WiFi@Devices@Windows@@@Collections@NodeRT@@UEBAPE$AAVObject@Platform@@XZ 0000000180006a20 f i _nodert_generated.obj
 0001:00005a20       ?GetObjectInstance@WiFiNetworkReport@WiFi@Devices@Windows@NodeRT@@UEBAPE$AAVObject@Platform@@XZ 0000000180006a20 f i _nodert_generated.obj
 0001:00005a50       ?New@WiFiAdapter@WiFi@Devices@Windows@NodeRT@@CAXAEBV?$FunctionCallbackInfo@VValue@v8@@@Nan@@@Z 0000000180006a50 f i _nodert_generated.obj
 0001:00005ee0       ?CastFrom@WiFiAdapter@WiFi@Devices@Windows@NodeRT@@CAXAEBV?$FunctionCallbackInfo@VValue@v8@@@Nan@@@Z 0000000180006ee0 f i _nodert_generated.obj
 0001:000060d0       ?ScanAsync@WiFiAdapter@WiFi@Devices@Windows@NodeRT@@CAXAEBV?$FunctionCallbackInfo@VValue@v8@@@Nan@@@Z 00000001800070d0 f i _nodert_generated.obj
 0001:000065e0       ?ConnectAsync@WiFiAdapter@WiFi@Devices@Windows@NodeRT@@CAXAEBV?$FunctionCallbackInfo@VValue@v8@@@Nan@@@Z 00000001800075e0 f i _nodert_generated.obj
 0001:00007100       ?Disconnect@WiFiAdapter@WiFi@Devices@Windows@NodeRT@@CAXAEBV?$FunctionCallbackInfo@VValue@v8@@@Nan@@@Z 0000000180008100 f i _nodert_generated.obj
 0001:00007200       ?FindAllAdaptersAsync@WiFiAdapter@WiFi@Devices@Windows@NodeRT@@CAXAEBV?$FunctionCallbackInfo@VValue@v8@@@Nan@@@Z 0000000180008200 f i _nodert_generated.obj
 0001:00007810       ?FromIdAsync@WiFiAdapter@WiFi@Devices@Windows@NodeRT@@CAXAEBV?$FunctionCallbackInfo@VValue@v8@@@Nan@@@Z 0000000180008810 f i _nodert_generated.obj
 0001:00007de0       ?RequestAccessAsync@WiFiAdapter@WiFi@Devices@Windows@NodeRT@@CAXAEBV?$FunctionCallbackInfo@VValue@v8@@@Nan@@@Z 0000000180008de0 f i _nodert_generated.obj
 0001:00008300       ?GetDeviceSelector@WiFiAdapter@WiFi@Devices@Windows@NodeRT@@CAXAEBV?$FunctionCallbackInfo@VValue@v8@@@Nan@@@Z 0000000180009300 f i _nodert_generated.obj
 0001:000084a0       ?NetworkAdapterGetter@WiFiAdapter@WiFi@Devices@Windows@NodeRT@@CAXV?$Local@VString@v8@@@v8@@AEBV?$PropertyCallbackInfo@VValue@v8@@@Nan@@@Z 00000001800094a0 f i _nodert_generated.obj
 0001:000085c0       ?NetworkReportGetter@WiFiAdapter@WiFi@Devices@Windows@NodeRT@@CAXV?$Local@VString@v8@@@v8@@AEBV?$PropertyCallbackInfo@VValue@v8@@@Nan@@@Z 00000001800095c0 f i _nodert_generated.obj
 0001:000086d0       ?AddListener@WiFiAdapter@WiFi@Devices@Windows@NodeRT@@CAXAEBV?$FunctionCallbackInfo@VValue@v8@@@Nan@@@Z 00000001800096d0 f i _nodert_generated.obj
 0001:00008f60       ?RemoveListener@WiFiAdapter@WiFi@Devices@Windows@NodeRT@@CAXAEBV?$FunctionCallbackInfo@VValue@v8@@@Nan@@@Z 0000000180009f60 f i _nodert_generated.obj
 0001:000094e0       ??_GWiFiNetworkReport@WiFi@Devices@Windows@NodeRT@@UEAAPEAXI@Z 000000018000a4e0 f i _nodert_generated.obj
 0001:000094e0       ??_EWiFiConnectionResult@WiFi@Devices@Windows@NodeRT@@UEAAPEAXI@Z 000000018000a4e0 f i * CIL library *:* CIL module *
 0001:000094e0       ??_GWiFiAdapter@WiFi@Devices@Windows@NodeRT@@UEAAPEAXI@Z 000000018000a4e0 f i _nodert_generated.obj
 0001:000094e0       ??_EWiFiNetworkReport@WiFi@Devices@Windows@NodeRT@@UEAAPEAXI@Z 000000018000a4e0 f i * CIL library *:* CIL module *
 0001:000094e0       ??_EWiFiAdapter@WiFi@Devices@Windows@NodeRT@@UEAAPEAXI@Z 000000018000a4e0 f i * CIL library *:* CIL module *
 0001:000094e0       ??_GOpaqueWrapper@NodeRT@@UEAAPEAXI@Z 000000018000a4e0 f i OpaqueWrapper.obj
 0001:000094e0       ??_GWiFiAvailableNetwork@WiFi@Devices@Windows@NodeRT@@UEAAPEAXI@Z 000000018000a4e0 f i _nodert_generated.obj
 0001:000094e0       ??_EOpaqueWrapper@NodeRT@@UEAAPEAXI@Z 000000018000a4e0 f i * CIL library *:* CIL module *
 0001:000094e0       ??_EWiFiAvailableNetwork@WiFi@Devices@Windows@NodeRT@@UEAAPEAXI@Z 000000018000a4e0 f i * CIL library *:* CIL module *
 0001:000094e0       ??_GWiFiConnectionResult@WiFi@Devices@Windows@NodeRT@@UEAAPEAXI@Z 000000018000a4e0 f i _nodert_generated.obj
 0001:00009540       ??1TryCatch@Nan@@QEAA@XZ   000000018000a540 f i _nodert_generated.obj
 0001:00009630       ?WrapWiFiAdapter@WiFi@Devices@Windows@NodeRT@@YA?AV?$Local@VValue@v8@@@v8@@PE$AAVWiFiAdapter@123@@Z 000000018000a630 f   _nodert_generated.obj
 0001:00009720       ?Init@WiFiNetworkReport@WiFi@Devices@Windows@NodeRT@@SAXV?$Local@VObject@v8@@@v8@@@Z 000000018000a720 f i _nodert_generated.obj
 0001:00009970       ?New@WiFiNetworkReport@WiFi@Devices@Windows@NodeRT@@CAXAEBV?$FunctionCallbackInfo@VValue@v8@@@Nan@@@Z 000000018000a970 f i _nodert_generated.obj
 0001:00009e00       ?CastFrom@WiFiNetworkReport@WiFi@Devices@Windows@NodeRT@@CAXAEBV?$FunctionCallbackInfo@VValue@v8@@@Nan@@@Z 000000018000ae00 f i _nodert_generated.obj
 0001:00009ff0       ?AvailableNetworksGetter@WiFiNetworkReport@WiFi@Devices@Windows@NodeRT@@CAXV?$Local@VString@v8@@@v8@@AEBV?$PropertyCallbackInfo@VValue@v8@@@Nan@@@Z 000000018000aff0 f i _nodert_generated.obj
 0001:0000a260       ?TimestampGetter@WiFiNetworkReport@WiFi@Devices@Windows@NodeRT@@CAXV?$Local@VString@v8@@@v8@@AEBV?$PropertyCallbackInfo@VValue@v8@@@Nan@@@Z 000000018000b260 f i _nodert_generated.obj
 0001:0000a350       ?WrapWiFiNetworkReport@WiFi@Devices@Windows@NodeRT@@YA?AV?$Local@VValue@v8@@@v8@@PE$AAVWiFiNetworkReport@123@@Z 000000018000b350 f   _nodert_generated.obj
 0001:0000a440       ?Init@WiFiAvailableNetwork@WiFi@Devices@Windows@NodeRT@@SAXV?$Local@VObject@v8@@@v8@@@Z 000000018000b440 f i _nodert_generated.obj
 0001:0000aa00       ?New@WiFiAvailableNetwork@WiFi@Devices@Windows@NodeRT@@CAXAEBV?$FunctionCallbackInfo@VValue@v8@@@Nan@@@Z 000000018000ba00 f i _nodert_generated.obj
 0001:0000ae90       ?CastFrom@WiFiAvailableNetwork@WiFi@Devices@Windows@NodeRT@@CAXAEBV?$FunctionCallbackInfo@VValue@v8@@@Nan@@@Z 000000018000be90 f i _nodert_generated.obj
 0001:0000b080       ?BeaconIntervalGetter@WiFiAvailableNetwork@WiFi@Devices@Windows@NodeRT@@CAXV?$Local@VString@v8@@@v8@@AEBV?$PropertyCallbackInfo@VValue@v8@@@Nan@@@Z 000000018000c080 f i _nodert_generated.obj
 0001:0000b170       ?BssidGetter@WiFiAvailableNetwork@WiFi@Devices@Windows@NodeRT@@CAXV?$Local@VString@v8@@@v8@@AEBV?$PropertyCallbackInfo@VValue@v8@@@Nan@@@Z 000000018000c170 f i _nodert_generated.obj
 0001:0000b2b0       ?ChannelCenterFrequencyInKilohertzGetter@WiFiAvailableNetwork@WiFi@Devices@Windows@NodeRT@@CAXV?$Local@VString@v8@@@v8@@AEBV?$PropertyCallbackInfo@VValue@v8@@@Nan@@@Z 000000018000c2b0 f i _nodert_generated.obj
 0001:0000b390       ?IsWiFiDirectGetter@WiFiAvailableNetwork@WiFi@Devices@Windows@NodeRT@@CAXV?$Local@VString@v8@@@v8@@AEBV?$PropertyCallbackInfo@VValue@v8@@@Nan@@@Z 000000018000c390 f i _nodert_generated.obj
 0001:0000b450       ?NetworkKindGetter@WiFiAvailableNetwork@WiFi@Devices@Windows@NodeRT@@CAXV?$Local@VString@v8@@@v8@@AEBV?$PropertyCallbackInfo@VValue@v8@@@Nan@@@Z 000000018000c450 f i _nodert_generated.obj
 0001:0000b540       ?NetworkRssiInDecibelMilliwattsGetter@WiFiAvailableNetwork@WiFi@Devices@Windows@NodeRT@@CAXV?$Local@VString@v8@@@v8@@AEBV?$PropertyCallbackInfo@VValue@v8@@@Nan@@@Z 000000018000c540 f i _nodert_generated.obj
 0001:0000b600       ?PhyKindGetter@WiFiAvailableNetwork@WiFi@Devices@Windows@NodeRT@@CAXV?$Local@VString@v8@@@v8@@AEBV?$PropertyCallbackInfo@VValue@v8@@@Nan@@@Z 000000018000c600 f i _nodert_generated.obj
 0001:0000b6f0       ?SecuritySettingsGetter@WiFiAvailableNetwork@WiFi@Devices@Windows@NodeRT@@CAXV?$Local@VString@v8@@@v8@@AEBV?$PropertyCallbackInfo@VValue@v8@@@Nan@@@Z 000000018000c6f0 f i _nodert_generated.obj
 0001:0000b810       ?SignalBarsGetter@WiFiAvailableNetwork@WiFi@Devices@Windows@NodeRT@@CAXV?$Local@VString@v8@@@v8@@AEBV?$PropertyCallbackInfo@VValue@v8@@@Nan@@@Z 000000018000c810 f i _nodert_generated.obj
 0001:0000b8f0       ?SsidGetter@WiFiAvailableNetwork@WiFi@Devices@Windows@NodeRT@@CAXV?$Local@VString@v8@@@v8@@AEBV?$PropertyCallbackInfo@VValue@v8@@@Nan@@@Z 000000018000c8f0 f i _nodert_generated.obj
 0001:0000ba30       ?UptimeGetter@WiFiAvailableNetwork@WiFi@Devices@Windows@NodeRT@@CAXV?$Local@VString@v8@@@v8@@AEBV?$PropertyCallbackInfo@VValue@v8@@@Nan@@@Z 000000018000ca30 f i _nodert_generated.obj
 0001:0000bb20       ?WrapWiFiAvailableNetwork@WiFi@Devices@Windows@NodeRT@@YA?AV?$Local@VValue@v8@@@v8@@PE$AAVWiFiAvailableNetwork@123@@Z 000000018000cb20 f   _nodert_generated.obj
 0001:0000bc10       ?UnwrapWiFiAvailableNetwork@WiFi@Devices@Windows@NodeRT@@YAPE$AAVWiFiAvailableNetwork@123@V?$Local@VValue@v8@@@v8@@@Z 000000018000cc10 f   _nodert_generated.obj
 0001:0000bc60       ?Init@WiFiConnectionResult@WiFi@Devices@Windows@NodeRT@@SAXV?$Local@VObject@v8@@@v8@@@Z 000000018000cc60 f i _nodert_generated.obj
 0001:0000be50       ?New@WiFiConnectionResult@WiFi@Devices@Windows@NodeRT@@CAXAEBV?$FunctionCallbackInfo@VValue@v8@@@Nan@@@Z 000000018000ce50 f i _nodert_generated.obj
 0001:0000c2e0       ?CastFrom@WiFiConnectionResult@WiFi@Devices@Windows@NodeRT@@CAXAEBV?$FunctionCallbackInfo@VValue@v8@@@Nan@@@Z 000000018000d2e0 f i _nodert_generated.obj
 0001:0000c4d0       ?ConnectionStatusGetter@WiFiConnectionResult@WiFi@Devices@Windows@NodeRT@@CAXV?$Local@VString@v8@@@v8@@AEBV?$PropertyCallbackInfo@VValue@v8@@@Nan@@@Z 000000018000d4d0 f i _nodert_generated.obj
 0001:0000c5c0       ?WrapWiFiConnectionResult@WiFi@Devices@Windows@NodeRT@@YA?AV?$Local@VValue@v8@@@v8@@PE$AAVWiFiConnectionResult@123@@Z 000000018000d5c0 f   _nodert_generated.obj
 0001:0000c6b0       ?init@@YAXV?$Local@VObject@v8@@@v8@@@Z 000000018000d6b0 f   _nodert_generated.obj
 0001:0000c740       ?__abi_Windows_Foundation_IAsyncInfo____abi_get_ErrorCode@?QIAsyncInfo@Foundation@Windows@@?$_AsyncInfoImpl@PE$AAUIAsyncAction@Foundation@Windows@@VAsyncActionCompletedHandler@23@E@details@Concurrency@@UE$AAAJPEAVHResult@23@@Z 000000018000d740 f i _nodert_generated.obj
 0001:0000c7c0       ?__abi_Windows_Foundation_IAsyncInfo____abi_get_Id@?QIAsyncInfo@Foundation@Windows@@?$_AsyncInfoImpl@PE$AAUIAsyncAction@Foundation@Windows@@VAsyncActionCompletedHandler@23@E@details@Concurrency@@UE$AAAJPEAI@Z 000000018000d7c0 f i _nodert_generated.obj
 0001:0000c810       ?__abi_Windows_Foundation_IAsyncInfo____abi_get_Status@?QIAsyncInfo@Foundation@Windows@@?$_AsyncInfoImpl@PE$AAUIAsyncAction@Foundation@Windows@@VAsyncActionCompletedHandler@23@E@details@Concurrency@@UE$AAAJPEAW4AsyncStatus@23@@Z 000000018000d810 f i _nodert_generated.obj
 0001:0000c860       ?__abi_Windows_Foundation_IAsyncInfo____abi_Cancel@?QIAsyncInfo@Foundation@Windows@@?$_AsyncInfoImpl@PE$AAUIAsyncAction@Foundation@Windows@@VAsyncActionCompletedHandler@23@E@details@Concurrency@@UE$AAAJXZ 000000018000d860 f i _nodert_generated.obj
 0001:0000c8a0       ?__abi_Windows_Foundation_IAsyncInfo____abi_Close@?QIAsyncInfo@Foundation@Windows@@?$_AsyncInfoImpl@PE$AAUIAsyncAction@Foundation@Windows@@VAsyncActionCompletedHandler@23@E@details@Concurrency@@UE$AAAJXZ 000000018000d8a0 f i _nodert_generated.obj
 0001:0000c8e0       ?__abi_Windows_Foundation_?$IAsyncOperation@E____abi_get_Completed@?Q?$IAsyncOperation@E@Foundation@Windows@@?$_AsyncInfoImpl@PE$AAUIAsyncAction@Foundation@Windows@@VAsyncActionCompletedHandler@23@E@details@Concurrency@@UE$AAAJPEAPE$AAV?$AsyncOperationCompletedHandler@E@23@@Z 000000018000d8e0 f i _nodert_generated.obj
 0001:0000c930       ?__abi_Windows_Foundation_?$IAsyncOperation@E____abi_set_Completed@?Q?$IAsyncOperation@E@Foundation@Windows@@?$_AsyncInfoImpl@PE$AAUIAsyncAction@Foundation@Windows@@VAsyncActionCompletedHandler@23@E@details@Concurrency@@UE$AAAJPE$AAV?$AsyncOperationCompletedHandler@E@23@@Z 000000018000d930 f i _nodert_generated.obj
 0001:0000c970       ?__abi_Windows_Foundation_?$IAsyncOperation@E____abi_GetResults@?Q?$IAsyncOperation@E@Foundation@Windows@@?$_AsyncInfoImpl@PE$AAUIAsyncAction@Foundation@Windows@@VAsyncActionCompletedHandler@23@E@details@Concurrency@@UE$AAAJPEAE@Z 000000018000d970 f i _nodert_generated.obj
 0001:0000c9c0       ?__abi_Platform_Details_IWeakReferenceSource____abi_GetWeakReference@?QIWeakReferenceSource@Details@Platform@@_IAsyncActionToAsyncOperationConverter@details@Concurrency@@UE$AAAJPEAPE$AAUIWeakReference@23@@Z 000000018000d9c0 f i _nodert_generated.obj
 0001:0000ca40       ?__abi_QueryInterface@?QObject@Platform@@_IAsyncActionToAsyncOperationConverter@details@Concurrency@@UE$AAAJAEAVGuid@2@PEAPEAX@Z 000000018000da40 f i _nodert_generated.obj
 0001:0000cc30       ?__abi_AddRef@?QObject@Platform@@_IAsyncActionToAsyncOperationConverter@details@Concurrency@@UE$AAAKXZ 000000018000dc30 f i _nodert_generated.obj
 0001:0000cc60       ?__abi_Release@?QObject@Platform@@_IAsyncActionToAsyncOperationConverter@details@Concurrency@@UE$AAAKXZ 000000018000dc60 f i _nodert_generated.obj
 0001:0000cd20       ?__abi_GetIids@?QObject@Platform@@_IAsyncActionToAsyncOperationConverter@details@Concurrency@@UE$AAAJPEAKPEAPEAVGuid@2@@Z 000000018000dd20 f i _nodert_generated.obj
 0001:0000cd90       ?__abi_GetRuntimeClassName@?QObject@Platform@@_IAsyncActionToAsyncOperationConverter@details@Concurrency@@UE$AAAJPEAPEAUHSTRING__@@@Z 000000018000dd90 f i _nodert_generated.obj
 0001:0000cdb0       ?__abi_GetTrustLevel@?$AsyncOperationCompletedHandler@W4WiFiAccessStatus@WiFi@Devices@Windows@@@Foundation@Windows@@UE$AAAJPEAW4__abi_TrustLevel@@@Z 000000018000ddb0 f i _nodert_generated.obj
 0001:0000cdb0       ?__abi_GetTrustLevel@AsyncActionCompletedHandler@Foundation@Windows@@UE$AAAJPEAW4__abi_TrustLevel@@@Z 000000018000ddb0 f i _nodert_generated.obj
 0001:0000cdb0       ?__abi_GetTrustLevel@?$TypedEventHandler@PE$AAVWiFiAdapter@WiFi@Devices@Windows@@PE$AAVObject@Platform@@@Foundation@Windows@@UE$AAAJPEAW4__abi_TrustLevel@@@Z 000000018000ddb0 f i _nodert_generated.obj
 0001:0000cdb0       ?__abi_GetTrustLevel@?QObject@Platform@@_IAsyncActionToAsyncOperationConverter@details@Concurrency@@UE$AAAJPEAW4__abi_TrustLevel@@@Z 000000018000ddb0 f i _nodert_generated.obj
 0001:0000cdb0       ?__abi_GetTrustLevel@?$AsyncOperationCompletedHandler@E@Foundation@Windows@@UE$AAAJPEAW4__abi_TrustLevel@@@Z 000000018000ddb0 f i _nodert_generated.obj
 0001:0000cdb0       ?__abi_GetTrustLevel@?$AsyncOperationCompletedHandler@PE$AAVWiFiAdapter@WiFi@Devices@Windows@@@Foundation@Windows@@UE$AAAJPEAW4__abi_TrustLevel@@@Z 000000018000ddb0 f i _nodert_generated.obj
 0001:0000cdb0       ?__abi_GetTrustLevel@?$AsyncOperationCompletedHandler@PE$AAVWiFiConnectionResult@WiFi@Devices@Windows@@@Foundation@Windows@@UE$AAAJPEAW4__abi_TrustLevel@@@Z 000000018000ddb0 f i _nodert_generated.obj
 0001:0000cdb0       ?__abi_GetTrustLevel@?$AsyncOperationCompletedHandler@PE$AAU?$IVectorView@PE$AAVWiFiAdapter@WiFi@Devices@Windows@@@Collections@Foundation@Windows@@@Foundation@Windows@@UE$AAAJPEAW4__abi_TrustLevel@@@Z 000000018000ddb0 f i _nodert_generated.obj
 0001:0000cdc0       ?GetWeakReference@?QIWeakReferenceSource@Details@Platform@@_IAsyncActionToAsyncOperationConverter@details@Concurrency@@UE$AAAPE$AAUIWeakReference@23@XZ 000000018000ddc0 f i _nodert_generated.obj
 0001:0000ce00       ?__abi_Windows_Foundation_?$TypedEventHandler@PE$AAVWiFiAdapter@WiFi@Devices@Windows@@PE$AAVObject@Platform@@___abi_IDelegate____abi_Invoke@?Q__abi_IDelegate@?$TypedEventHandler@PE$AAVWiFiAdapter@WiFi@Devices@Windows@@PE$AAVObject@Platform@@@Foundation@Windows@@234@UE$AAAJPE$AAVWiFiAdapter@WiFi@Devices@4@PE$AAVObject@Platform@@@Z 000000018000de00 f i _nodert_generated.obj
 0001:0000ce50       ?__abi_QueryInterface@?$TypedEventHandler@PE$AAVWiFiAdapter@WiFi@Devices@Windows@@PE$AAVObject@Platform@@@Foundation@Windows@@UE$AAAJAEAVGuid@Platform@@PEAPEAX@Z 000000018000de50 f i _nodert_generated.obj
 0001:0000cf80       ?__abi_AddRef@?$AsyncOperationCompletedHandler@E@Foundation@Windows@@UE$AAAKXZ 000000018000df80 f i _nodert_generated.obj
 0001:0000cf80       ?__abi_AddRef@?$AsyncOperationCompletedHandler@PE$AAU?$IVectorView@PE$AAVWiFiAdapter@WiFi@Devices@Windows@@@Collections@Foundation@Windows@@@Foundation@Windows@@UE$AAAKXZ 000000018000df80 f i _nodert_generated.obj
 0001:0000cf80       ?__abi_AddRef@?$AsyncOperationCompletedHandler@W4WiFiAccessStatus@WiFi@Devices@Windows@@@Foundation@Windows@@UE$AAAKXZ 000000018000df80 f i _nodert_generated.obj
 0001:0000cf80       ?__abi_AddRef@AsyncActionCompletedHandler@Foundation@Windows@@UE$AAAKXZ 000000018000df80 f i _nodert_generated.obj
 0001:0000cf80       ?__abi_AddRef@?$AsyncOperationCompletedHandler@PE$AAVWiFiAdapter@WiFi@Devices@Windows@@@Foundation@Windows@@UE$AAAKXZ 000000018000df80 f i _nodert_generated.obj
 0001:0000cf80       ?__abi_AddRef@?$AsyncOperationCompletedHandler@PE$AAVWiFiConnectionResult@WiFi@Devices@Windows@@@Foundation@Windows@@UE$AAAKXZ 000000018000df80 f i _nodert_generated.obj
 0001:0000cf80       ?__abi_AddRef@?$TypedEventHandler@PE$AAVWiFiAdapter@WiFi@Devices@Windows@@PE$AAVObject@Platform@@@Foundation@Windows@@UE$AAAKXZ 000000018000df80 f i _nodert_generated.obj
 0001:0000cfb0       ?__abi_Release@?$TypedEventHandler@PE$AAVWiFiAdapter@WiFi@Devices@Windows@@PE$AAVObject@Platform@@@Foundation@Windows@@UE$AAAKXZ 000000018000dfb0 f i _nodert_generated.obj
 0001:0000cfb0       ?__abi_Release@?$AsyncOperationCompletedHandler@PE$AAVWiFiConnectionResult@WiFi@Devices@Windows@@@Foundation@Windows@@UE$AAAKXZ 000000018000dfb0 f i _nodert_generated.obj
 0001:0000cfb0       ?__abi_Release@?$AsyncOperationCompletedHandler@PE$AAU?$IVectorView@PE$AAVWiFiAdapter@WiFi@Devices@Windows@@@Collections@Foundation@Windows@@@Foundation@Windows@@UE$AAAKXZ 000000018000dfb0 f i _nodert_generated.obj
 0001:0000cfb0       ?__abi_Release@AsyncActionCompletedHandler@Foundation@Windows@@UE$AAAKXZ 000000018000dfb0 f i _nodert_generated.obj
 0001:0000cfb0       ?__abi_Release@?$AsyncOperationCompletedHandler@PE$AAVWiFiAdapter@WiFi@Devices@Windows@@@Foundation@Windows@@UE$AAAKXZ 000000018000dfb0 f i _nodert_generated.obj
 0001:0000cfb0       ?__abi_Release@?$AsyncOperationCompletedHandler@W4WiFiAccessStatus@WiFi@Devices@Windows@@@Foundation@Windows@@UE$AAAKXZ 000000018000dfb0 f i _nodert_generated.obj
 0001:0000cfb0       ?__abi_Release@?$AsyncOperationCompletedHandler@E@Foundation@Windows@@UE$AAAKXZ 000000018000dfb0 f i _nodert_generated.obj
 0001:0000d050       ?__abi_GetIids@?$TypedEventHandler@PE$AAVWiFiAdapter@WiFi@Devices@Windows@@PE$AAVObject@Platform@@@Foundation@Windows@@UE$AAAJPEAKPEAPEAVGuid@Platform@@@Z 000000018000e050 f i _nodert_generated.obj
 0001:0000d0b0       ?__abi_GetRuntimeClassName@?$TypedEventHandler@PE$AAVWiFiAdapter@WiFi@Devices@Windows@@PE$AAVObject@Platform@@@Foundation@Windows@@UE$AAAJPEAPEAUHSTRING__@@@Z 000000018000e0b0 f i _nodert_generated.obj
 0001:0000d0d0       ?Invoke@?$TypedEventHandler@PE$AAVWiFiAdapter@WiFi@Devices@Windows@@PE$AAVObject@Platform@@@Foundation@Windows@@UE$AAAXPE$AAVWiFiAdapter@WiFi@Devices@3@PE$AAVObject@Platform@@@Z 000000018000e0d0 f i _nodert_generated.obj
 0001:0000d110       ?FindAllAdaptersAsync@WiFiAdapter@WiFi@Devices@Windows@@SAPE$AAU?$IAsyncOperation@PE$AAU?$IVectorView@PE$AAVWiFiAdapter@WiFi@Devices@Windows@@@Collections@Foundation@Windows@@@Foundation@4@XZ 000000018000e110 f i _nodert_generated.obj
 0001:0000d1e0       ?GetDeviceSelector@WiFiAdapter@WiFi@Devices@Windows@@SAPE$AAVString@Platform@@XZ 000000018000e1e0 f i _nodert_generated.obj
 0001:0000d2c0       ?FromIdAsync@WiFiAdapter@WiFi@Devices@Windows@@SAPE$AAU?$IAsyncOperation@PE$AAVWiFiAdapter@WiFi@Devices@Windows@@@Foundation@4@PE$AAVString@Platform@@@Z 000000018000e2c0 f i _nodert_generated.obj
 0001:0000d3a0       ?RequestAccessAsync@WiFiAdapter@WiFi@Devices@Windows@@SAPE$AAU?$IAsyncOperation@W4WiFiAccessStatus@WiFi@Devices@Windows@@@Foundation@4@XZ 000000018000e3a0 f i _nodert_generated.obj
 0001:0000d470       ?CreateInt64@PropertyValue@Foundation@Windows@@SAPE$AAVObject@Platform@@_J@Z 000000018000e470 f i _nodert_generated.obj
 0001:0000d550       ??1?$_Func_class@PE$AAVWiFiAvailableNetwork@WiFi@Devices@Windows@@V?$Local@VValue@v8@@@v8@@@std@@QEAA@XZ 000000018000e550 f i _nodert_generated.obj
 0001:0000d550       ??1?$function@$$A6APE$AAVWiFiAvailableNetwork@WiFi@Devices@Windows@@V?$Local@VValue@v8@@@v8@@@Z@std@@QEAA@XZ 000000018000e550 f i _nodert_generated.obj
 0001:0000d5b0       ??1?$_Func_class@V?$Local@VValue@v8@@@v8@@PE$AAVWiFiAvailableNetwork@WiFi@Devices@Windows@@@std@@QEAA@XZ 000000018000e5b0 f i _nodert_generated.obj
 0001:0000d5b0       ??1?$function@$$A6A?AV?$Local@VValue@v8@@@v8@@PE$AAVWiFiAvailableNetwork@WiFi@Devices@Windows@@@Z@std@@QEAA@XZ 000000018000e5b0 f i _nodert_generated.obj
 0001:0000d610       ?CreateVectorViewWrapper@?$VectorViewWrapper@PE$AAVWiFiAvailableNetwork@WiFi@Devices@Windows@@@Collections@NodeRT@@SA?AV?$Local@VValue@v8@@@v8@@PE$AAU?$IVectorView@PE$AAVWiFiAvailableNetwork@WiFi@Devices@Windows@@@2Foundation@Windows@@AEBV?$function@$$A6A?AV?$Local@VValue@v8@@@v8@@PE$AAVWiFiAvailableNetwork@WiFi@Devices@Windows@@@Z@std@@AEBV?$function@$$A6A_NV?$Local@VValue@v8@@@v8@@@Z@std@@AEBV?$function@$$A6APE$AAVWiFiAvailableNetwork@WiFi@Devices@Windows@@V?$Local@VValue@v8@@@v8@@@Z@std@@@Z 000000018000e610 f i _nodert_generated.obj
 0001:0000d7b0       ??1?$shared_ptr@U_ExceptionHolder@details@Concurrency@@@std@@QEAA@XZ 000000018000e7b0 f i _nodert_generated.obj
 0001:0000d7b0       ??1?$shared_ptr@U?$_Task_impl@PE$AAVWiFiConnectionResult@WiFi@Devices@Windows@@@details@Concurrency@@@std@@QEAA@XZ 000000018000e7b0 f i _nodert_generated.obj
 0001:0000d7b0       ??1?$shared_ptr@Uscheduler_interface@Concurrency@@@std@@QEAA@XZ 000000018000e7b0 f i _nodert_generated.obj
 0001:0000d7b0       ??1?$shared_ptr@U?$_Task_impl@E@details@Concurrency@@@std@@QEAA@XZ 000000018000e7b0 f i _nodert_generated.obj
 0001:0000d7b0       ??1?$shared_ptr@U_Task_impl_base@details@Concurrency@@@std@@QEAA@XZ 000000018000e7b0 f i _nodert_generated.obj
 0001:0000d7b0       ??1?$shared_ptr@U?$_Task_impl@PE$AAU?$IVectorView@PE$AAVWiFiAdapter@WiFi@Devices@Windows@@@Collections@Foundation@Windows@@@details@Concurrency@@@std@@QEAA@XZ 000000018000e7b0 f i _nodert_generated.obj
 0001:0000d7b0       ??1?$shared_ptr@U?$_Task_impl@W4WiFiAccessStatus@WiFi@Devices@Windows@@@details@Concurrency@@@std@@QEAA@XZ 000000018000e7b0 f i _nodert_generated.obj
 0001:0000d7b0       ??1?$shared_ptr@U?$_Task_impl@PE$AAVWiFiAdapter@WiFi@Devices@Windows@@@details@Concurrency@@@std@@QEAA@XZ 000000018000e7b0 f i _nodert_generated.obj
 0001:0000d7b0       ??1?$shared_ptr@V?$Persistent@VObject@v8@@V?$NonCopyablePersistentTraits@VObject@v8@@@2@@Nan@@@std@@QEAA@XZ 000000018000e7b0 f i _nodert_generated.obj
 0001:0000d800       ?get@?$task@PE$AAVWiFiAdapter@WiFi@Devices@Windows@@@Concurrency@@QEBAPE$AAVWiFiAdapter@WiFi@Devices@Windows@@XZ 000000018000e800 f i _nodert_generated.obj
 0001:0000d800       ?get@?$task@PE$AAVWiFiConnectionResult@WiFi@Devices@Windows@@@Concurrency@@QEBAPE$AAVWiFiConnectionResult@WiFi@Devices@Windows@@XZ 000000018000e800 f i _nodert_generated.obj
 0001:0000d890       ??1?$function@$$A6APE$AAVWiFiAdapter@WiFi@Devices@Windows@@V?$Local@VValue@v8@@@v8@@@Z@std@@QEAA@XZ 000000018000e890 f i _nodert_generated.obj
 0001:0000d890       ??1?$_Func_class@PE$AAVWiFiAdapter@WiFi@Devices@Windows@@V?$Local@VValue@v8@@@v8@@@std@@QEAA@XZ 000000018000e890 f i _nodert_generated.obj
 0001:0000d8f0       ??1?$_Func_class@V?$Local@VValue@v8@@@v8@@PE$AAVWiFiAdapter@WiFi@Devices@Windows@@@std@@QEAA@XZ 000000018000e8f0 f i _nodert_generated.obj
 0001:0000d8f0       ??1?$function@$$A6A?AV?$Local@VValue@v8@@@v8@@PE$AAVWiFiAdapter@WiFi@Devices@Windows@@@Z@std@@QEAA@XZ 000000018000e8f0 f i _nodert_generated.obj
 0001:0000d950       ?CreateVectorViewWrapper@?$VectorViewWrapper@PE$AAVWiFiAdapter@WiFi@Devices@Windows@@@Collections@NodeRT@@SA?AV?$Local@VValue@v8@@@v8@@PE$AAU?$IVectorView@PE$AAVWiFiAdapter@WiFi@Devices@Windows@@@2Foundation@Windows@@AEBV?$function@$$A6A?AV?$Local@VValue@v8@@@v8@@PE$AAVWiFiAdapter@WiFi@Devices@Windows@@@Z@std@@AEBV?$function@$$A6A_NV?$Local@VValue@v8@@@v8@@@Z@std@@AEBV?$function@$$A6APE$AAVWiFiAdapter@WiFi@Devices@Windows@@V?$Local@VValue@v8@@@v8@@@Z@std@@@Z 000000018000e950 f i _nodert_generated.obj
 0001:0000daf0       ?get@?$task@PE$AAU?$IVectorView@PE$AAVWiFiAdapter@WiFi@Devices@Windows@@@Collections@Foundation@Windows@@@Concurrency@@QEBAPE$AAU?$IVectorView@PE$AAVWiFiAdapter@WiFi@Devices@Windows@@@Collections@Foundation@Windows@@XZ 000000018000eaf0 f i _nodert_generated.obj
 0001:0000db80       ??1?$unique_ptr@$$BY0A@V?$Local@VValue@v8@@@v8@@U?$default_delete@$$BY0A@V?$Local@VValue@v8@@@v8@@@std@@@std@@QEAA@XZ 000000018000eb80 f i _nodert_generated.obj
 0001:0000db90       ??1?$function@$$A6AXV?$function@$$A6AXHPEAV?$Local@VValue@v8@@@v8@@@Z@std@@@Z@std@@QEAA@XZ 000000018000eb90 f i _nodert_generated.obj
 0001:0000db90       ??1?$function@$$A6AXXZ@std@@QEAA@XZ 000000018000eb90 f i _nodert_generated.obj
 0001:0000db90       ??1?$_Func_class@X$$V@std@@QEAA@XZ 000000018000eb90 f i _nodert_generated.obj
 0001:0000db90       ??1?$_Func_class@_NV?$Local@VValue@v8@@@v8@@@std@@QEAA@XZ 000000018000eb90 f i _nodert_generated.obj
 0001:0000db90       ??1?$function@$$A6A_NV?$Local@VValue@v8@@@v8@@@Z@std@@QEAA@XZ 000000018000eb90 f i _nodert_generated.obj
 0001:0000db90       ??1?$_Func_class@XV?$function@$$A6AXHPEAV?$Local@VValue@v8@@@v8@@@Z@std@@@std@@QEAA@XZ 000000018000eb90 f i _nodert_generated.obj
 0001:0000dbc0       ??1?$function@$$A6AXHPEAV?$Local@VValue@v8@@@v8@@@Z@std@@QEAA@XZ 000000018000ebc0 f i _nodert_generated.obj
 0001:0000dc00       ?_CreateImpl@?$task@E@Concurrency@@QEAAXPEAV_CancellationTokenState@details@2@Uscheduler_ptr@2@@Z 000000018000ec00 f i _nodert_generated.obj
 0001:0000dd40       ?_CancelAndRunContinuations@?$_Task_impl@E@details@Concurrency@@UEAA_N_N00AEBV?$shared_ptr@U_ExceptionHolder@details@Concurrency@@@std@@@Z 000000018000ed40 f i _nodert_generated.obj
 0001:0000dfc0       ?_Exec@?$_CancellationTokenCallback@V<lambda_be3e5d9dce35d2c8dbfa8485373731d5>@@@details@Concurrency@@MEAAXXZ 000000018000efc0 f i _nodert_generated.obj
 0001:0000dfd0       ??0?$_CancellationTokenCallback@V<lambda_be3e5d9dce35d2c8dbfa8485373731d5>@@@details@Concurrency@@QEAA@AEBV<lambda_be3e5d9dce35d2c8dbfa8485373731d5>@@@Z 000000018000efd0 f i _nodert_generated.obj
 0001:0000e0a0       ?lock@?$weak_ptr@U_Task_impl_base@details@Concurrency@@@std@@QEBA?AV?$shared_ptr@U_Task_impl_base@details@Concurrency@@@2@XZ 000000018000f0a0 f i _nodert_generated.obj
 0001:0000e100       ??1?$weak_ptr@U_Task_impl_base@details@Concurrency@@@std@@QEAA@XZ 000000018000f100 f i _nodert_generated.obj
 0001:0000e120       ?set@?Q?$IAsyncOperation@E@Foundation@Windows@@Completed@?$_AsyncInfoImpl@PE$AAUIAsyncAction@Foundation@Windows@@VAsyncActionCompletedHandler@23@E@details@Concurrency@@UE$AAAXPE$AAV?$AsyncOperationCompletedHandler@E@23@@Z 000000018000f120 f i _nodert_generated.obj
 0001:0000e1f0       ?__abi_Windows_Foundation_AsyncActionCompletedHandler___abi_IDelegate____abi_Invoke@?Q__abi_IDelegate@AsyncActionCompletedHandler@Foundation@Windows@@234@UE$AAAJPE$AAUIAsyncAction@34@W4AsyncStatus@34@@Z 000000018000f1f0 f i _nodert_generated.obj
 0001:0000e240       ?__abi_QueryInterface@AsyncActionCompletedHandler@Foundation@Windows@@UE$AAAJAEAVGuid@Platform@@PEAPEAX@Z 000000018000f240 f i _nodert_generated.obj
 0001:0000e370       ?__abi_GetIids@AsyncActionCompletedHandler@Foundation@Windows@@UE$AAAJPEAKPEAPEAVGuid@Platform@@@Z 000000018000f370 f i _nodert_generated.obj
 0001:0000e3d0       ?__abi_GetRuntimeClassName@AsyncActionCompletedHandler@Foundation@Windows@@UE$AAAJPEAPEAUHSTRING__@@@Z 000000018000f3d0 f i _nodert_generated.obj
 0001:0000e3f0       ?Invoke@AsyncActionCompletedHandler@Foundation@Windows@@UE$AAAXPE$AAUIAsyncAction@23@W4AsyncStatus@23@@Z 000000018000f3f0 f i _nodert_generated.obj
 0001:0000e430       ?__abi_Windows_Foundation_?$AsyncOperationCompletedHandler@E___abi_IDelegate____abi_Invoke@?Q__abi_IDelegate@?$AsyncOperationCompletedHandler@E@Foundation@Windows@@234@UE$AAAJPE$AAU?$IAsyncOperation@E@34@W4AsyncStatus@34@@Z 000000018000f430 f i _nodert_generated.obj
 0001:0000e450       ?__abi_QueryInterface@?$AsyncOperationCompletedHandler@E@Foundation@Windows@@UE$AAAJAEAVGuid@Platform@@PEAPEAX@Z 000000018000f450 f i _nodert_generated.obj
 0001:0000e580       ?__abi_GetIids@?$AsyncOperationCompletedHandler@PE$AAU?$IVectorView@PE$AAVWiFiAdapter@WiFi@Devices@Windows@@@Collections@Foundation@Windows@@@Foundation@Windows@@UE$AAAJPEAKPEAPEAVGuid@Platform@@@Z 000000018000f580 f i _nodert_generated.obj
 0001:0000e580       ?__abi_GetIids@?$AsyncOperationCompletedHandler@PE$AAVWiFiAdapter@WiFi@Devices@Windows@@@Foundation@Windows@@UE$AAAJPEAKPEAPEAVGuid@Platform@@@Z 000000018000f580 f i _nodert_generated.obj
 0001:0000e580       ?__abi_GetIids@?$AsyncOperationCompletedHandler@E@Foundation@Windows@@UE$AAAJPEAKPEAPEAVGuid@Platform@@@Z 000000018000f580 f i _nodert_generated.obj
 0001:0000e580       ?__abi_GetIids@?$AsyncOperationCompletedHandler@PE$AAVWiFiConnectionResult@WiFi@Devices@Windows@@@Foundation@Windows@@UE$AAAJPEAKPEAPEAVGuid@Platform@@@Z 000000018000f580 f i _nodert_generated.obj
 0001:0000e580       ?__abi_GetIids@?$AsyncOperationCompletedHandler@W4WiFiAccessStatus@WiFi@Devices@Windows@@@Foundation@Windows@@UE$AAAJPEAKPEAPEAVGuid@Platform@@@Z 000000018000f580 f i _nodert_generated.obj
 0001:0000e5e0       ?__abi_GetRuntimeClassName@?$AsyncOperationCompletedHandler@E@Foundation@Windows@@UE$AAAJPEAPEAUHSTRING__@@@Z 000000018000f5e0 f i _nodert_generated.obj
 0001:0000e600       ?Invoke@?$AsyncOperationCompletedHandler@E@Foundation@Windows@@UE$AAAXPE$AAU?$IAsyncOperation@E@23@W4AsyncStatus@23@@Z 000000018000f600 f i _nodert_generated.obj
 0001:0000e640       ?get@?Q?$IAsyncOperation@E@Foundation@Windows@@Completed@?$_AsyncInfoImpl@PE$AAUIAsyncAction@Foundation@Windows@@VAsyncActionCompletedHandler@23@E@details@Concurrency@@UE$AAAPE$AAV?$AsyncOperationCompletedHandler@E@23@XZ 000000018000f640 f i _nodert_generated.obj
 0001:0000e670       ?get@?QIAsyncInfo@Foundation@Windows@@Status@?$_AsyncInfoImpl@PE$AAUIAsyncAction@Foundation@Windows@@VAsyncActionCompletedHandler@23@E@details@Concurrency@@UE$AAA?AW4AsyncStatus@23@XZ 000000018000f670 f i _nodert_generated.obj
 0001:0000e710       ?get@?QIAsyncInfo@Foundation@Windows@@Id@?$_AsyncInfoImpl@PE$AAUIAsyncAction@Foundation@Windows@@VAsyncActionCompletedHandler@23@E@details@Concurrency@@UE$AAAIXZ 000000018000f710 f i _nodert_generated.obj
 0001:0000e7b0       ?get@?QIAsyncInfo@Foundation@Windows@@ErrorCode@?$_AsyncInfoImpl@PE$AAUIAsyncAction@Foundation@Windows@@VAsyncActionCompletedHandler@23@E@details@Concurrency@@UE$AAA?AVHResult@23@XZ 000000018000f7b0 f i _nodert_generated.obj
 0001:0000e840       ?Get@?$Agile@PE$AAUIAsyncAction@Foundation@Windows@@$00@Platform@@QEBAPE$AAUIAsyncAction@Foundation@Windows@@XZ 000000018000f840 f i _nodert_generated.obj
 0001:0000e9a0       ??1?$Agile@PE$AAUIAsyncAction@Foundation@Windows@@$00@Platform@@QEAA@XZ 000000018000f9a0 f i _nodert_generated.obj
 0001:0000e9e0       ?GetResults@?Q?$IAsyncOperation@E@Foundation@Windows@@?$_AsyncInfoImpl@PE$AAUIAsyncAction@Foundation@Windows@@VAsyncActionCompletedHandler@23@E@details@Concurrency@@UE$AAAEXZ 000000018000f9e0 f i _nodert_generated.obj
 0001:0000ea10       ?Close@?QIAsyncInfo@Foundation@Windows@@?$_AsyncInfoImpl@PE$AAUIAsyncAction@Foundation@Windows@@VAsyncActionCompletedHandler@23@E@details@Concurrency@@UE$AAAXXZ 000000018000fa10 f i _nodert_generated.obj
 0001:0000eab0       ?Cancel@?QIAsyncInfo@Foundation@Windows@@?$_AsyncInfoImpl@PE$AAUIAsyncAction@Foundation@Windows@@VAsyncActionCompletedHandler@23@E@details@Concurrency@@UE$AAAXXZ 000000018000fab0 f i _nodert_generated.obj
 0001:0000eb40       ??0?$_AsyncInfoImpl@PE$AAUIAsyncAction@Foundation@Windows@@VAsyncActionCompletedHandler@23@E@details@Concurrency@@QE$AAA@PE$AAUIAsyncAction@Foundation@Windows@@@Z 000000018000fb40 f i _nodert_generated.obj
 0001:0000ebc0       ??R?$_Func_class@X$$V@std@@QEBAXXZ 000000018000fbc0 f i _nodert_generated.obj
 0001:0000ebe0       ??4?$vector@PEAXV?$allocator@PEAX@std@@@std@@QEAAAEAV01@AEBV01@@Z 000000018000fbe0 f i _nodert_generated.obj
 0001:0000ed20       ??1?$unique_ptr@U_TaskProcHandle@details@Concurrency@@U?$default_delete@U_TaskProcHandle@details@Concurrency@@@std@@@std@@QEAA@XZ 000000018000fd20 f i _nodert_generated.obj
 0001:0000ed40       ??1?$unique_ptr@V_PPLTaskChore@_DefaultPPLTaskScheduler@details@Concurrency@@U?$default_delete@V_PPLTaskChore@_DefaultPPLTaskScheduler@details@Concurrency@@@std@@@std@@QEAA@XZ 000000018000fd40 f i _nodert_generated.obj
 0001:0000ed80       ??1?$lock_guard@Vmutex@std@@@std@@QEAA@XZ 000000018000fd80 f i _nodert_generated.obj
 0001:0000edb0       ??1?$unique_lock@Vmutex@std@@@std@@QEAA@XZ 000000018000fdb0 f i _nodert_generated.obj
 0001:0000ede0       ??_G?$_Task_impl@E@details@Concurrency@@UEAAPEAXI@Z 000000018000fde0 f i _nodert_generated.obj
 0001:0000ede0       ??_E?$_Task_impl@E@details@Concurrency@@UEAAPEAXI@Z 000000018000fde0 f i * CIL library *:* CIL module *
 0001:0000ee70       ??_G?$_CancellationTokenCallback@V<lambda_be3e5d9dce35d2c8dbfa8485373731d5>@@@details@Concurrency@@UEAAPEAXI@Z 000000018000fe70 f i _nodert_generated.obj
 0001:0000ee70       ??_E?$_CancellationTokenCallback@V<lambda_be3e5d9dce35d2c8dbfa8485373731d5>@@@details@Concurrency@@UEAAPEAXI@Z 000000018000fe70 f i * CIL library *:* CIL module *
 0001:0000ef30       ??0runtime_error@std@@QEAA@AEBV01@@Z 000000018000ff30 f i _nodert_generated.obj
 0001:0000ef50       ??1?$ComPtr@UIAgileObject@@@WRL@Microsoft@@QEAA@XZ 000000018000ff50 f i _nodert_generated.obj
 0001:0000ef70       ??0?$VectorViewWrapper@PE$AAVWiFiAvailableNetwork@WiFi@Devices@Windows@@@Collections@NodeRT@@AEAA@PE$AAU?$IVectorView@PE$AAVWiFiAvailableNetwork@WiFi@Devices@Windows@@@1Foundation@Windows@@AEBV?$function@$$A6A?AV?$Local@VValue@v8@@@v8@@PE$AAVWiFiAvailableNetwork@WiFi@Devices@Windows@@@Z@std@@AEBV?$function@$$A6A_NV?$Local@VValue@v8@@@v8@@@Z@7@AEBV?$function@$$A6APE$AAVWiFiAvailableNetwork@WiFi@Devices@Windows@@V?$Local@VValue@v8@@@v8@@@Z@7@@Z 000000018000ff70 f i _nodert_generated.obj
 0001:0000f080       ?Init@?$VectorViewWrapper@PE$AAVWiFiAvailableNetwork@WiFi@Devices@Windows@@@Collections@NodeRT@@SAXXZ 0000000180010080 f i _nodert_generated.obj
 0001:0000f2b0       ?_CancelAndRunContinuations@?$_Task_impl@W4WiFiAccessStatus@WiFi@Devices@Windows@@@details@Concurrency@@UEAA_N_N00AEBV?$shared_ptr@U_ExceptionHolder@details@Concurrency@@@std@@@Z 00000001800102b0 f i _nodert_generated.obj
 0001:0000f530       ?_CancelAndRunContinuations@?$_Task_impl@PE$AAVWiFiAdapter@WiFi@Devices@Windows@@@details@Concurrency@@UEAA_N_N00AEBV?$shared_ptr@U_ExceptionHolder@details@Concurrency@@@std@@@Z 0000000180010530 f i _nodert_generated.obj
 0001:0000f7b0       ??1?$_Task_impl@PE$AAVWiFiAdapter@WiFi@Devices@Windows@@@details@Concurrency@@UEAA@XZ 00000001800107b0 f i _nodert_generated.obj
 0001:0000f840       ??0?$VectorViewWrapper@PE$AAVWiFiAdapter@WiFi@Devices@Windows@@@Collections@NodeRT@@AEAA@PE$AAU?$IVectorView@PE$AAVWiFiAdapter@WiFi@Devices@Windows@@@1Foundation@Windows@@AEBV?$function@$$A6A?AV?$Local@VValue@v8@@@v8@@PE$AAVWiFiAdapter@WiFi@Devices@Windows@@@Z@std@@AEBV?$function@$$A6A_NV?$Local@VValue@v8@@@v8@@@Z@7@AEBV?$function@$$A6APE$AAVWiFiAdapter@WiFi@Devices@Windows@@V?$Local@VValue@v8@@@v8@@@Z@7@@Z 0000000180010840 f i _nodert_generated.obj
 0001:0000f950       ?Init@?$VectorViewWrapper@PE$AAVWiFiAdapter@WiFi@Devices@Windows@@@Collections@NodeRT@@SAXXZ 0000000180010950 f i _nodert_generated.obj
 0001:0000fb80       ?_CancelAndRunContinuations@?$_Task_impl@PE$AAU?$IVectorView@PE$AAVWiFiAdapter@WiFi@Devices@Windows@@@Collections@Foundation@Windows@@@details@Concurrency@@UEAA_N_N00AEBV?$shared_ptr@U_ExceptionHolder@details@Concurrency@@@std@@@Z 0000000180010b80 f i _nodert_generated.obj
 0001:0000fe00       ??1?$_Task_impl@PE$AAU?$IVectorView@PE$AAVWiFiAdapter@WiFi@Devices@Windows@@@Collections@Foundation@Windows@@@details@Concurrency@@UEAA@XZ 0000000180010e00 f i _nodert_generated.obj
 0001:0000fea0       ?_CancelAndRunContinuations@?$_Task_impl@PE$AAVWiFiConnectionResult@WiFi@Devices@Windows@@@details@Concurrency@@UEAA_N_N00AEBV?$shared_ptr@U_ExceptionHolder@details@Concurrency@@@std@@@Z 0000000180010ea0 f i _nodert_generated.obj
 0001:00010120       ??1?$_Task_impl@PE$AAVWiFiConnectionResult@WiFi@Devices@Windows@@@details@Concurrency@@UEAA@XZ 0000000180011120 f i _nodert_generated.obj
 0001:000101b0       ??4?$shared_ptr@U?$_Task_impl@PE$AAVWiFiConnectionResult@WiFi@Devices@Windows@@@details@Concurrency@@@std@@QEAAAEAV01@AEBV01@@Z 00000001800111b0 f i _nodert_generated.obj
 0001:000101b0       ??4?$shared_ptr@U?$_Task_impl@W4WiFiAccessStatus@WiFi@Devices@Windows@@@details@Concurrency@@@std@@QEAAAEAV01@AEBV01@@Z 00000001800111b0 f i _nodert_generated.obj
 0001:000101b0       ??4?$shared_ptr@U?$_Task_impl@PE$AAVWiFiAdapter@WiFi@Devices@Windows@@@details@Concurrency@@@std@@QEAAAEAV01@AEBV01@@Z 00000001800111b0 f i _nodert_generated.obj
 0001:000101b0       ??4?$shared_ptr@U_ExceptionHolder@details@Concurrency@@@std@@QEAAAEAV01@AEBV01@@Z 00000001800111b0 f i _nodert_generated.obj
 0001:000101b0       ??4?$shared_ptr@U?$_Task_impl@PE$AAU?$IVectorView@PE$AAVWiFiAdapter@WiFi@Devices@Windows@@@Collections@Foundation@Windows@@@details@Concurrency@@@std@@QEAAAEAV01@AEBV01@@Z 00000001800111b0 f i _nodert_generated.obj
 0001:000101b0       ??4?$shared_ptr@U?$_Task_impl@E@details@Concurrency@@@std@@QEAAAEAV01@AEBV01@@Z 00000001800111b0 f i _nodert_generated.obj
 0001:00010240       ??4?$shared_ptr@U?$_Task_impl@PE$AAU?$IVectorView@PE$AAVWiFiAdapter@WiFi@Devices@Windows@@@Collections@Foundation@Windows@@@details@Concurrency@@@std@@QEAAAEAV01@$$QEAV01@@Z 0000000180011240 f i _nodert_generated.obj
 0001:00010240       ??4?$shared_ptr@U?$_Task_impl@W4WiFiAccessStatus@WiFi@Devices@Windows@@@details@Concurrency@@@std@@QEAAAEAV01@$$QEAV01@@Z 0000000180011240 f i _nodert_generated.obj
 0001:00010240       ??4?$shared_ptr@U?$_Task_impl@E@details@Concurrency@@@std@@QEAAAEAV01@$$QEAV01@@Z 0000000180011240 f i _nodert_generated.obj
 0001:00010240       ??4?$shared_ptr@U?$_Task_impl@PE$AAVWiFiConnectionResult@WiFi@Devices@Windows@@@details@Concurrency@@@std@@QEAAAEAV01@$$QEAV01@@Z 0000000180011240 f i _nodert_generated.obj
 0001:00010240       ??4?$shared_ptr@U?$_Task_impl@PE$AAVWiFiAdapter@WiFi@Devices@Windows@@@details@Concurrency@@@std@@QEAAAEAV01@$$QEAV01@@Z 0000000180011240 f i _nodert_generated.obj
 0001:000102d0       ?_FinalizeAndRunContinuations@?$_Task_impl@E@details@Concurrency@@QEAAXE@Z 00000001800112d0 f i _nodert_generated.obj
 0001:00010360       ?_Make@?$_Task_ptr@E@details@Concurrency@@SA?AV?$shared_ptr@U?$_Task_impl@E@details@Concurrency@@@std@@PEAV_CancellationTokenState@23@Uscheduler_ptr@3@@Z 0000000180011360 f i _nodert_generated.obj
 0001:000103f0       ?Release@?$Agile@PE$AAU?$IVectorView@PE$AAVWiFiAdapter@WiFi@Devices@Windows@@@Collections@Foundation@Windows@@$00@Platform@@QEAAXXZ 00000001800113f0 f i _nodert_generated.obj
 0001:000103f0       ?Release@?$Agile@PE$AAUIAsyncAction@Foundation@Windows@@$00@Platform@@QEAAXXZ 00000001800113f0 f i _nodert_generated.obj
 0001:00010490       ?deallocate@?$_Wrap_alloc@V?$allocator@PEAX@std@@@std@@QEAAXPEAPEAX_K@Z 0000000180011490 f i _nodert_generated.obj
 0001:00010510       ?_Buy@?$vector@PEAXV?$allocator@PEAX@std@@@std@@IEAA_N_K@Z 0000000180011510 f i _nodert_generated.obj
 0001:000105b0       ??_E?$VectorViewWrapper@PE$AAVWiFiAvailableNetwork@WiFi@Devices@Windows@@@Collections@NodeRT@@UEAAPEAXI@Z 00000001800115b0 f i * CIL library *:* CIL module *
 0001:000105b0       ??_G?$VectorViewWrapper@PE$AAVWiFiAvailableNetwork@WiFi@Devices@Windows@@@Collections@NodeRT@@UEAAPEAXI@Z 00000001800115b0 f i _nodert_generated.obj
 0001:000105f0       ??1?$VectorViewWrapper@PE$AAVWiFiAvailableNetwork@WiFi@Devices@Windows@@@Collections@NodeRT@@UEAA@XZ 00000001800115f0 f i _nodert_generated.obj
 0001:000106e0       ??_E?$_Task_impl@W4WiFiAccessStatus@WiFi@Devices@Windows@@@details@Concurrency@@UEAAPEAXI@Z 00000001800116e0 f i * CIL library *:* CIL module *
 0001:000106e0       ??_G?$_Task_impl@W4WiFiAccessStatus@WiFi@Devices@Windows@@@details@Concurrency@@UEAAPEAXI@Z 00000001800116e0 f i _nodert_generated.obj
 0001:00010770       ??_G?$_Task_impl@PE$AAVWiFiAdapter@WiFi@Devices@Windows@@@details@Concurrency@@UEAAPEAXI@Z 0000000180011770 f i _nodert_generated.obj
 0001:00010770       ??_E?$_Task_impl@PE$AAVWiFiAdapter@WiFi@Devices@Windows@@@details@Concurrency@@UEAAPEAXI@Z 0000000180011770 f i * CIL library *:* CIL module *
 0001:000107b0       ??_G?$VectorViewWrapper@PE$AAVWiFiAdapter@WiFi@Devices@Windows@@@Collections@NodeRT@@UEAAPEAXI@Z 00000001800117b0 f i _nodert_generated.obj
 0001:000107b0       ??_E?$VectorViewWrapper@PE$AAVWiFiAdapter@WiFi@Devices@Windows@@@Collections@NodeRT@@UEAAPEAXI@Z 00000001800117b0 f i * CIL library *:* CIL module *
 0001:000107f0       ??1?$VectorViewWrapper@PE$AAVWiFiAdapter@WiFi@Devices@Windows@@@Collections@NodeRT@@UEAA@XZ 00000001800117f0 f i _nodert_generated.obj
 0001:000108e0       ??_E?$_Task_impl@PE$AAU?$IVectorView@PE$AAVWiFiAdapter@WiFi@Devices@Windows@@@Collections@Foundation@Windows@@@details@Concurrency@@UEAAPEAXI@Z 00000001800118e0 f i * CIL library *:* CIL module *
 0001:000108e0       ??_G?$_Task_impl@PE$AAU?$IVectorView@PE$AAVWiFiAdapter@WiFi@Devices@Windows@@@Collections@Foundation@Windows@@@details@Concurrency@@UEAAPEAXI@Z 00000001800118e0 f i _nodert_generated.obj
 0001:00010920       ??_E?$_Task_impl@PE$AAVWiFiConnectionResult@WiFi@Devices@Windows@@@details@Concurrency@@UEAAPEAXI@Z 0000000180011920 f i * CIL library *:* CIL module *
 0001:00010920       ??_G?$_Task_impl@PE$AAVWiFiConnectionResult@WiFi@Devices@Windows@@@details@Concurrency@@UEAAPEAXI@Z 0000000180011920 f i _nodert_generated.obj
 0001:00010960       ?SizeGetter@?$VectorViewWrapper@PE$AAVWiFiAvailableNetwork@WiFi@Devices@Windows@@@Collections@NodeRT@@CAXV?$Local@VString@v8@@@v8@@AEBV?$PropertyCallbackInfo@VValue@v8@@@Nan@@@Z 0000000180011960 f i _nodert_generated.obj
 0001:00010a30       ?IndexOf@?$VectorViewWrapper@PE$AAVWiFiAvailableNetwork@WiFi@Devices@Windows@@@Collections@NodeRT@@CAXAEBV?$FunctionCallbackInfo@VValue@v8@@@Nan@@@Z 0000000180011a30 f i _nodert_generated.obj
 0001:00010d70       ?First@?$VectorViewWrapper@PE$AAVWiFiAvailableNetwork@WiFi@Devices@Windows@@@Collections@NodeRT@@CAXAEBV?$FunctionCallbackInfo@VValue@v8@@@Nan@@@Z 0000000180011d70 f i _nodert_generated.obj
 0001:00010f10       ?GetMany@?$IteratorWrapper@PE$AAVWiFiAvailableNetwork@WiFi@Devices@Windows@@@Collections@NodeRT@@CAXAEBV?$FunctionCallbackInfo@VValue@v8@@@Nan@@@Z 0000000180011f10 f i _nodert_generated.obj
 0001:00010f10       ?GetMany@?$VectorViewWrapper@PE$AAVWiFiAdapter@WiFi@Devices@Windows@@@Collections@NodeRT@@CAXAEBV?$FunctionCallbackInfo@VValue@v8@@@Nan@@@Z 0000000180011f10 f i _nodert_generated.obj
 0001:00010f10       ?GetMany@?$IteratorWrapper@PE$AAVWiFiAdapter@WiFi@Devices@Windows@@@Collections@NodeRT@@CAXAEBV?$FunctionCallbackInfo@VValue@v8@@@Nan@@@Z 0000000180011f10 f i _nodert_generated.obj
 0001:00010f10       ?GetMany@?$VectorViewWrapper@PE$AAVWiFiAvailableNetwork@WiFi@Devices@Windows@@@Collections@NodeRT@@CAXAEBV?$FunctionCallbackInfo@VValue@v8@@@Nan@@@Z 0000000180011f10 f i _nodert_generated.obj
 0001:00010fb0       ?GetAt@?$VectorViewWrapper@PE$AAVWiFiAvailableNetwork@WiFi@Devices@Windows@@@Collections@NodeRT@@CAXAEBV?$FunctionCallbackInfo@VValue@v8@@@Nan@@@Z 0000000180011fb0 f i _nodert_generated.obj
 0001:000111c0       ?Get@?$VectorViewWrapper@PE$AAVWiFiAvailableNetwork@WiFi@Devices@Windows@@@Collections@NodeRT@@CAXIAEBV?$PropertyCallbackInfo@VValue@v8@@@Nan@@@Z 00000001800121c0 f i _nodert_generated.obj
 0001:000112f0       ?New@?$VectorViewWrapper@PE$AAVWiFiAdapter@WiFi@Devices@Windows@@@Collections@NodeRT@@CAXAEBV?$FunctionCallbackInfo@VValue@v8@@@Nan@@@Z 00000001800122f0 f i _nodert_generated.obj
 0001:000112f0       ?New@?$VectorViewWrapper@PE$AAVWiFiAvailableNetwork@WiFi@Devices@Windows@@@Collections@NodeRT@@CAXAEBV?$FunctionCallbackInfo@VValue@v8@@@Nan@@@Z 00000001800122f0 f i _nodert_generated.obj
 0001:000112f0       ?New@?$IteratorWrapper@PE$AAVWiFiAdapter@WiFi@Devices@Windows@@@Collections@NodeRT@@CAXAEBV?$FunctionCallbackInfo@VValue@v8@@@Nan@@@Z 00000001800122f0 f i _nodert_generated.obj
 0001:000112f0       ?New@?$IteratorWrapper@PE$AAVWiFiAvailableNetwork@WiFi@Devices@Windows@@@Collections@NodeRT@@CAXAEBV?$FunctionCallbackInfo@VValue@v8@@@Nan@@@Z 00000001800122f0 f i _nodert_generated.obj
 0001:00011390       ?SizeGetter@?$VectorViewWrapper@PE$AAVWiFiAdapter@WiFi@Devices@Windows@@@Collections@NodeRT@@CAXV?$Local@VString@v8@@@v8@@AEBV?$PropertyCallbackInfo@VValue@v8@@@Nan@@@Z 0000000180012390 f i _nodert_generated.obj
 0001:00011460       ?IndexOf@?$VectorViewWrapper@PE$AAVWiFiAdapter@WiFi@Devices@Windows@@@Collections@NodeRT@@CAXAEBV?$FunctionCallbackInfo@VValue@v8@@@Nan@@@Z 0000000180012460 f i _nodert_generated.obj
 0001:000117a0       ?First@?$VectorViewWrapper@PE$AAVWiFiAdapter@WiFi@Devices@Windows@@@Collections@NodeRT@@CAXAEBV?$FunctionCallbackInfo@VValue@v8@@@Nan@@@Z 00000001800127a0 f i _nodert_generated.obj
 0001:00011940       ?GetAt@?$VectorViewWrapper@PE$AAVWiFiAdapter@WiFi@Devices@Windows@@@Collections@NodeRT@@CAXAEBV?$FunctionCallbackInfo@VValue@v8@@@Nan@@@Z 0000000180012940 f i _nodert_generated.obj
 0001:00011b50       ?Get@?$VectorViewWrapper@PE$AAVWiFiAdapter@WiFi@Devices@Windows@@@Collections@NodeRT@@CAXIAEBV?$PropertyCallbackInfo@VValue@v8@@@Nan@@@Z 0000000180012b50 f i _nodert_generated.obj
 0001:00011c80       ?SetObject@?$Agile@PE$AAU?$IVectorView@PE$AAVWiFiAdapter@WiFi@Devices@Windows@@@Collections@Foundation@Windows@@$00@Platform@@AEAAXPE$AAU?$IVectorView@PE$AAVWiFiAdapter@WiFi@Devices@Windows@@@Collections@Foundation@Windows@@@Z 0000000180012c80 f i _nodert_generated.obj
 0001:00011c80       ?SetObject@?$Agile@PE$AAUIAsyncAction@Foundation@Windows@@$00@Platform@@AEAAXPE$AAUIAsyncAction@Foundation@Windows@@@Z 0000000180012c80 f i _nodert_generated.obj
 0001:00011d70       ?CreateIteratorWrapper@?$IteratorWrapper@PE$AAVWiFiAdapter@WiFi@Devices@Windows@@@Collections@NodeRT@@SA?AV?$Local@VValue@v8@@@v8@@PE$AAU?$IIterator@PE$AAVWiFiAdapter@WiFi@Devices@Windows@@@2Foundation@Windows@@AEBV?$function@$$A6A?AV?$Local@VValue@v8@@@v8@@PE$AAVWiFiAdapter@WiFi@Devices@Windows@@@Z@std@@@Z 0000000180012d70 f i _nodert_generated.obj
 0001:00011eb0       ?CreateIteratorWrapper@?$IteratorWrapper@PE$AAVWiFiAvailableNetwork@WiFi@Devices@Windows@@@Collections@NodeRT@@SA?AV?$Local@VValue@v8@@@v8@@PE$AAU?$IIterator@PE$AAVWiFiAvailableNetwork@WiFi@Devices@Windows@@@2Foundation@Windows@@AEBV?$function@$$A6A?AV?$Local@VValue@v8@@@v8@@PE$AAVWiFiAvailableNetwork@WiFi@Devices@Windows@@@Z@std@@@Z 0000000180012eb0 f i _nodert_generated.obj
 0001:00011ff0       ?Get@?$Agile@PE$AAU?$IVectorView@PE$AAVWiFiAdapter@WiFi@Devices@Windows@@@Collections@Foundation@Windows@@$00@Platform@@QEBAPE$AAU?$IVectorView@PE$AAVWiFiAdapter@WiFi@Devices@Windows@@@Collections@Foundation@Windows@@XZ 0000000180012ff0 f i _nodert_generated.obj
 0001:00012150       ??R?$_Func_class@PE$AAVWiFiAvailableNetwork@WiFi@Devices@Windows@@V?$Local@VValue@v8@@@v8@@@std@@QEBAPE$AAVWiFiAvailableNetwork@WiFi@Devices@Windows@@V?$Local@VValue@v8@@@v8@@@Z 0000000180013150 f i _nodert_generated.obj
 0001:000121f0       ??R?$_Func_class@V?$Local@VValue@v8@@@v8@@PE$AAVWiFiAvailableNetwork@WiFi@Devices@Windows@@@std@@QEBA?AV?$Local@VValue@v8@@@v8@@PE$AAVWiFiAvailableNetwork@WiFi@Devices@Windows@@@Z 00000001800131f0 f i _nodert_generated.obj
 0001:00012290       ??R?$_Func_class@PE$AAVWiFiAdapter@WiFi@Devices@Windows@@V?$Local@VValue@v8@@@v8@@@std@@QEBAPE$AAVWiFiAdapter@WiFi@Devices@Windows@@V?$Local@VValue@v8@@@v8@@@Z 0000000180013290 f i _nodert_generated.obj
 0001:00012330       ??R?$_Func_class@V?$Local@VValue@v8@@@v8@@PE$AAVWiFiAdapter@WiFi@Devices@Windows@@@std@@QEBA?AV?$Local@VValue@v8@@@v8@@PE$AAVWiFiAdapter@WiFi@Devices@Windows@@@Z 0000000180013330 f i _nodert_generated.obj
 0001:000123d0       ??0?$IteratorWrapper@PE$AAVWiFiAdapter@WiFi@Devices@Windows@@@Collections@NodeRT@@AEAA@PE$AAU?$IIterator@PE$AAVWiFiAdapter@WiFi@Devices@Windows@@@1Foundation@Windows@@AEBV?$function@$$A6A?AV?$Local@VValue@v8@@@v8@@PE$AAVWiFiAdapter@WiFi@Devices@Windows@@@Z@std@@@Z 00000001800133d0 f i _nodert_generated.obj
 0001:00012480       ?Init@?$IteratorWrapper@PE$AAVWiFiAdapter@WiFi@Devices@Windows@@@Collections@NodeRT@@SAXXZ 0000000180013480 f i _nodert_generated.obj
 0001:00012690       ??0?$IteratorWrapper@PE$AAVWiFiAvailableNetwork@WiFi@Devices@Windows@@@Collections@NodeRT@@AEAA@PE$AAU?$IIterator@PE$AAVWiFiAvailableNetwork@WiFi@Devices@Windows@@@1Foundation@Windows@@AEBV?$function@$$A6A?AV?$Local@VValue@v8@@@v8@@PE$AAVWiFiAvailableNetwork@WiFi@Devices@Windows@@@Z@std@@@Z 0000000180013690 f i _nodert_generated.obj
 0001:00012740       ?Init@?$IteratorWrapper@PE$AAVWiFiAvailableNetwork@WiFi@Devices@Windows@@@Collections@NodeRT@@SAXXZ 0000000180013740 f i _nodert_generated.obj
 0001:00012950       ??_E?$IteratorWrapper@PE$AAVWiFiAdapter@WiFi@Devices@Windows@@@Collections@NodeRT@@UEAAPEAXI@Z 0000000180013950 f i * CIL library *:* CIL module *
 0001:00012950       ??_G?$IteratorWrapper@PE$AAVWiFiAdapter@WiFi@Devices@Windows@@@Collections@NodeRT@@UEAAPEAXI@Z 0000000180013950 f i _nodert_generated.obj
 0001:00012990       ??1?$IteratorWrapper@PE$AAVWiFiAdapter@WiFi@Devices@Windows@@@Collections@NodeRT@@UEAA@XZ 0000000180013990 f i _nodert_generated.obj
 0001:00012a20       ??_E?$IteratorWrapper@PE$AAVWiFiAvailableNetwork@WiFi@Devices@Windows@@@Collections@NodeRT@@UEAAPEAXI@Z 0000000180013a20 f i * CIL library *:* CIL module *
 0001:00012a20       ??_G?$IteratorWrapper@PE$AAVWiFiAvailableNetwork@WiFi@Devices@Windows@@@Collections@NodeRT@@UEAAPEAXI@Z 0000000180013a20 f i _nodert_generated.obj
 0001:00012a60       ??1?$IteratorWrapper@PE$AAVWiFiAvailableNetwork@WiFi@Devices@Windows@@@Collections@NodeRT@@UEAA@XZ 0000000180013a60 f i _nodert_generated.obj
 0001:00012af0       ?HasCurrentGetter@?$IteratorWrapper@PE$AAVWiFiAdapter@WiFi@Devices@Windows@@@Collections@NodeRT@@CAXV?$Local@VString@v8@@@v8@@AEBV?$PropertyCallbackInfo@VValue@v8@@@Nan@@@Z 0000000180013af0 f i _nodert_generated.obj
 0001:00012ba0       ?CurrentGetter@?$IteratorWrapper@PE$AAVWiFiAdapter@WiFi@Devices@Windows@@@Collections@NodeRT@@CAXV?$Local@VString@v8@@@v8@@AEBV?$PropertyCallbackInfo@VValue@v8@@@Nan@@@Z 0000000180013ba0 f i _nodert_generated.obj
 0001:00012ce0       ?MoveNext@?$IteratorWrapper@PE$AAVWiFiAdapter@WiFi@Devices@Windows@@@Collections@NodeRT@@CAXAEBV?$FunctionCallbackInfo@VValue@v8@@@Nan@@@Z 0000000180013ce0 f i _nodert_generated.obj
 0001:00012e10       ?HasCurrentGetter@?$IteratorWrapper@PE$AAVWiFiAvailableNetwork@WiFi@Devices@Windows@@@Collections@NodeRT@@CAXV?$Local@VString@v8@@@v8@@AEBV?$PropertyCallbackInfo@VValue@v8@@@Nan@@@Z 0000000180013e10 f i _nodert_generated.obj
 0001:00012ec0       ?CurrentGetter@?$IteratorWrapper@PE$AAVWiFiAvailableNetwork@WiFi@Devices@Windows@@@Collections@NodeRT@@CAXV?$Local@VString@v8@@@v8@@AEBV?$PropertyCallbackInfo@VValue@v8@@@Nan@@@Z 0000000180013ec0 f i _nodert_generated.obj
 0001:00013000       ?MoveNext@?$IteratorWrapper@PE$AAVWiFiAvailableNetwork@WiFi@Devices@Windows@@@Collections@NodeRT@@CAXAEBV?$FunctionCallbackInfo@VValue@v8@@@Nan@@@Z 0000000180014000 f i _nodert_generated.obj
 0001:00013130       ?get@ErrorCode@IAsyncInfo@Foundation@Windows@@UE$AAA?AVHResult@34@XZ 0000000180014130 f i _nodert_generated.obj
 0001:00013160       ?Cancel@IAsyncInfo@Foundation@Windows@@UE$AAAXXZ 0000000180014160 f i _nodert_generated.obj
 0001:00013180       ?ScanAsync@IWiFiAdapter@WiFi@Devices@Windows@@UE$AAAPE$AAUIAsyncAction@Foundation@4@XZ 0000000180014180 f i _nodert_generated.obj
 0001:000131e0       ?ConnectAsync@IWiFiAdapter@WiFi@Devices@Windows@@UE$AAAPE$AAU?$IAsyncOperation@PE$AAVWiFiConnectionResult@WiFi@Devices@Windows@@@Foundation@4@PE$AAVWiFiAvailableNetwork@234@W4WiFiReconnectionKind@234@@Z 00000001800141e0 f i _nodert_generated.obj
 0001:00013240       ?ConnectAsync@IWiFiAdapter@WiFi@Devices@Windows@@UE$AAAPE$AAU?$IAsyncOperation@PE$AAVWiFiConnectionResult@WiFi@Devices@Windows@@@Foundation@4@PE$AAVWiFiAvailableNetwork@234@W4WiFiReconnectionKind@234@PE$AAVPasswordCredential@Credentials@Security@4@@Z 0000000180014240 f i _nodert_generated.obj
 0001:000132a0       ?ConnectAsync@IWiFiAdapter@WiFi@Devices@Windows@@UE$AAAPE$AAU?$IAsyncOperation@PE$AAVWiFiConnectionResult@WiFi@Devices@Windows@@@Foundation@4@PE$AAVWiFiAvailableNetwork@234@W4WiFiReconnectionKind@234@PE$AAVPasswordCredential@Credentials@Security@4@PE$AAVString@Platform@@@Z 00000001800142a0 f i _nodert_generated.obj
 0001:00013310       ?First@?$IIterable@PE$AAVWiFiAvailableNetwork@WiFi@Devices@Windows@@@Collections@Foundation@Windows@@UE$AAAPE$AAU?$IIterator@PE$AAVWiFiAvailableNetwork@WiFi@Devices@Windows@@@234@XZ 0000000180014310 f i _nodert_generated.obj
 0001:00013310       ?First@?$IIterable@PE$AAVWiFiAdapter@WiFi@Devices@Windows@@@Collections@Foundation@Windows@@UE$AAAPE$AAU?$IIterator@PE$AAVWiFiAdapter@WiFi@Devices@Windows@@@234@XZ 0000000180014310 f i _nodert_generated.obj
 0001:00013370       ?GetAt@?$IVectorView@PE$AAVWiFiAdapter@WiFi@Devices@Windows@@@Collections@Foundation@Windows@@UE$AAAPE$AAVWiFiAdapter@WiFi@Devices@4@I@Z 0000000180014370 f i _nodert_generated.obj
 0001:00013370       ?GetAt@?$IVectorView@PE$AAVWiFiAvailableNetwork@WiFi@Devices@Windows@@@Collections@Foundation@Windows@@UE$AAAPE$AAVWiFiAvailableNetwork@WiFi@Devices@4@I@Z 0000000180014370 f i _nodert_generated.obj
 0001:000133d0       ?get@Bssid@IWiFiAvailableNetwork@WiFi@Devices@Windows@@UE$AAAPE$AAVString@Platform@@XZ 00000001800143d0 f i _nodert_generated.obj
 0001:00013440       ?get@Ssid@IWiFiAvailableNetwork@WiFi@Devices@Windows@@UE$AAAPE$AAVString@Platform@@XZ 0000000180014440 f i _nodert_generated.obj
 0001:000134b0       ??$Reset@VObject@v8@@@?$Persistent@VObject@v8@@V?$NonCopyablePersistentTraits@VObject@v8@@@2@@Nan@@QEAAXAEBV?$Local@VObject@v8@@@v8@@@Z 00000001800144b0 f i _nodert_generated.obj
 0001:00013510       ??$make_shared@U_ExceptionHolder@details@Concurrency@@AEBVexception_ptr@std@@V_TaskCreationCallstack@23@@std@@YA?AV?$shared_ptr@U_ExceptionHolder@details@Concurrency@@@0@AEBVexception_ptr@0@$$QEAV_TaskCreationCallstack@details@Concurrency@@@Z 0000000180014510 f i _nodert_generated.obj
 0001:000135d0       ??$?0V<lambda_f25c37099038263181b5186a3fa41b37>@@XX@?$function@$$A6AXXZ@std@@QEAA@V<lambda_f25c37099038263181b5186a3fa41b37>@@@Z 00000001800145d0 f i _nodert_generated.obj
 0001:00013670       ??$?0PE$AAUIAsyncAction@Foundation@Windows@@@?$task@X@Concurrency@@QEAA@PE$AAUIAsyncAction@Foundation@Windows@@AEBVtask_options@1@@Z 0000000180014670 f i _nodert_generated.obj
 0001:00013890       ??$?4AEAV?$function@$$A6AXXZ@std@@XX@?$function@$$A6AXXZ@std@@QEAAAEAV01@AEAV01@@Z 0000000180014890 f i _nodert_generated.obj
 0001:00013920       ??$SetMethod@VObject@v8@@VLocal@2@@Nan@@YAXV?$Local@VObject@v8@@@v8@@PEBDP6AXAEBV?$FunctionCallbackInfo@VValue@v8@@@0@@Z@Z 0000000180014920 f i _nodert_generated.obj
 0001:000139e0       ??$IsWinRtWrapperOf@PE$AAVWiFiAdapter@WiFi@Devices@Windows@@@Utils@NodeRT@@YA_NV?$Local@VValue@v8@@@v8@@@Z 00000001800149e0 f i _nodert_generated.obj
 0001:00013b40       ??$Unwrap@V?$IteratorWrapper@PE$AAVWiFiAdapter@WiFi@Devices@Windows@@@Collections@NodeRT@@@ObjectWrap@Nan@@SAPEAV?$IteratorWrapper@PE$AAVWiFiAdapter@WiFi@Devices@Windows@@@Collections@NodeRT@@V?$Local@VObject@v8@@@v8@@@Z 0000000180014b40 f i _nodert_generated.obj
 0001:00013b40       ??$Unwrap@VWiFiNetworkReport@WiFi@Devices@Windows@NodeRT@@@ObjectWrap@Nan@@SAPEAVWiFiNetworkReport@WiFi@Devices@Windows@NodeRT@@V?$Local@VObject@v8@@@v8@@@Z 0000000180014b40 f i _nodert_generated.obj
 0001:00013b40       ??$Unwrap@V?$VectorViewWrapper@PE$AAVWiFiAdapter@WiFi@Devices@Windows@@@Collections@NodeRT@@@ObjectWrap@Nan@@SAPEAV?$VectorViewWrapper@PE$AAVWiFiAdapter@WiFi@Devices@Windows@@@Collections@NodeRT@@V?$Local@VObject@v8@@@v8@@@Z 0000000180014b40 f i _nodert_generated.obj
 0001:00013b40       ??$Unwrap@VWiFiAvailableNetwork@WiFi@Devices@Windows@NodeRT@@@ObjectWrap@Nan@@SAPEAVWiFiAvailableNetwork@WiFi@Devices@Windows@NodeRT@@V?$Local@VObject@v8@@@v8@@@Z 0000000180014b40 f i _nodert_generated.obj
 0001:00013b40       ??$Unwrap@VWrapperBase@NodeRT@@@ObjectWrap@Nan@@SAPEAVWrapperBase@NodeRT@@V?$Local@VObject@v8@@@v8@@@Z 0000000180014b40 f i _nodert_generated.obj
 0001:00013b40       ??$Unwrap@VWiFiAdapter@WiFi@Devices@Windows@NodeRT@@@ObjectWrap@Nan@@SAPEAVWiFiAdapter@WiFi@Devices@Windows@NodeRT@@V?$Local@VObject@v8@@@v8@@@Z 0000000180014b40 f i _nodert_generated.obj
 0001:00013b40       ??$Unwrap@VWiFiConnectionResult@WiFi@Devices@Windows@NodeRT@@@ObjectWrap@Nan@@SAPEAVWiFiConnectionResult@WiFi@Devices@Windows@NodeRT@@V?$Local@VObject@v8@@@v8@@@Z 0000000180014b40 f i _nodert_generated.obj
 0001:00013b40       ??$Unwrap@V?$IteratorWrapper@PE$AAVWiFiAvailableNetwork@WiFi@Devices@Windows@@@Collections@NodeRT@@@ObjectWrap@Nan@@SAPEAV?$IteratorWrapper@PE$AAVWiFiAvailableNetwork@WiFi@Devices@Windows@@@Collections@NodeRT@@V?$Local@VObject@v8@@@v8@@@Z 0000000180014b40 f i _nodert_generated.obj
 0001:00013b40       ??$Unwrap@VOpaqueWrapper@NodeRT@@@ObjectWrap@Nan@@SAPEAVOpaqueWrapper@NodeRT@@V?$Local@VObject@v8@@@v8@@@Z 0000000180014b40 f i _nodert_generated.obj
 0001:00013b40       ??$Unwrap@V?$VectorViewWrapper@PE$AAVWiFiAvailableNetwork@WiFi@Devices@Windows@@@Collections@NodeRT@@@ObjectWrap@Nan@@SAPEAV?$VectorViewWrapper@PE$AAVWiFiAvailableNetwork@WiFi@Devices@Windows@@@Collections@NodeRT@@V?$Local@VObject@v8@@@v8@@@Z 0000000180014b40 f i _nodert_generated.obj
 0001:00013bc0       ??$create_task@PE$AAUIAsyncAction@Foundation@Windows@@@Concurrency@@YA?AV?$task@X@0@PE$AAUIAsyncAction@Foundation@Windows@@Vtask_options@0@@Z 0000000180014bc0 f i _nodert_generated.obj
 0001:00013c60       ??$then@V<lambda_196da8969df2293b3f20f1c35ff63462>@@@?$task@X@Concurrency@@QEBA?AV01@AEBV<lambda_196da8969df2293b3f20f1c35ff63462>@@Vtask_options@1@@Z 0000000180014c60 f i _nodert_generated.obj
 0001:00013e70       ??$IsWinRtWrapperOf@PE$AAVWiFiAvailableNetwork@WiFi@Devices@Windows@@@Utils@NodeRT@@YA_NV?$Local@VValue@v8@@@v8@@@Z 0000000180014e70 f i _nodert_generated.obj
 0001:00013f90       ??$IsWinRtWrapperOf@PE$AAVPasswordCredential@Credentials@Security@Windows@@@Utils@NodeRT@@YA_NV?$Local@VValue@v8@@@v8@@@Z 0000000180014f90 f i _nodert_generated.obj
 0001:000140f0       ??$create_task@PE$AAU?$IAsyncOperation@PE$AAVWiFiConnectionResult@WiFi@Devices@Windows@@@Foundation@Windows@@@Concurrency@@YA?AV?$task@PE$AAVWiFiConnectionResult@WiFi@Devices@Windows@@@0@PE$AAU?$IAsyncOperation@PE$AAVWiFiConnectionResult@WiFi@Devices@Windows@@@Foundation@Windows@@Vtask_options@0@@Z 00000001800150f0 f i _nodert_generated.obj
 0001:00014190       ??$then@V<lambda_dbe8bba2fdc06b28517f8829416a6436>@@@?$task@PE$AAVWiFiConnectionResult@WiFi@Devices@Windows@@@Concurrency@@QEBA?AV?$task@X@1@AEBV<lambda_dbe8bba2fdc06b28517f8829416a6436>@@@Z 0000000180015190 f i _nodert_generated.obj
 0001:00014410       ??$create_task@PE$AAU?$IAsyncOperation@PE$AAU?$IVectorView@PE$AAVWiFiAdapter@WiFi@Devices@Windows@@@Collections@Foundation@Windows@@@Foundation@Windows@@@Concurrency@@YA?AV?$task@PE$AAU?$IVectorView@PE$AAVWiFiAdapter@WiFi@Devices@Windows@@@Collections@Foundation@Windows@@@0@PE$AAU?$IAsyncOperation@PE$AAU?$IVectorView@PE$AAVWiFiAdapter@WiFi@Devices@Windows@@@Collections@Foundation@Windows@@@Foundation@Windows@@Vtask_options@0@@Z 0000000180015410 f i _nodert_generated.obj
 0001:000144b0       ??$then@V<lambda_45bc1edc407ccfe1fa050aed513212a8>@@@?$task@PE$AAU?$IVectorView@PE$AAVWiFiAdapter@WiFi@Devices@Windows@@@Collections@Foundation@Windows@@@Concurrency@@QEBA?AV?$task@X@1@AEBV<lambda_45bc1edc407ccfe1fa050aed513212a8>@@@Z 00000001800154b0 f i _nodert_generated.obj
 0001:00014730       ??$create_task@PE$AAU?$IAsyncOperation@PE$AAVWiFiAdapter@WiFi@Devices@Windows@@@Foundation@Windows@@@Concurrency@@YA?AV?$task@PE$AAVWiFiAdapter@WiFi@Devices@Windows@@@0@PE$AAU?$IAsyncOperation@PE$AAVWiFiAdapter@WiFi@Devices@Windows@@@Foundation@Windows@@Vtask_options@0@@Z 0000000180015730 f i _nodert_generated.obj
 0001:000147d0       ??$then@V<lambda_e03a7ec937e836cf062062cbea779d3e>@@@?$task@PE$AAVWiFiAdapter@WiFi@Devices@Windows@@@Concurrency@@QEBA?AV?$task@X@1@AEBV<lambda_e03a7ec937e836cf062062cbea779d3e>@@@Z 00000001800157d0 f i _nodert_generated.obj
 0001:00014a50       ??$create_task@PE$AAU?$IAsyncOperation@W4WiFiAccessStatus@WiFi@Devices@Windows@@@Foundation@Windows@@@Concurrency@@YA?AV?$task@W4WiFiAccessStatus@WiFi@Devices@Windows@@@0@PE$AAU?$IAsyncOperation@W4WiFiAccessStatus@WiFi@Devices@Windows@@@Foundation@Windows@@Vtask_options@0@@Z 0000000180015a50 f i _nodert_generated.obj
 0001:00014af0       ??$then@V<lambda_b35fdbc63eaf6c602f1361040fea34ad>@@@?$task@W4WiFiAccessStatus@WiFi@Devices@Windows@@@Concurrency@@QEBA?AV?$task@X@1@AEBV<lambda_b35fdbc63eaf6c602f1361040fea34ad>@@@Z 0000000180015af0 f i _nodert_generated.obj
 0001:00014d70       ??$?0V<lambda_6e21da2768ea61b27f3b85c7b781b2f7>@@@?$TypedEventHandler@PE$AAVWiFiAdapter@WiFi@Devices@Windows@@PE$AAVObject@Platform@@@Foundation@Windows@@QE$AAA@V<lambda_6e21da2768ea61b27f3b85c7b781b2f7>@@W4CallbackContext@Platform@@_N@Z 0000000180015d70 f i _nodert_generated.obj
 0001:00014e70       ??$IsWinRtWrapperOf@PE$AAVWiFiNetworkReport@WiFi@Devices@Windows@@@Utils@NodeRT@@YA_NV?$Local@VValue@v8@@@v8@@@Z 0000000180015e70 f i _nodert_generated.obj
 0001:00014f90       ??$IsWinRtWrapperOf@PE$AAVWiFiConnectionResult@WiFi@Devices@Windows@@@Utils@NodeRT@@YA_NV?$Local@VValue@v8@@@v8@@@Z 0000000180015f90 f i _nodert_generated.obj
 0001:000150b0       ??$_AsyncInit@EE@_Task_impl_base@details@Concurrency@@SAXAEBV?$shared_ptr@U?$_Task_impl@E@details@Concurrency@@@std@@PE$AAU?$IAsyncOperation@E@Foundation@Windows@@@Z 00000001800160b0 f i _nodert_generated.obj
 0001:00015300       ??$?0V<lambda_af8508c7722addee579d0ffcec46034b>@@@AsyncActionCompletedHandler@Foundation@Windows@@QE$AAA@V<lambda_af8508c7722addee579d0ffcec46034b>@@W4CallbackContext@Platform@@_N@Z 0000000180016300 f i _nodert_generated.obj
 0001:000153f0       ??$make_shared@U?$_Task_impl@E@details@Concurrency@@AEAPEAV_CancellationTokenState@23@AEAUscheduler_ptr@3@@std@@YA?AV?$shared_ptr@U?$_Task_impl@E@details@Concurrency@@@0@AEAPEAV_CancellationTokenState@details@Concurrency@@AEAUscheduler_ptr@4@@Z 00000001800163f0 f i _nodert_generated.obj
 0001:000154e0       ??$IsWinRtWrapperOf@PE$AAU?$IVectorView@PE$AAVWiFiAvailableNetwork@WiFi@Devices@Windows@@@Collections@Foundation@Windows@@@Utils@NodeRT@@YA_NV?$Local@VValue@v8@@@v8@@@Z 00000001800164e0 f i _nodert_generated.obj
 0001:00015600       ??$IsWinRtWrapperOf@PE$AAU?$IVectorView@PE$AAVWiFiAdapter@WiFi@Devices@Windows@@@Collections@Foundation@Windows@@@Utils@NodeRT@@YA_NV?$Local@VValue@v8@@@v8@@@Z 0000000180016600 f i _nodert_generated.obj
 0001:00015720       ??$IsWinRtWrapperOf@PE$AAU?$IIterator@PE$AAVWiFiAdapter@WiFi@Devices@Windows@@@Collections@Foundation@Windows@@@Utils@NodeRT@@YA_NV?$Local@VValue@v8@@@v8@@@Z 0000000180016720 f i _nodert_generated.obj
 0001:00015840       ??$IsWinRtWrapperOf@PE$AAU?$IIterator@PE$AAVWiFiAvailableNetwork@WiFi@Devices@Windows@@@Collections@Foundation@Windows@@@Utils@NodeRT@@YA_NV?$Local@VValue@v8@@@v8@@@Z 0000000180016840 f i _nodert_generated.obj
 0001:00015960       ?_Delete_this@?$_Ref_count_obj@U?$_Task_impl@W4WiFiAccessStatus@WiFi@Devices@Windows@@@details@Concurrency@@@std@@EEAAXXZ 0000000180016960 f i _nodert_generated.obj
 0001:00015960       ?_Delete_this@?$_Ref_count_obj@U?$_Task_impl@PE$AAVWiFiAdapter@WiFi@Devices@Windows@@@details@Concurrency@@@std@@EEAAXXZ 0000000180016960 f i _nodert_generated.obj
 0001:00015960       ?_Delete_this@?$_Ref_count_obj@U_ExceptionHolder@details@Concurrency@@@std@@EEAAXXZ 0000000180016960 f i _nodert_generated.obj
 0001:00015960       ?_Delete_this@?$_Ref_count_obj@U?$_Task_impl@PE$AAU?$IVectorView@PE$AAVWiFiAdapter@WiFi@Devices@Windows@@@Collections@Foundation@Windows@@@details@Concurrency@@@std@@EEAAXXZ 0000000180016960 f i _nodert_generated.obj
 0001:00015960       ?_Delete_this@?$_Ref_count_obj@U?$_Task_impl@PE$AAVWiFiConnectionResult@WiFi@Devices@Windows@@@details@Concurrency@@@std@@EEAAXXZ 0000000180016960 f i _nodert_generated.obj
 0001:00015960       ?_Delete_this@?$_Ref_count_obj@U?$_Task_impl@E@details@Concurrency@@@std@@EEAAXXZ 0000000180016960 f i _nodert_generated.obj
 0001:00015960       ?_Delete_this@?$_Ref_count_del@V?$Persistent@VObject@v8@@V?$NonCopyablePersistentTraits@VObject@v8@@@2@@Nan@@V<lambda_c02fb238210f14e2fb5013cae9dd75ba>@@@std@@EEAAXXZ 0000000180016960 f i _nodert_generated.obj
 0001:00015980       ?_Destroy@?$_Ref_count_obj@U?$_Task_impl@W4WiFiAccessStatus@WiFi@Devices@Windows@@@details@Concurrency@@@std@@EEAAXXZ 0000000180016980 f i _nodert_generated.obj
 0001:00015980       ?_Destroy@?$_Ref_count_obj@U?$_Task_impl@PE$AAVWiFiAdapter@WiFi@Devices@Windows@@@details@Concurrency@@@std@@EEAAXXZ 0000000180016980 f i _nodert_generated.obj
 0001:00015980       ?_Destroy@?$_Ref_count_obj@U?$_Task_impl@PE$AAVWiFiConnectionResult@WiFi@Devices@Windows@@@details@Concurrency@@@std@@EEAAXXZ 0000000180016980 f i _nodert_generated.obj
 0001:00015980       ?_Destroy@?$_Ref_count_obj@U?$_Task_impl@PE$AAU?$IVectorView@PE$AAVWiFiAdapter@WiFi@Devices@Windows@@@Collections@Foundation@Windows@@@details@Concurrency@@@std@@EEAAXXZ 0000000180016980 f i _nodert_generated.obj
 0001:00015980       ?_Destroy@?$_Ref_count_obj@U?$_Task_impl@E@details@Concurrency@@@std@@EEAAXXZ 0000000180016980 f i _nodert_generated.obj
 0001:00015990       ?Invoke@?$__abi_FunctorCapture@V<lambda_af8508c7722addee579d0ffcec46034b>@@XPE$AAUIAsyncAction@Foundation@Windows@@W4AsyncStatus@34@@Details@Platform@@UEAAXPE$AAUIAsyncAction@Foundation@Windows@@W4AsyncStatus@56@@Z 0000000180016990 f i _nodert_generated.obj
 0001:000159e0       ??B?$Box@_J@Platform@@QE$AAA_JXZ 00000001800169e0 f i _nodert_generated.obj
 0001:00015aa0       ?Invoke@?$__abi_FunctorCapture@V<lambda_6e21da2768ea61b27f3b85c7b781b2f7>@@XPE$AAVWiFiAdapter@WiFi@Devices@Windows@@PE$AAVObject@Platform@@@Details@Platform@@UEAAXPE$AAVWiFiAdapter@WiFi@Devices@Windows@@PE$AAVObject@3@@Z 0000000180016aa0 f i _nodert_generated.obj
 0001:00015ab0       ??0?$__abi_FunctorCapture@V<lambda_6e21da2768ea61b27f3b85c7b781b2f7>@@XPE$AAVWiFiAdapter@WiFi@Devices@Windows@@PE$AAVObject@Platform@@@Details@Platform@@QEAA@V<lambda_6e21da2768ea61b27f3b85c7b781b2f7>@@@Z 0000000180016ab0 f i _nodert_generated.obj
 0001:00015b50       ?_Destroy@?$_Ref_count_obj@U_ExceptionHolder@details@Concurrency@@@std@@EEAAXXZ 0000000180016b50 f i _nodert_generated.obj
 0001:00015b60       ??1?$_Func_class@XV?$task@W4WiFiAccessStatus@WiFi@Devices@Windows@@@Concurrency@@@std@@QEAA@XZ 0000000180016b60 f i _nodert_generated.obj
 0001:00015b60       ??1?$function@$$A6AXV?$task@W4WiFiAccessStatus@WiFi@Devices@Windows@@@Concurrency@@@Z@std@@QEAA@XZ 0000000180016b60 f i _nodert_generated.obj
 0001:00015bc0       ??1?$function@$$A6AXV?$task@PE$AAVWiFiAdapter@WiFi@Devices@Windows@@@Concurrency@@@Z@std@@QEAA@XZ 0000000180016bc0 f i _nodert_generated.obj
 0001:00015bc0       ??1?$_Func_class@XV?$task@PE$AAVWiFiAdapter@WiFi@Devices@Windows@@@Concurrency@@@std@@QEAA@XZ 0000000180016bc0 f i _nodert_generated.obj
 0001:00015c20       ??1?$function@$$A6AXV?$task@PE$AAU?$IVectorView@PE$AAVWiFiAdapter@WiFi@Devices@Windows@@@Collections@Foundation@Windows@@@Concurrency@@@Z@std@@QEAA@XZ 0000000180016c20 f i _nodert_generated.obj
 0001:00015c20       ??1?$_Func_class@XV?$task@PE$AAU?$IVectorView@PE$AAVWiFiAdapter@WiFi@Devices@Windows@@@Collections@Foundation@Windows@@@Concurrency@@@std@@QEAA@XZ 0000000180016c20 f i _nodert_generated.obj
 0001:00015c80       ??1?$_Func_class@XV?$task@PE$AAVWiFiConnectionResult@WiFi@Devices@Windows@@@Concurrency@@@std@@QEAA@XZ 0000000180016c80 f i _nodert_generated.obj
 0001:00015c80       ??1?$function@$$A6AXV?$task@PE$AAVWiFiConnectionResult@WiFi@Devices@Windows@@@Concurrency@@@Z@std@@QEAA@XZ 0000000180016c80 f i _nodert_generated.obj
 0001:00015ce0       ??1?$function@$$A6AXV?$task@X@Concurrency@@@Z@std@@QEAA@XZ 0000000180016ce0 f i _nodert_generated.obj
 0001:00015ce0       ??1?$_Func_class@XV?$task@X@Concurrency@@@std@@QEAA@XZ 0000000180016ce0 f i _nodert_generated.obj
 0001:00015d40       ?_SetUnwrappedAsyncOp@?$_Task_impl@E@details@Concurrency@@QEAAXPE$AAU?$IAsyncOperation@E@Foundation@Windows@@@Z 0000000180016d40 f i _nodert_generated.obj
 0001:00015e70       ??_E?$__abi_FunctorCapture@V<lambda_af8508c7722addee579d0ffcec46034b>@@XPE$AAUIAsyncAction@Foundation@Windows@@W4AsyncStatus@34@@Details@Platform@@UEAAPEAXI@Z 0000000180016e70 f i * CIL library *:* CIL module *
 0001:00015e70       ??_G?$__abi_FunctorCapture@V<lambda_af8508c7722addee579d0ffcec46034b>@@XPE$AAUIAsyncAction@Foundation@Windows@@W4AsyncStatus@34@@Details@Platform@@UEAAPEAXI@Z 0000000180016e70 f i _nodert_generated.obj
 0001:00015ed0       ??_E?$__abi_FunctorCapture@V<lambda_585ed612c2d693254ec4a52eb6b5009a>@@XPE$AAU?$IAsyncOperation@PE$AAU?$IVectorView@PE$AAVWiFiAdapter@WiFi@Devices@Windows@@@Collections@Foundation@Windows@@@Foundation@Windows@@W4AsyncStatus@34@@Details@Platform@@UEAAPEAXI@Z 0000000180016ed0 f i * CIL library *:* CIL module *
 0001:00015ed0       ??_E?$__abi_FunctorCapture@V<lambda_1be61911d0911224a6a5e596bb6a6971>@@XPE$AAU?$IAsyncOperation@PE$AAVWiFiConnectionResult@WiFi@Devices@Windows@@@Foundation@Windows@@W4AsyncStatus@34@@Details@Platform@@UEAAPEAXI@Z 0000000180016ed0 f i * CIL library *:* CIL module *
 0001:00015ed0       ??_G?$__abi_FunctorCapture@V<lambda_1be61911d0911224a6a5e596bb6a6971>@@XPE$AAU?$IAsyncOperation@PE$AAVWiFiConnectionResult@WiFi@Devices@Windows@@@Foundation@Windows@@W4AsyncStatus@34@@Details@Platform@@UEAAPEAXI@Z 0000000180016ed0 f i _nodert_generated.obj
 0001:00015ed0       ??_G?$__abi_FunctorCapture@V<lambda_585ed612c2d693254ec4a52eb6b5009a>@@XPE$AAU?$IAsyncOperation@PE$AAU?$IVectorView@PE$AAVWiFiAdapter@WiFi@Devices@Windows@@@Collections@Foundation@Windows@@@Foundation@Windows@@W4AsyncStatus@34@@Details@Platform@@UEAAPEAXI@Z 0000000180016ed0 f i _nodert_generated.obj
 0001:00015ed0       ??_E?$__abi_FunctorCapture@V<lambda_db80035d952e9a216ce91aaae9489895>@@XPE$AAU?$IAsyncOperation@E@Foundation@Windows@@W4AsyncStatus@34@@Details@Platform@@UEAAPEAXI@Z 0000000180016ed0 f i * CIL library *:* CIL module *
 0001:00015ed0       ??_E?$__abi_FunctorCapture@V<lambda_cc9b10b2bfbca148cbf6cbf67ef94e36>@@XPE$AAU?$IAsyncOperation@PE$AAVWiFiAdapter@WiFi@Devices@Windows@@@Foundation@Windows@@W4AsyncStatus@34@@Details@Platform@@UEAAPEAXI@Z 0000000180016ed0 f i * CIL library *:* CIL module *
 0001:00015ed0       ??_E?$__abi_FunctorCapture@V<lambda_bd36e4550c07aa6279a00ca606e5e690>@@XPE$AAU?$IAsyncOperation@W4WiFiAccessStatus@WiFi@Devices@Windows@@@Foundation@Windows@@W4AsyncStatus@34@@Details@Platform@@UEAAPEAXI@Z 0000000180016ed0 f i * CIL library *:* CIL module *
 0001:00015ed0       ??_E?$__abi_FunctorCapture@V<lambda_6e21da2768ea61b27f3b85c7b781b2f7>@@XPE$AAVWiFiAdapter@WiFi@Devices@Windows@@PE$AAVObject@Platform@@@Details@Platform@@UEAAPEAXI@Z 0000000180016ed0 f i * CIL library *:* CIL module *
 0001:00015ed0       ??_G?$__abi_FunctorCapture@V<lambda_6e21da2768ea61b27f3b85c7b781b2f7>@@XPE$AAVWiFiAdapter@WiFi@Devices@Windows@@PE$AAVObject@Platform@@@Details@Platform@@UEAAPEAXI@Z 0000000180016ed0 f i _nodert_generated.obj
 0001:00015ed0       ??_G?$__abi_FunctorCapture@V<lambda_bd36e4550c07aa6279a00ca606e5e690>@@XPE$AAU?$IAsyncOperation@W4WiFiAccessStatus@WiFi@Devices@Windows@@@Foundation@Windows@@W4AsyncStatus@34@@Details@Platform@@UEAAPEAXI@Z 0000000180016ed0 f i _nodert_generated.obj
 0001:00015ed0       ??_G?$__abi_FunctorCapture@V<lambda_cc9b10b2bfbca148cbf6cbf67ef94e36>@@XPE$AAU?$IAsyncOperation@PE$AAVWiFiAdapter@WiFi@Devices@Windows@@@Foundation@Windows@@W4AsyncStatus@34@@Details@Platform@@UEAAPEAXI@Z 0000000180016ed0 f i _nodert_generated.obj
 0001:00015ed0       ??_G?$__abi_FunctorCapture@V<lambda_db80035d952e9a216ce91aaae9489895>@@XPE$AAU?$IAsyncOperation@E@Foundation@Windows@@W4AsyncStatus@34@@Details@Platform@@UEAAPEAXI@Z 0000000180016ed0 f i _nodert_generated.obj
 0001:00015f10       ??1?$__abi_FunctorCapture@V<lambda_bd36e4550c07aa6279a00ca606e5e690>@@XPE$AAU?$IAsyncOperation@W4WiFiAccessStatus@WiFi@Devices@Windows@@@Foundation@Windows@@W4AsyncStatus@34@@Details@Platform@@UEAA@XZ 0000000180016f10 f i _nodert_generated.obj
 0001:00015f10       ??1?$__abi_FunctorCapture@V<lambda_db80035d952e9a216ce91aaae9489895>@@XPE$AAU?$IAsyncOperation@E@Foundation@Windows@@W4AsyncStatus@34@@Details@Platform@@UEAA@XZ 0000000180016f10 f i _nodert_generated.obj
 0001:00015f10       ??1?$__abi_FunctorCapture@V<lambda_cc9b10b2bfbca148cbf6cbf67ef94e36>@@XPE$AAU?$IAsyncOperation@PE$AAVWiFiAdapter@WiFi@Devices@Windows@@@Foundation@Windows@@W4AsyncStatus@34@@Details@Platform@@UEAA@XZ 0000000180016f10 f i _nodert_generated.obj
 0001:00015f10       ??1?$__abi_FunctorCapture@V<lambda_1be61911d0911224a6a5e596bb6a6971>@@XPE$AAU?$IAsyncOperation@PE$AAVWiFiConnectionResult@WiFi@Devices@Windows@@@Foundation@Windows@@W4AsyncStatus@34@@Details@Platform@@UEAA@XZ 0000000180016f10 f i _nodert_generated.obj
 0001:00015f10       ??1?$__abi_FunctorCapture@V<lambda_585ed612c2d693254ec4a52eb6b5009a>@@XPE$AAU?$IAsyncOperation@PE$AAU?$IVectorView@PE$AAVWiFiAdapter@WiFi@Devices@Windows@@@Collections@Foundation@Windows@@@Foundation@Windows@@W4AsyncStatus@34@@Details@Platform@@UEAA@XZ 0000000180016f10 f i _nodert_generated.obj
 0001:00015f10       ??1?$__abi_FunctorCapture@V<lambda_6e21da2768ea61b27f3b85c7b781b2f7>@@XPE$AAVWiFiAdapter@WiFi@Devices@Windows@@PE$AAVObject@Platform@@@Details@Platform@@UEAA@XZ 0000000180016f10 f i _nodert_generated.obj
 0001:00015f90       ?_Reset0@?$_Ptr_base@U?$_Task_impl@E@details@Concurrency@@@std@@QEAAXPEAU?$_Task_impl@E@details@Concurrency@@PEAV_Ref_count_base@2@@Z 0000000180016f90 f i _nodert_generated.obj
 0001:00015f90       ?_Reset0@?$_Ptr_base@U?$_Task_impl@PE$AAU?$IVectorView@PE$AAVWiFiAdapter@WiFi@Devices@Windows@@@Collections@Foundation@Windows@@@details@Concurrency@@@std@@QEAAXPEAU?$_Task_impl@PE$AAU?$IVectorView@PE$AAVWiFiAdapter@WiFi@Devices@Windows@@@Collections@Foundation@Windows@@@details@Concurrency@@PEAV_Ref_count_base@2@@Z 0000000180016f90 f i _nodert_generated.obj
 0001:00015f90       ?_Reset0@?$_Ptr_base@U_Task_impl_base@details@Concurrency@@@std@@QEAAXPEAU_Task_impl_base@details@Concurrency@@PEAV_Ref_count_base@2@@Z 0000000180016f90 f i _nodert_generated.obj
 0001:00015f90       ?_Reset0@?$_Ptr_base@U?$_Task_impl@PE$AAVWiFiConnectionResult@WiFi@Devices@Windows@@@details@Concurrency@@@std@@QEAAXPEAU?$_Task_impl@PE$AAVWiFiConnectionResult@WiFi@Devices@Windows@@@details@Concurrency@@PEAV_Ref_count_base@2@@Z 0000000180016f90 f i _nodert_generated.obj
 0001:00015f90       ?_Reset0@?$_Ptr_base@U?$_Task_impl@W4WiFiAccessStatus@WiFi@Devices@Windows@@@details@Concurrency@@@std@@QEAAXPEAU?$_Task_impl@W4WiFiAccessStatus@WiFi@Devices@Windows@@@details@Concurrency@@PEAV_Ref_count_base@2@@Z 0000000180016f90 f i _nodert_generated.obj
 0001:00015f90       ?_Reset0@?$_Ptr_base@V?$Persistent@VObject@v8@@V?$NonCopyablePersistentTraits@VObject@v8@@@2@@Nan@@@std@@QEAAXPEAV?$Persistent@VObject@v8@@V?$NonCopyablePersistentTraits@VObject@v8@@@2@@Nan@@PEAV_Ref_count_base@2@@Z 0000000180016f90 f i _nodert_generated.obj
 0001:00015f90       ?_Reset0@?$_Ptr_base@U?$_Task_impl@PE$AAVWiFiAdapter@WiFi@Devices@Windows@@@details@Concurrency@@@std@@QEAAXPEAU?$_Task_impl@PE$AAVWiFiAdapter@WiFi@Devices@Windows@@@details@Concurrency@@PEAV_Ref_count_base@2@@Z 0000000180016f90 f i _nodert_generated.obj
 0001:00015f90       ?_Reset0@?$_Ptr_base@U_ExceptionHolder@details@Concurrency@@@std@@QEAAXPEAU_ExceptionHolder@details@Concurrency@@PEAV_Ref_count_base@2@@Z 0000000180016f90 f i _nodert_generated.obj
 0001:00015f90       ?_Reset0@?$_Ptr_base@Uscheduler_interface@Concurrency@@@std@@QEAAXPEAUscheduler_interface@Concurrency@@PEAV_Ref_count_base@2@@Z 0000000180016f90 f i _nodert_generated.obj
 0001:00016020       ?_Swap@?$_Func_class@X$$V@std@@IEAAXAEAV12@@Z 0000000180017020 f i _nodert_generated.obj
 0001:00016160       ??$_ThenImpl@XV?$function@$$A6AXV?$task@X@Concurrency@@@Z@std@@@?$task@E@Concurrency@@AEBA?AV?$task@X@1@AEBV?$function@$$A6AXV?$task@X@Concurrency@@@Z@std@@AEAU_ThenImplOptions@details@1@@Z 0000000180017160 f i _nodert_generated.obj
 0001:00016280       ??$SetMethodAux@V?$Local@VObject@v8@@@v8@@@imp@Nan@@YAXV?$Local@VObject@v8@@@v8@@V?$Local@VString@v8@@@3@V?$Local@VFunctionTemplate@v8@@@3@ZZ 0000000180017280 f i _nodert_generated.obj
 0001:000162d0       ??$?0PE$AAU?$IAsyncOperation@PE$AAVWiFiConnectionResult@WiFi@Devices@Windows@@@Foundation@Windows@@@?$task@PE$AAVWiFiConnectionResult@WiFi@Devices@Windows@@@Concurrency@@QEAA@PE$AAU?$IAsyncOperation@PE$AAVWiFiConnectionResult@WiFi@Devices@Windows@@@Foundation@Windows@@AEBVtask_options@1@@Z 00000001800172d0 f i _nodert_generated.obj
 0001:000164a0       ??$_ThenImpl@PE$AAVWiFiConnectionResult@WiFi@Devices@Windows@@V?$function@$$A6AXV?$task@PE$AAVWiFiConnectionResult@WiFi@Devices@Windows@@@Concurrency@@@Z@std@@@?$task@PE$AAVWiFiConnectionResult@WiFi@Devices@Windows@@@Concurrency@@AEBA?AV?$task@X@1@AEBV?$function@$$A6AXV?$task@PE$AAVWiFiConnectionResult@WiFi@Devices@Windows@@@Concurrency@@@Z@std@@AEAU_ThenImplOptions@details@1@@Z 00000001800174a0 f i _nodert_generated.obj
 0001:000165c0       ??$?0PE$AAU?$IAsyncOperation@PE$AAU?$IVectorView@PE$AAVWiFiAdapter@WiFi@Devices@Windows@@@Collections@Foundation@Windows@@@Foundation@Windows@@@?$task@PE$AAU?$IVectorView@PE$AAVWiFiAdapter@WiFi@Devices@Windows@@@Collections@Foundation@Windows@@@Concurrency@@QEAA@PE$AAU?$IAsyncOperation@PE$AAU?$IVectorView@PE$AAVWiFiAdapter@WiFi@Devices@Windows@@@Collections@Foundation@Windows@@@Foundation@Windows@@AEBVtask_options@1@@Z 00000001800175c0 f i _nodert_generated.obj
 0001:00016790       ??$_ThenImpl@PE$AAU?$IVectorView@PE$AAVWiFiAdapter@WiFi@Devices@Windows@@@Collections@Foundation@Windows@@V?$function@$$A6AXV?$task@PE$AAU?$IVectorView@PE$AAVWiFiAdapter@WiFi@Devices@Windows@@@Collections@Foundation@Windows@@@Concurrency@@@Z@std@@@?$task@PE$AAU?$IVectorView@PE$AAVWiFiAdapter@WiFi@Devices@Windows@@@Collections@Foundation@Windows@@@Concurrency@@AEBA?AV?$task@X@1@AEBV?$function@$$A6AXV?$task@PE$AAU?$IVectorView@PE$AAVWiFiAdapter@WiFi@Devices@Windows@@@Collections@Foundation@Windows@@@Concurrency@@@Z@std@@AEAU_ThenImplOptions@details@1@@Z 0000000180017790 f i _nodert_generated.obj
 0001:000168b0       ??$?0PE$AAU?$IAsyncOperation@PE$AAVWiFiAdapter@WiFi@Devices@Windows@@@Foundation@Windows@@@?$task@PE$AAVWiFiAdapter@WiFi@Devices@Windows@@@Concurrency@@QEAA@PE$AAU?$IAsyncOperation@PE$AAVWiFiAdapter@WiFi@Devices@Windows@@@Foundation@Windows@@AEBVtask_options@1@@Z 00000001800178b0 f i _nodert_generated.obj
 0001:00016a80       ??$_ThenImpl@PE$AAVWiFiAdapter@WiFi@Devices@Windows@@V?$function@$$A6AXV?$task@PE$AAVWiFiAdapter@WiFi@Devices@Windows@@@Concurrency@@@Z@std@@@?$task@PE$AAVWiFiAdapter@WiFi@Devices@Windows@@@Concurrency@@AEBA?AV?$task@X@1@AEBV?$function@$$A6AXV?$task@PE$AAVWiFiAdapter@WiFi@Devices@Windows@@@Concurrency@@@Z@std@@AEAU_ThenImplOptions@details@1@@Z 0000000180017a80 f i _nodert_generated.obj
 0001:00016ba0       ??$?0PE$AAU?$IAsyncOperation@W4WiFiAccessStatus@WiFi@Devices@Windows@@@Foundation@Windows@@@?$task@W4WiFiAccessStatus@WiFi@Devices@Windows@@@Concurrency@@QEAA@PE$AAU?$IAsyncOperation@W4WiFiAccessStatus@WiFi@Devices@Windows@@@Foundation@Windows@@AEBVtask_options@1@@Z 0000000180017ba0 f i _nodert_generated.obj
 0001:00016d70       ??$_ThenImpl@W4WiFiAccessStatus@WiFi@Devices@Windows@@V?$function@$$A6AXV?$task@W4WiFiAccessStatus@WiFi@Devices@Windows@@@Concurrency@@@Z@std@@@?$task@W4WiFiAccessStatus@WiFi@Devices@Windows@@@Concurrency@@AEBA?AV?$task@X@1@AEBV?$function@$$A6AXV?$task@W4WiFiAccessStatus@WiFi@Devices@Windows@@@Concurrency@@@Z@std@@AEAU_ThenImplOptions@details@1@@Z 0000000180017d70 f i _nodert_generated.obj
 0001:00016e90       ??$make_exception_ptr@PE$AAVException@Platform@@@std@@YA?AVexception_ptr@0@PE$AAVException@Platform@@@Z 0000000180017e90 f i _nodert_generated.obj
 0001:00016ef0       ??$?0V<lambda_db80035d952e9a216ce91aaae9489895>@@@?$AsyncOperationCompletedHandler@E@Foundation@Windows@@QE$AAA@V<lambda_db80035d952e9a216ce91aaae9489895>@@W4CallbackContext@Platform@@_N@Z 0000000180017ef0 f i _nodert_generated.obj
 0001:00016ff0       ??$?4V<lambda_fcddfbb588d6d178324b6e9cbb1f8253>@@XX@?$function@$$A6AXXZ@std@@QEAAAEAV01@$$QEAV<lambda_fcddfbb588d6d178324b6e9cbb1f8253>@@@Z 0000000180017ff0 f i _nodert_generated.obj
 0001:000170c0       ??_E?$_Ref_count_obj@U_ExceptionHolder@details@Concurrency@@@std@@UEAAPEAXI@Z 00000001800180c0 f i * CIL library *:* CIL module *
 0001:000170c0       ??_G?$_Ref_count_obj@U_ExceptionHolder@details@Concurrency@@@std@@UEAAPEAXI@Z 00000001800180c0 f i _nodert_generated.obj
 0001:000170f0       ??_E?$_Ref_count_obj@U?$_Task_impl@W4WiFiAccessStatus@WiFi@Devices@Windows@@@details@Concurrency@@@std@@UEAAPEAXI@Z 00000001800180f0 f i * CIL library *:* CIL module *
 0001:000170f0       ??_G?$_Ref_count_obj@U?$_Task_impl@PE$AAVWiFiConnectionResult@WiFi@Devices@Windows@@@details@Concurrency@@@std@@UEAAPEAXI@Z 00000001800180f0 f i _nodert_generated.obj
 0001:000170f0       ??_G?$_Ref_count_obj@U?$_Task_impl@PE$AAVWiFiAdapter@WiFi@Devices@Windows@@@details@Concurrency@@@std@@UEAAPEAXI@Z 00000001800180f0 f i _nodert_generated.obj
 0001:000170f0       ??_E?$_Ref_count_obj@U?$_Task_impl@PE$AAVWiFiAdapter@WiFi@Devices@Windows@@@details@Concurrency@@@std@@UEAAPEAXI@Z 00000001800180f0 f i * CIL library *:* CIL module *
 0001:000170f0       ??_G?$_Ref_count_obj@U?$_Task_impl@W4WiFiAccessStatus@WiFi@Devices@Windows@@@details@Concurrency@@@std@@UEAAPEAXI@Z 00000001800180f0 f i _nodert_generated.obj
 0001:000170f0       ??_E?$_Ref_count_obj@U?$_Task_impl@E@details@Concurrency@@@std@@UEAAPEAXI@Z 00000001800180f0 f i * CIL library *:* CIL module *
 0001:000170f0       ??_E?$_Ref_count_obj@U?$_Task_impl@PE$AAVWiFiConnectionResult@WiFi@Devices@Windows@@@details@Concurrency@@@std@@UEAAPEAXI@Z 00000001800180f0 f i * CIL library *:* CIL module *
 0001:000170f0       ??_G?$_Ref_count_obj@U?$_Task_impl@E@details@Concurrency@@@std@@UEAAPEAXI@Z 00000001800180f0 f i _nodert_generated.obj
 0001:00017120       ?Invoke@?$__abi_FunctorCapture@V<lambda_db80035d952e9a216ce91aaae9489895>@@XPE$AAU?$IAsyncOperation@E@Foundation@Windows@@W4AsyncStatus@34@@Details@Platform@@UEAAXPE$AAU?$IAsyncOperation@E@Foundation@Windows@@W4AsyncStatus@56@@Z 0000000180018120 f i _nodert_generated.obj
 0001:00017130       ??0?$__abi_FunctorCapture@V<lambda_db80035d952e9a216ce91aaae9489895>@@XPE$AAU?$IAsyncOperation@E@Foundation@Windows@@W4AsyncStatus@34@@Details@Platform@@QEAA@V<lambda_db80035d952e9a216ce91aaae9489895>@@@Z 0000000180018130 f i _nodert_generated.obj
 0001:000171d0       ?_Destroy@?$_Ref_count_del@V?$Persistent@VObject@v8@@V?$NonCopyablePersistentTraits@VObject@v8@@@2@@Nan@@V<lambda_c02fb238210f14e2fb5013cae9dd75ba>@@@std@@EEAAXXZ 00000001800181d0 f i _nodert_generated.obj
 0001:00017210       ?_Get_deleter@?$_Ref_count_del@V?$Persistent@VObject@v8@@V?$NonCopyablePersistentTraits@VObject@v8@@@2@@Nan@@V<lambda_c02fb238210f14e2fb5013cae9dd75ba>@@@std@@UEBAPEAXAEBVtype_info@@@Z 0000000180018210 f i _nodert_generated.obj
 0001:00017240       ?_GetTaskImplBase@?$_PPLTaskHandle@EU?$_ContinuationTaskHandle@W4WiFiAccessStatus@WiFi@Devices@Windows@@XV?$function@$$A6AXV?$task@W4WiFiAccessStatus@WiFi@Devices@Windows@@@Concurrency@@@Z@std@@U?$integral_constant@_N$00@6@U_TypeSelectorNoAsync@details@Concurrency@@@?$task@W4WiFiAccessStatus@WiFi@Devices@Windows@@@Concurrency@@U_ContinuationTaskHandleBase@details@3@@details@Concurrency@@UEBA?AV?$shared_ptr@U_Task_impl_base@details@Concurrency@@@std@@XZ 0000000180018240 f i _nodert_generated.obj
 0001:00017240       ?_GetTaskImplBase@?$_PPLTaskHandle@EU?$_ContinuationTaskHandle@PE$AAVWiFiAdapter@WiFi@Devices@Windows@@XV?$function@$$A6AXV?$task@PE$AAVWiFiAdapter@WiFi@Devices@Windows@@@Concurrency@@@Z@std@@U?$integral_constant@_N$00@6@U_TypeSelectorNoAsync@details@Concurrency@@@?$task@PE$AAVWiFiAdapter@WiFi@Devices@Windows@@@Concurrency@@U_ContinuationTaskHandleBase@details@3@@details@Concurrency@@UEBA?AV?$shared_ptr@U_Task_impl_base@details@Concurrency@@@std@@XZ 0000000180018240 f i _nodert_generated.obj
 0001:00017240       ?_GetTaskImplBase@?$_PPLTaskHandle@EU?$_ContinuationTaskHandle@PE$AAVWiFiConnectionResult@WiFi@Devices@Windows@@XV?$function@$$A6AXV?$task@PE$AAVWiFiConnectionResult@WiFi@Devices@Windows@@@Concurrency@@@Z@std@@U?$integral_constant@_N$00@6@U_TypeSelectorNoAsync@details@Concurrency@@@?$task@PE$AAVWiFiConnectionResult@WiFi@Devices@Windows@@@Concurrency@@U_ContinuationTaskHandleBase@details@3@@details@Concurrency@@UEBA?AV?$shared_ptr@U_Task_impl_base@details@Concurrency@@@std@@XZ 0000000180018240 f i _nodert_generated.obj
 0001:00017240       ?_GetTaskImplBase@?$_PPLTaskHandle@EU?$_ContinuationTaskHandle@PE$AAU?$IVectorView@PE$AAVWiFiAdapter@WiFi@Devices@Windows@@@Collections@Foundation@Windows@@XV?$function@$$A6AXV?$task@PE$AAU?$IVectorView@PE$AAVWiFiAdapter@WiFi@Devices@Windows@@@Collections@Foundation@Windows@@@Concurrency@@@Z@std@@U?$integral_constant@_N$00@6@U_TypeSelectorNoAsync@details@Concurrency@@@?$task@PE$AAU?$IVectorView@PE$AAVWiFiAdapter@WiFi@Devices@Windows@@@Collections@Foundation@Windows@@@Concurrency@@U_ContinuationTaskHandleBase@details@3@@details@Concurrency@@UEBA?AV?$shared_ptr@U_Task_impl_base@details@Concurrency@@@std@@XZ 0000000180018240 f i _nodert_generated.obj
 0001:00017240       ?_GetTaskImplBase@?$_PPLTaskHandle@EU?$_ContinuationTaskHandle@XXV?$function@$$A6AXV?$task@X@Concurrency@@@Z@std@@U?$integral_constant@_N$00@2@U_TypeSelectorNoAsync@details@Concurrency@@@?$task@E@Concurrency@@U_ContinuationTaskHandleBase@details@3@@details@Concurrency@@UEBA?AV?$shared_ptr@U_Task_impl_base@details@Concurrency@@@std@@XZ 0000000180018240 f i _nodert_generated.obj
 0001:00017280       ?invoke@?$_PPLTaskHandle@EU?$_ContinuationTaskHandle@W4WiFiAccessStatus@WiFi@Devices@Windows@@XV?$function@$$A6AXV?$task@W4WiFiAccessStatus@WiFi@Devices@Windows@@@Concurrency@@@Z@std@@U?$integral_constant@_N$00@6@U_TypeSelectorNoAsync@details@Concurrency@@@?$task@W4WiFiAccessStatus@WiFi@Devices@Windows@@@Concurrency@@U_ContinuationTaskHandleBase@details@3@@details@Concurrency@@UEBAXXZ 0000000180018280 f i _nodert_generated.obj
 0001:00017370       ??1?$_PPLTaskHandle@EU?$_ContinuationTaskHandle@W4WiFiAccessStatus@WiFi@Devices@Windows@@XV?$function@$$A6AXV?$task@W4WiFiAccessStatus@WiFi@Devices@Windows@@@Concurrency@@@Z@std@@U?$integral_constant@_N$00@6@U_TypeSelectorNoAsync@details@Concurrency@@@?$task@W4WiFiAccessStatus@WiFi@Devices@Windows@@@Concurrency@@U_ContinuationTaskHandleBase@details@3@@details@Concurrency@@UEAA@XZ 0000000180018370 f i _nodert_generated.obj
 0001:00017410       ??1?$_ContinuationTaskHandle@W4WiFiAccessStatus@WiFi@Devices@Windows@@XV?$function@$$A6AXV?$task@W4WiFiAccessStatus@WiFi@Devices@Windows@@@Concurrency@@@Z@std@@U?$integral_constant@_N$00@6@U_TypeSelectorNoAsync@details@Concurrency@@@?$task@W4WiFiAccessStatus@WiFi@Devices@Windows@@@Concurrency@@UEAA@XZ 0000000180018410 f i _nodert_generated.obj
 0001:000174d0       ??0?$_ContinuationTaskHandle@W4WiFiAccessStatus@WiFi@Devices@Windows@@XV?$function@$$A6AXV?$task@W4WiFiAccessStatus@WiFi@Devices@Windows@@@Concurrency@@@Z@std@@U?$integral_constant@_N$00@6@U_TypeSelectorNoAsync@details@Concurrency@@@?$task@W4WiFiAccessStatus@WiFi@Devices@Windows@@@Concurrency@@QEAA@AEBV?$shared_ptr@U?$_Task_impl@W4WiFiAccessStatus@WiFi@Devices@Windows@@@details@Concurrency@@@std@@AEBV?$shared_ptr@U?$_Task_impl@E@details@Concurrency@@@4@AEBV?$function@$$A6AXV?$task@W4WiFiAccessStatus@WiFi@Devices@Windows@@@Concurrency@@@Z@4@AEBVtask_continuation_context@2@W4_TaskInliningMode@details@2@@Z 00000001800184d0 f i _nodert_generated.obj
 0001:000175f0       ?invoke@?$_PPLTaskHandle@EU?$_ContinuationTaskHandle@PE$AAVWiFiAdapter@WiFi@Devices@Windows@@XV?$function@$$A6AXV?$task@PE$AAVWiFiAdapter@WiFi@Devices@Windows@@@Concurrency@@@Z@std@@U?$integral_constant@_N$00@6@U_TypeSelectorNoAsync@details@Concurrency@@@?$task@PE$AAVWiFiAdapter@WiFi@Devices@Windows@@@Concurrency@@U_ContinuationTaskHandleBase@details@3@@details@Concurrency@@UEBAXXZ 00000001800185f0 f i _nodert_generated.obj
 0001:000176e0       ??1?$_PPLTaskHandle@EU?$_ContinuationTaskHandle@PE$AAVWiFiAdapter@WiFi@Devices@Windows@@XV?$function@$$A6AXV?$task@PE$AAVWiFiAdapter@WiFi@Devices@Windows@@@Concurrency@@@Z@std@@U?$integral_constant@_N$00@6@U_TypeSelectorNoAsync@details@Concurrency@@@?$task@PE$AAVWiFiAdapter@WiFi@Devices@Windows@@@Concurrency@@U_ContinuationTaskHandleBase@details@3@@details@Concurrency@@UEAA@XZ 00000001800186e0 f i _nodert_generated.obj
 0001:00017780       ??1?$_ContinuationTaskHandle@PE$AAVWiFiAdapter@WiFi@Devices@Windows@@XV?$function@$$A6AXV?$task@PE$AAVWiFiAdapter@WiFi@Devices@Windows@@@Concurrency@@@Z@std@@U?$integral_constant@_N$00@6@U_TypeSelectorNoAsync@details@Concurrency@@@?$task@PE$AAVWiFiAdapter@WiFi@Devices@Windows@@@Concurrency@@UEAA@XZ 0000000180018780 f i _nodert_generated.obj
 0001:00017840       ??0?$_ContinuationTaskHandle@PE$AAVWiFiAdapter@WiFi@Devices@Windows@@XV?$function@$$A6AXV?$task@PE$AAVWiFiAdapter@WiFi@Devices@Windows@@@Concurrency@@@Z@std@@U?$integral_constant@_N$00@6@U_TypeSelectorNoAsync@details@Concurrency@@@?$task@PE$AAVWiFiAdapter@WiFi@Devices@Windows@@@Concurrency@@QEAA@AEBV?$shared_ptr@U?$_Task_impl@PE$AAVWiFiAdapter@WiFi@Devices@Windows@@@details@Concurrency@@@std@@AEBV?$shared_ptr@U?$_Task_impl@E@details@Concurrency@@@4@AEBV?$function@$$A6AXV?$task@PE$AAVWiFiAdapter@WiFi@Devices@Windows@@@Concurrency@@@Z@4@AEBVtask_continuation_context@2@W4_TaskInliningMode@details@2@@Z 0000000180018840 f i _nodert_generated.obj
 0001:00017960       ?invoke@?$_PPLTaskHandle@EU?$_ContinuationTaskHandle@PE$AAU?$IVectorView@PE$AAVWiFiAdapter@WiFi@Devices@Windows@@@Collections@Foundation@Windows@@XV?$function@$$A6AXV?$task@PE$AAU?$IVectorView@PE$AAVWiFiAdapter@WiFi@Devices@Windows@@@Collections@Foundation@Windows@@@Concurrency@@@Z@std@@U?$integral_constant@_N$00@6@U_TypeSelectorNoAsync@details@Concurrency@@@?$task@PE$AAU?$IVectorView@PE$AAVWiFiAdapter@WiFi@Devices@Windows@@@Collections@Foundation@Windows@@@Concurrency@@U_ContinuationTaskHandleBase@details@3@@details@Concurrency@@UEBAXXZ 0000000180018960 f i _nodert_generated.obj
 0001:00017a50       ??1?$_PPLTaskHandle@EU?$_ContinuationTaskHandle@PE$AAU?$IVectorView@PE$AAVWiFiAdapter@WiFi@Devices@Windows@@@Collections@Foundation@Windows@@XV?$function@$$A6AXV?$task@PE$AAU?$IVectorView@PE$AAVWiFiAdapter@WiFi@Devices@Windows@@@Collections@Foundation@Windows@@@Concurrency@@@Z@std@@U?$integral_constant@_N$00@6@U_TypeSelectorNoAsync@details@Concurrency@@@?$task@PE$AAU?$IVectorView@PE$AAVWiFiAdapter@WiFi@Devices@Windows@@@Collections@Foundation@Windows@@@Concurrency@@U_ContinuationTaskHandleBase@details@3@@details@Concurrency@@UEAA@XZ 0000000180018a50 f i _nodert_generated.obj
 0001:00017af0       ??1?$_ContinuationTaskHandle@PE$AAU?$IVectorView@PE$AAVWiFiAdapter@WiFi@Devices@Windows@@@Collections@Foundation@Windows@@XV?$function@$$A6AXV?$task@PE$AAU?$IVectorView@PE$AAVWiFiAdapter@WiFi@Devices@Windows@@@Collections@Foundation@Windows@@@Concurrency@@@Z@std@@U?$integral_constant@_N$00@6@U_TypeSelectorNoAsync@details@Concurrency@@@?$task@PE$AAU?$IVectorView@PE$AAVWiFiAdapter@WiFi@Devices@Windows@@@Collections@Foundation@Windows@@@Concurrency@@UEAA@XZ 0000000180018af0 f i _nodert_generated.obj
 0001:00017bb0       ??0?$_ContinuationTaskHandle@PE$AAU?$IVectorView@PE$AAVWiFiAdapter@WiFi@Devices@Windows@@@Collections@Foundation@Windows@@XV?$function@$$A6AXV?$task@PE$AAU?$IVectorView@PE$AAVWiFiAdapter@WiFi@Devices@Windows@@@Collections@Foundation@Windows@@@Concurrency@@@Z@std@@U?$integral_constant@_N$00@6@U_TypeSelectorNoAsync@details@Concurrency@@@?$task@PE$AAU?$IVectorView@PE$AAVWiFiAdapter@WiFi@Devices@Windows@@@Collections@Foundation@Windows@@@Concurrency@@QEAA@AEBV?$shared_ptr@U?$_Task_impl@PE$AAU?$IVectorView@PE$AAVWiFiAdapter@WiFi@Devices@Windows@@@Collections@Foundation@Windows@@@details@Concurrency@@@std@@AEBV?$shared_ptr@U?$_Task_impl@E@details@Concurrency@@@4@AEBV?$function@$$A6AXV?$task@PE$AAU?$IVectorView@PE$AAVWiFiAdapter@WiFi@Devices@Windows@@@Collections@Foundation@Windows@@@Concurrency@@@Z@4@AEBVtask_continuation_context@2@W4_TaskInliningMode@details@2@@Z 0000000180018bb0 f i _nodert_generated.obj
 0001:00017cd0       ?invoke@?$_PPLTaskHandle@EU?$_ContinuationTaskHandle@PE$AAVWiFiConnectionResult@WiFi@Devices@Windows@@XV?$function@$$A6AXV?$task@PE$AAVWiFiConnectionResult@WiFi@Devices@Windows@@@Concurrency@@@Z@std@@U?$integral_constant@_N$00@6@U_TypeSelectorNoAsync@details@Concurrency@@@?$task@PE$AAVWiFiConnectionResult@WiFi@Devices@Windows@@@Concurrency@@U_ContinuationTaskHandleBase@details@3@@details@Concurrency@@UEBAXXZ 0000000180018cd0 f i _nodert_generated.obj
 0001:00017dc0       ??1?$_PPLTaskHandle@EU?$_ContinuationTaskHandle@PE$AAVWiFiConnectionResult@WiFi@Devices@Windows@@XV?$function@$$A6AXV?$task@PE$AAVWiFiConnectionResult@WiFi@Devices@Windows@@@Concurrency@@@Z@std@@U?$integral_constant@_N$00@6@U_TypeSelectorNoAsync@details@Concurrency@@@?$task@PE$AAVWiFiConnectionResult@WiFi@Devices@Windows@@@Concurrency@@U_ContinuationTaskHandleBase@details@3@@details@Concurrency@@UEAA@XZ 0000000180018dc0 f i _nodert_generated.obj
 0001:00017e60       ??1?$_ContinuationTaskHandle@PE$AAVWiFiConnectionResult@WiFi@Devices@Windows@@XV?$function@$$A6AXV?$task@PE$AAVWiFiConnectionResult@WiFi@Devices@Windows@@@Concurrency@@@Z@std@@U?$integral_constant@_N$00@6@U_TypeSelectorNoAsync@details@Concurrency@@@?$task@PE$AAVWiFiConnectionResult@WiFi@Devices@Windows@@@Concurrency@@UEAA@XZ 0000000180018e60 f i _nodert_generated.obj
 0001:00017f20       ??0?$_ContinuationTaskHandle@PE$AAVWiFiConnectionResult@WiFi@Devices@Windows@@XV?$function@$$A6AXV?$task@PE$AAVWiFiConnectionResult@WiFi@Devices@Windows@@@Concurrency@@@Z@std@@U?$integral_constant@_N$00@6@U_TypeSelectorNoAsync@details@Concurrency@@@?$task@PE$AAVWiFiConnectionResult@WiFi@Devices@Windows@@@Concurrency@@QEAA@AEBV?$shared_ptr@U?$_Task_impl@PE$AAVWiFiConnectionResult@WiFi@Devices@Windows@@@details@Concurrency@@@std@@AEBV?$shared_ptr@U?$_Task_impl@E@details@Concurrency@@@4@AEBV?$function@$$A6AXV?$task@PE$AAVWiFiConnectionResult@WiFi@Devices@Windows@@@Concurrency@@@Z@4@AEBVtask_continuation_context@2@W4_TaskInliningMode@details@2@@Z 0000000180018f20 f i _nodert_generated.obj
 0001:00018040       ?invoke@?$_PPLTaskHandle@EU?$_ContinuationTaskHandle@XXV?$function@$$A6AXV?$task@X@Concurrency@@@Z@std@@U?$integral_constant@_N$00@2@U_TypeSelectorNoAsync@details@Concurrency@@@?$task@E@Concurrency@@U_ContinuationTaskHandleBase@details@3@@details@Concurrency@@UEBAXXZ 0000000180019040 f i _nodert_generated.obj
 0001:00018130       ??1?$_PPLTaskHandle@EU?$_ContinuationTaskHandle@XXV?$function@$$A6AXV?$task@X@Concurrency@@@Z@std@@U?$integral_constant@_N$00@2@U_TypeSelectorNoAsync@details@Concurrency@@@?$task@E@Concurrency@@U_ContinuationTaskHandleBase@details@3@@details@Concurrency@@UEAA@XZ 0000000180019130 f i _nodert_generated.obj
 0001:000181d0       ??1?$_ContinuationTaskHandle@XXV?$function@$$A6AXV?$task@X@Concurrency@@@Z@std@@U?$integral_constant@_N$00@2@U_TypeSelectorNoAsync@details@Concurrency@@@?$task@E@Concurrency@@UEAA@XZ 00000001800191d0 f i _nodert_generated.obj
 0001:00018290       ??0?$_ContinuationTaskHandle@XXV?$function@$$A6AXV?$task@X@Concurrency@@@Z@std@@U?$integral_constant@_N$00@2@U_TypeSelectorNoAsync@details@Concurrency@@@?$task@E@Concurrency@@QEAA@AEBV?$shared_ptr@U?$_Task_impl@E@details@Concurrency@@@std@@0AEBV?$function@$$A6AXV?$task@X@Concurrency@@@Z@4@AEBVtask_continuation_context@2@W4_TaskInliningMode@details@2@@Z 0000000180019290 f i _nodert_generated.obj
 0001:000183b0       ?_CreateImpl@?$task@W4WiFiAccessStatus@WiFi@Devices@Windows@@@Concurrency@@QEAAXPEAV_CancellationTokenState@details@2@Uscheduler_ptr@2@@Z 00000001800193b0 f i _nodert_generated.obj
 0001:000184f0       ?_CreateImpl@?$task@PE$AAVWiFiAdapter@WiFi@Devices@Windows@@@Concurrency@@QEAAXPEAV_CancellationTokenState@details@2@Uscheduler_ptr@2@@Z 00000001800194f0 f i _nodert_generated.obj
 0001:00018630       ?_CreateImpl@?$task@PE$AAU?$IVectorView@PE$AAVWiFiAdapter@WiFi@Devices@Windows@@@Collections@Foundation@Windows@@@Concurrency@@QEAAXPEAV_CancellationTokenState@details@2@Uscheduler_ptr@2@@Z 0000000180019630 f i _nodert_generated.obj
 0001:00018770       ?_CreateImpl@?$task@PE$AAVWiFiConnectionResult@WiFi@Devices@Windows@@@Concurrency@@QEAAXPEAV_CancellationTokenState@details@2@Uscheduler_ptr@2@@Z 0000000180019770 f i _nodert_generated.obj
 0001:000188b0       ??0?$_Task_impl@E@details@Concurrency@@QEAA@PEAV_CancellationTokenState@12@Uscheduler_ptr@2@@Z 00000001800198b0 f i _nodert_generated.obj
 0001:00018960       ??_E?$_Ref_count_del@V?$Persistent@VObject@v8@@V?$NonCopyablePersistentTraits@VObject@v8@@@2@@Nan@@V<lambda_c02fb238210f14e2fb5013cae9dd75ba>@@@std@@UEAAPEAXI@Z 0000000180019960 f i * CIL library *:* CIL module *
 0001:00018960       ??_G?$_Ref_count_del@V?$Persistent@VObject@v8@@V?$NonCopyablePersistentTraits@VObject@v8@@@2@@Nan@@V<lambda_c02fb238210f14e2fb5013cae9dd75ba>@@@std@@UEAAPEAXI@Z 0000000180019960 f i _nodert_generated.obj
 0001:00018990       ??_E?$_PPLTaskHandle@EU?$_ContinuationTaskHandle@W4WiFiAccessStatus@WiFi@Devices@Windows@@XV?$function@$$A6AXV?$task@W4WiFiAccessStatus@WiFi@Devices@Windows@@@Concurrency@@@Z@std@@U?$integral_constant@_N$00@6@U_TypeSelectorNoAsync@details@Concurrency@@@?$task@W4WiFiAccessStatus@WiFi@Devices@Windows@@@Concurrency@@U_ContinuationTaskHandleBase@details@3@@details@Concurrency@@UEAAPEAXI@Z 0000000180019990 f i * CIL library *:* CIL module *
 0001:00018990       ??_G?$_PPLTaskHandle@EU?$_ContinuationTaskHandle@W4WiFiAccessStatus@WiFi@Devices@Windows@@XV?$function@$$A6AXV?$task@W4WiFiAccessStatus@WiFi@Devices@Windows@@@Concurrency@@@Z@std@@U?$integral_constant@_N$00@6@U_TypeSelectorNoAsync@details@Concurrency@@@?$task@W4WiFiAccessStatus@WiFi@Devices@Windows@@@Concurrency@@U_ContinuationTaskHandleBase@details@3@@details@Concurrency@@UEAAPEAXI@Z 0000000180019990 f i _nodert_generated.obj
 0001:000189d0       ??_G?$_ContinuationTaskHandle@W4WiFiAccessStatus@WiFi@Devices@Windows@@XV?$function@$$A6AXV?$task@W4WiFiAccessStatus@WiFi@Devices@Windows@@@Concurrency@@@Z@std@@U?$integral_constant@_N$00@6@U_TypeSelectorNoAsync@details@Concurrency@@@?$task@W4WiFiAccessStatus@WiFi@Devices@Windows@@@Concurrency@@UEAAPEAXI@Z 00000001800199d0 f i _nodert_generated.obj
 0001:000189d0       ??_E?$_ContinuationTaskHandle@W4WiFiAccessStatus@WiFi@Devices@Windows@@XV?$function@$$A6AXV?$task@W4WiFiAccessStatus@WiFi@Devices@Windows@@@Concurrency@@@Z@std@@U?$integral_constant@_N$00@6@U_TypeSelectorNoAsync@details@Concurrency@@@?$task@W4WiFiAccessStatus@WiFi@Devices@Windows@@@Concurrency@@UEAAPEAXI@Z 00000001800199d0 f i * CIL library *:* CIL module *
 0001:00018a10       ??_E?$_PPLTaskHandle@EU?$_ContinuationTaskHandle@PE$AAVWiFiAdapter@WiFi@Devices@Windows@@XV?$function@$$A6AXV?$task@PE$AAVWiFiAdapter@WiFi@Devices@Windows@@@Concurrency@@@Z@std@@U?$integral_constant@_N$00@6@U_TypeSelectorNoAsync@details@Concurrency@@@?$task@PE$AAVWiFiAdapter@WiFi@Devices@Windows@@@Concurrency@@U_ContinuationTaskHandleBase@details@3@@details@Concurrency@@UEAAPEAXI@Z 0000000180019a10 f i * CIL library *:* CIL module *
 0001:00018a10       ??_G?$_PPLTaskHandle@EU?$_ContinuationTaskHandle@PE$AAVWiFiAdapter@WiFi@Devices@Windows@@XV?$function@$$A6AXV?$task@PE$AAVWiFiAdapter@WiFi@Devices@Windows@@@Concurrency@@@Z@std@@U?$integral_constant@_N$00@6@U_TypeSelectorNoAsync@details@Concurrency@@@?$task@PE$AAVWiFiAdapter@WiFi@Devices@Windows@@@Concurrency@@U_ContinuationTaskHandleBase@details@3@@details@Concurrency@@UEAAPEAXI@Z 0000000180019a10 f i _nodert_generated.obj
 0001:00018a50       ??_G?$_ContinuationTaskHandle@PE$AAVWiFiAdapter@WiFi@Devices@Windows@@XV?$function@$$A6AXV?$task@PE$AAVWiFiAdapter@WiFi@Devices@Windows@@@Concurrency@@@Z@std@@U?$integral_constant@_N$00@6@U_TypeSelectorNoAsync@details@Concurrency@@@?$task@PE$AAVWiFiAdapter@WiFi@Devices@Windows@@@Concurrency@@UEAAPEAXI@Z 0000000180019a50 f i _nodert_generated.obj
 0001:00018a50       ??_E?$_ContinuationTaskHandle@PE$AAVWiFiAdapter@WiFi@Devices@Windows@@XV?$function@$$A6AXV?$task@PE$AAVWiFiAdapter@WiFi@Devices@Windows@@@Concurrency@@@Z@std@@U?$integral_constant@_N$00@6@U_TypeSelectorNoAsync@details@Concurrency@@@?$task@PE$AAVWiFiAdapter@WiFi@Devices@Windows@@@Concurrency@@UEAAPEAXI@Z 0000000180019a50 f i * CIL library *:* CIL module *
 0001:00018a90       ??_E?$_PPLTaskHandle@EU?$_ContinuationTaskHandle@PE$AAU?$IVectorView@PE$AAVWiFiAdapter@WiFi@Devices@Windows@@@Collections@Foundation@Windows@@XV?$function@$$A6AXV?$task@PE$AAU?$IVectorView@PE$AAVWiFiAdapter@WiFi@Devices@Windows@@@Collections@Foundation@Windows@@@Concurrency@@@Z@std@@U?$integral_constant@_N$00@6@U_TypeSelectorNoAsync@details@Concurrency@@@?$task@PE$AAU?$IVectorView@PE$AAVWiFiAdapter@WiFi@Devices@Windows@@@Collections@Foundation@Windows@@@Concurrency@@U_ContinuationTaskHandleBase@details@3@@details@Concurrency@@UEAAPEAXI@Z 0000000180019a90 f i * CIL library *:* CIL module *
 0001:00018a90       ??_G?$_PPLTaskHandle@EU?$_ContinuationTaskHandle@PE$AAU?$IVectorView@PE$AAVWiFiAdapter@WiFi@Devices@Windows@@@Collections@Foundation@Windows@@XV?$function@$$A6AXV?$task@PE$AAU?$IVectorView@PE$AAVWiFiAdapter@WiFi@Devices@Windows@@@Collections@Foundation@Windows@@@Concurrency@@@Z@std@@U?$integral_constant@_N$00@6@U_TypeSelectorNoAsync@details@Concurrency@@@?$task@PE$AAU?$IVectorView@PE$AAVWiFiAdapter@WiFi@Devices@Windows@@@Collections@Foundation@Windows@@@Concurrency@@U_ContinuationTaskHandleBase@details@3@@details@Concurrency@@UEAAPEAXI@Z 0000000180019a90 f i _nodert_generated.obj
 0001:00018ad0       ??_E?$_ContinuationTaskHandle@PE$AAU?$IVectorView@PE$AAVWiFiAdapter@WiFi@Devices@Windows@@@Collections@Foundation@Windows@@XV?$function@$$A6AXV?$task@PE$AAU?$IVectorView@PE$AAVWiFiAdapter@WiFi@Devices@Windows@@@Collections@Foundation@Windows@@@Concurrency@@@Z@std@@U?$integral_constant@_N$00@6@U_TypeSelectorNoAsync@details@Concurrency@@@?$task@PE$AAU?$IVectorView@PE$AAVWiFiAdapter@WiFi@Devices@Windows@@@Collections@Foundation@Windows@@@Concurrency@@UEAAPEAXI@Z 0000000180019ad0 f i * CIL library *:* CIL module *
 0001:00018ad0       ??_G?$_ContinuationTaskHandle@PE$AAU?$IVectorView@PE$AAVWiFiAdapter@WiFi@Devices@Windows@@@Collections@Foundation@Windows@@XV?$function@$$A6AXV?$task@PE$AAU?$IVectorView@PE$AAVWiFiAdapter@WiFi@Devices@Windows@@@Collections@Foundation@Windows@@@Concurrency@@@Z@std@@U?$integral_constant@_N$00@6@U_TypeSelectorNoAsync@details@Concurrency@@@?$task@PE$AAU?$IVectorView@PE$AAVWiFiAdapter@WiFi@Devices@Windows@@@Collections@Foundation@Windows@@@Concurrency@@UEAAPEAXI@Z 0000000180019ad0 f i _nodert_generated.obj
 0001:00018b10       ??_E?$_PPLTaskHandle@EU?$_ContinuationTaskHandle@PE$AAVWiFiConnectionResult@WiFi@Devices@Windows@@XV?$function@$$A6AXV?$task@PE$AAVWiFiConnectionResult@WiFi@Devices@Windows@@@Concurrency@@@Z@std@@U?$integral_constant@_N$00@6@U_TypeSelectorNoAsync@details@Concurrency@@@?$task@PE$AAVWiFiConnectionResult@WiFi@Devices@Windows@@@Concurrency@@U_ContinuationTaskHandleBase@details@3@@details@Concurrency@@UEAAPEAXI@Z 0000000180019b10 f i * CIL library *:* CIL module *
 0001:00018b10       ??_G?$_PPLTaskHandle@EU?$_ContinuationTaskHandle@PE$AAVWiFiConnectionResult@WiFi@Devices@Windows@@XV?$function@$$A6AXV?$task@PE$AAVWiFiConnectionResult@WiFi@Devices@Windows@@@Concurrency@@@Z@std@@U?$integral_constant@_N$00@6@U_TypeSelectorNoAsync@details@Concurrency@@@?$task@PE$AAVWiFiConnectionResult@WiFi@Devices@Windows@@@Concurrency@@U_ContinuationTaskHandleBase@details@3@@details@Concurrency@@UEAAPEAXI@Z 0000000180019b10 f i _nodert_generated.obj
 0001:00018b50       ??_G?$_ContinuationTaskHandle@PE$AAVWiFiConnectionResult@WiFi@Devices@Windows@@XV?$function@$$A6AXV?$task@PE$AAVWiFiConnectionResult@WiFi@Devices@Windows@@@Concurrency@@@Z@std@@U?$integral_constant@_N$00@6@U_TypeSelectorNoAsync@details@Concurrency@@@?$task@PE$AAVWiFiConnectionResult@WiFi@Devices@Windows@@@Concurrency@@UEAAPEAXI@Z 0000000180019b50 f i _nodert_generated.obj
 0001:00018b50       ??_E?$_ContinuationTaskHandle@PE$AAVWiFiConnectionResult@WiFi@Devices@Windows@@XV?$function@$$A6AXV?$task@PE$AAVWiFiConnectionResult@WiFi@Devices@Windows@@@Concurrency@@@Z@std@@U?$integral_constant@_N$00@6@U_TypeSelectorNoAsync@details@Concurrency@@@?$task@PE$AAVWiFiConnectionResult@WiFi@Devices@Windows@@@Concurrency@@UEAAPEAXI@Z 0000000180019b50 f i * CIL library *:* CIL module *
 0001:00018b90       ??_G?$_PPLTaskHandle@EU?$_ContinuationTaskHandle@XXV?$function@$$A6AXV?$task@X@Concurrency@@@Z@std@@U?$integral_constant@_N$00@2@U_TypeSelectorNoAsync@details@Concurrency@@@?$task@E@Concurrency@@U_ContinuationTaskHandleBase@details@3@@details@Concurrency@@UEAAPEAXI@Z 0000000180019b90 f i _nodert_generated.obj
 0001:00018b90       ??_E?$_PPLTaskHandle@EU?$_ContinuationTaskHandle@XXV?$function@$$A6AXV?$task@X@Concurrency@@@Z@std@@U?$integral_constant@_N$00@2@U_TypeSelectorNoAsync@details@Concurrency@@@?$task@E@Concurrency@@U_ContinuationTaskHandleBase@details@3@@details@Concurrency@@UEAAPEAXI@Z 0000000180019b90 f i * CIL library *:* CIL module *
 0001:00018bd0       ??_E?$_ContinuationTaskHandle@XXV?$function@$$A6AXV?$task@X@Concurrency@@@Z@std@@U?$integral_constant@_N$00@2@U_TypeSelectorNoAsync@details@Concurrency@@@?$task@E@Concurrency@@UEAAPEAXI@Z 0000000180019bd0 f i * CIL library *:* CIL module *
 0001:00018bd0       ??_G?$_ContinuationTaskHandle@XXV?$function@$$A6AXV?$task@X@Concurrency@@@Z@std@@U?$integral_constant@_N$00@2@U_TypeSelectorNoAsync@details@Concurrency@@@?$task@E@Concurrency@@UEAAPEAXI@Z 0000000180019bd0 f i _nodert_generated.obj
 0001:00018c10       ??0?$_PPLTaskHandle@EU?$_ContinuationTaskHandle@W4WiFiAccessStatus@WiFi@Devices@Windows@@XV?$function@$$A6AXV?$task@W4WiFiAccessStatus@WiFi@Devices@Windows@@@Concurrency@@@Z@std@@U?$integral_constant@_N$00@6@U_TypeSelectorNoAsync@details@Concurrency@@@?$task@W4WiFiAccessStatus@WiFi@Devices@Windows@@@Concurrency@@U_ContinuationTaskHandleBase@details@3@@details@Concurrency@@QEAA@AEBV?$shared_ptr@U?$_Task_impl@E@details@Concurrency@@@std@@@Z 0000000180019c10 f i _nodert_generated.obj
 0001:00018ca0       ??0?$_PPLTaskHandle@EU?$_ContinuationTaskHandle@PE$AAVWiFiAdapter@WiFi@Devices@Windows@@XV?$function@$$A6AXV?$task@PE$AAVWiFiAdapter@WiFi@Devices@Windows@@@Concurrency@@@Z@std@@U?$integral_constant@_N$00@6@U_TypeSelectorNoAsync@details@Concurrency@@@?$task@PE$AAVWiFiAdapter@WiFi@Devices@Windows@@@Concurrency@@U_ContinuationTaskHandleBase@details@3@@details@Concurrency@@QEAA@AEBV?$shared_ptr@U?$_Task_impl@E@details@Concurrency@@@std@@@Z 0000000180019ca0 f i _nodert_generated.obj
 0001:00018d30       ??0?$_PPLTaskHandle@EU?$_ContinuationTaskHandle@PE$AAU?$IVectorView@PE$AAVWiFiAdapter@WiFi@Devices@Windows@@@Collections@Foundation@Windows@@XV?$function@$$A6AXV?$task@PE$AAU?$IVectorView@PE$AAVWiFiAdapter@WiFi@Devices@Windows@@@Collections@Foundation@Windows@@@Concurrency@@@Z@std@@U?$integral_constant@_N$00@6@U_TypeSelectorNoAsync@details@Concurrency@@@?$task@PE$AAU?$IVectorView@PE$AAVWiFiAdapter@WiFi@Devices@Windows@@@Collections@Foundation@Windows@@@Concurrency@@U_ContinuationTaskHandleBase@details@3@@details@Concurrency@@QEAA@AEBV?$shared_ptr@U?$_Task_impl@E@details@Concurrency@@@std@@@Z 0000000180019d30 f i _nodert_generated.obj
 0001:00018dc0       ??0?$_PPLTaskHandle@EU?$_ContinuationTaskHandle@PE$AAVWiFiConnectionResult@WiFi@Devices@Windows@@XV?$function@$$A6AXV?$task@PE$AAVWiFiConnectionResult@WiFi@Devices@Windows@@@Concurrency@@@Z@std@@U?$integral_constant@_N$00@6@U_TypeSelectorNoAsync@details@Concurrency@@@?$task@PE$AAVWiFiConnectionResult@WiFi@Devices@Windows@@@Concurrency@@U_ContinuationTaskHandleBase@details@3@@details@Concurrency@@QEAA@AEBV?$shared_ptr@U?$_Task_impl@E@details@Concurrency@@@std@@@Z 0000000180019dc0 f i _nodert_generated.obj
 0001:00018e50       ??0?$_PPLTaskHandle@EU?$_ContinuationTaskHandle@XXV?$function@$$A6AXV?$task@X@Concurrency@@@Z@std@@U?$integral_constant@_N$00@2@U_TypeSelectorNoAsync@details@Concurrency@@@?$task@E@Concurrency@@U_ContinuationTaskHandleBase@details@3@@details@Concurrency@@QEAA@AEBV?$shared_ptr@U?$_Task_impl@E@details@Concurrency@@@std@@@Z 0000000180019e50 f i _nodert_generated.obj
 0001:00018ee0       ?_Make@?$_Task_ptr@W4WiFiAccessStatus@WiFi@Devices@Windows@@@details@Concurrency@@SA?AV?$shared_ptr@U?$_Task_impl@W4WiFiAccessStatus@WiFi@Devices@Windows@@@details@Concurrency@@@std@@PEAV_CancellationTokenState@23@Uscheduler_ptr@3@@Z 0000000180019ee0 f i _nodert_generated.obj
 0001:00018f70       ?_Make@?$_Task_ptr@PE$AAVWiFiAdapter@WiFi@Devices@Windows@@@details@Concurrency@@SA?AV?$shared_ptr@U?$_Task_impl@PE$AAVWiFiAdapter@WiFi@Devices@Windows@@@details@Concurrency@@@std@@PEAV_CancellationTokenState@23@Uscheduler_ptr@3@@Z 0000000180019f70 f i _nodert_generated.obj
 0001:00019000       ?_Make@?$_Task_ptr@PE$AAU?$IVectorView@PE$AAVWiFiAdapter@WiFi@Devices@Windows@@@Collections@Foundation@Windows@@@details@Concurrency@@SA?AV?$shared_ptr@U?$_Task_impl@PE$AAU?$IVectorView@PE$AAVWiFiAdapter@WiFi@Devices@Windows@@@Collections@Foundation@Windows@@@details@Concurrency@@@std@@PEAV_CancellationTokenState@23@Uscheduler_ptr@3@@Z 000000018001a000 f i _nodert_generated.obj
 0001:00019090       ?_Make@?$_Task_ptr@PE$AAVWiFiConnectionResult@WiFi@Devices@Windows@@@details@Concurrency@@SA?AV?$shared_ptr@U?$_Task_impl@PE$AAVWiFiConnectionResult@WiFi@Devices@Windows@@@details@Concurrency@@@std@@PEAV_CancellationTokenState@23@Uscheduler_ptr@3@@Z 000000018001a090 f i _nodert_generated.obj
 0001:00019120       ?_Continue@?$_ContinuationTaskHandle@W4WiFiAccessStatus@WiFi@Devices@Windows@@XV?$function@$$A6AXV?$task@W4WiFiAccessStatus@WiFi@Devices@Windows@@@Concurrency@@@Z@std@@U?$integral_constant@_N$00@6@U_TypeSelectorNoAsync@details@Concurrency@@@?$task@W4WiFiAccessStatus@WiFi@Devices@Windows@@@Concurrency@@QEBAXU?$integral_constant@_N$00@std@@U_TypeSelectorNoAsync@details@3@@Z 000000018001a120 f i _nodert_generated.obj
 0001:00019280       ?_Continue@?$_ContinuationTaskHandle@PE$AAVWiFiAdapter@WiFi@Devices@Windows@@XV?$function@$$A6AXV?$task@PE$AAVWiFiAdapter@WiFi@Devices@Windows@@@Concurrency@@@Z@std@@U?$integral_constant@_N$00@6@U_TypeSelectorNoAsync@details@Concurrency@@@?$task@PE$AAVWiFiAdapter@WiFi@Devices@Windows@@@Concurrency@@QEBAXU?$integral_constant@_N$00@std@@U_TypeSelectorNoAsync@details@3@@Z 000000018001a280 f i _nodert_generated.obj
 0001:000193e0       ?_Continue@?$_ContinuationTaskHandle@PE$AAU?$IVectorView@PE$AAVWiFiAdapter@WiFi@Devices@Windows@@@Collections@Foundation@Windows@@XV?$function@$$A6AXV?$task@PE$AAU?$IVectorView@PE$AAVWiFiAdapter@WiFi@Devices@Windows@@@Collections@Foundation@Windows@@@Concurrency@@@Z@std@@U?$integral_constant@_N$00@6@U_TypeSelectorNoAsync@details@Concurrency@@@?$task@PE$AAU?$IVectorView@PE$AAVWiFiAdapter@WiFi@Devices@Windows@@@Collections@Foundation@Windows@@@Concurrency@@QEBAXU?$integral_constant@_N$00@std@@U_TypeSelectorNoAsync@details@3@@Z 000000018001a3e0 f i _nodert_generated.obj
 0001:00019540       ?_Continue@?$_ContinuationTaskHandle@PE$AAVWiFiConnectionResult@WiFi@Devices@Windows@@XV?$function@$$A6AXV?$task@PE$AAVWiFiConnectionResult@WiFi@Devices@Windows@@@Concurrency@@@Z@std@@U?$integral_constant@_N$00@6@U_TypeSelectorNoAsync@details@Concurrency@@@?$task@PE$AAVWiFiConnectionResult@WiFi@Devices@Windows@@@Concurrency@@QEBAXU?$integral_constant@_N$00@std@@U_TypeSelectorNoAsync@details@3@@Z 000000018001a540 f i _nodert_generated.obj
 0001:000196a0       ?_Continue@?$_ContinuationTaskHandle@XXV?$function@$$A6AXV?$task@X@Concurrency@@@Z@std@@U?$integral_constant@_N$00@2@U_TypeSelectorNoAsync@details@Concurrency@@@?$task@E@Concurrency@@QEBAXU?$integral_constant@_N$00@std@@U_TypeSelectorNoAsync@details@3@@Z 000000018001a6a0 f i _nodert_generated.obj
 0001:00019800       ??1?$function@$$A6AEV?$task@X@Concurrency@@@Z@std@@QEAA@XZ 000000018001a800 f i _nodert_generated.obj
 0001:00019800       ??1?$_Func_class@EV?$task@X@Concurrency@@@std@@QEAA@XZ 000000018001a800 f i _nodert_generated.obj
 0001:00019840       ?_Perform@?$_Continuation_func_transformer@V?$task@X@Concurrency@@X@Concurrency@@SA?AV?$function@$$A6AEV?$task@X@Concurrency@@@Z@std@@V?$function@$$A6AXV?$task@X@Concurrency@@@Z@4@@Z 000000018001a840 f i _nodert_generated.obj
 0001:000198c0       ??1?$_Func_class@EV?$task@PE$AAVWiFiConnectionResult@WiFi@Devices@Windows@@@Concurrency@@@std@@QEAA@XZ 000000018001a8c0 f i _nodert_generated.obj
 0001:000198c0       ??1?$function@$$A6AEV?$task@PE$AAVWiFiConnectionResult@WiFi@Devices@Windows@@@Concurrency@@@Z@std@@QEAA@XZ 000000018001a8c0 f i _nodert_generated.obj
 0001:00019900       ?_Perform@?$_Continuation_func_transformer@V?$task@PE$AAVWiFiConnectionResult@WiFi@Devices@Windows@@@Concurrency@@X@Concurrency@@SA?AV?$function@$$A6AEV?$task@PE$AAVWiFiConnectionResult@WiFi@Devices@Windows@@@Concurrency@@@Z@std@@V?$function@$$A6AXV?$task@PE$AAVWiFiConnectionResult@WiFi@Devices@Windows@@@Concurrency@@@Z@4@@Z 000000018001a900 f i _nodert_generated.obj
 0001:00019980       ??1?$_Func_class@EV?$task@PE$AAU?$IVectorView@PE$AAVWiFiAdapter@WiFi@Devices@Windows@@@Collections@Foundation@Windows@@@Concurrency@@@std@@QEAA@XZ 000000018001a980 f i _nodert_generated.obj
 0001:00019980       ??1?$function@$$A6AEV?$task@PE$AAU?$IVectorView@PE$AAVWiFiAdapter@WiFi@Devices@Windows@@@Collections@Foundation@Windows@@@Concurrency@@@Z@std@@QEAA@XZ 000000018001a980 f i _nodert_generated.obj
 0001:000199c0       ?_Perform@?$_Continuation_func_transformer@V?$task@PE$AAU?$IVectorView@PE$AAVWiFiAdapter@WiFi@Devices@Windows@@@Collections@Foundation@Windows@@@Concurrency@@X@Concurrency@@SA?AV?$function@$$A6AEV?$task@PE$AAU?$IVectorView@PE$AAVWiFiAdapter@WiFi@Devices@Windows@@@Collections@Foundation@Windows@@@Concurrency@@@Z@std@@V?$function@$$A6AXV?$task@PE$AAU?$IVectorView@PE$AAVWiFiAdapter@WiFi@Devices@Windows@@@Collections@Foundation@Windows@@@Concurrency@@@Z@4@@Z 000000018001a9c0 f i _nodert_generated.obj
 0001:00019a40       ??1?$function@$$A6AEV?$task@PE$AAVWiFiAdapter@WiFi@Devices@Windows@@@Concurrency@@@Z@std@@QEAA@XZ 000000018001aa40 f i _nodert_generated.obj
 0001:00019a40       ??1?$_Func_class@EV?$task@PE$AAVWiFiAdapter@WiFi@Devices@Windows@@@Concurrency@@@std@@QEAA@XZ 000000018001aa40 f i _nodert_generated.obj
 0001:00019a80       ?_Perform@?$_Continuation_func_transformer@V?$task@PE$AAVWiFiAdapter@WiFi@Devices@Windows@@@Concurrency@@X@Concurrency@@SA?AV?$function@$$A6AEV?$task@PE$AAVWiFiAdapter@WiFi@Devices@Windows@@@Concurrency@@@Z@std@@V?$function@$$A6AXV?$task@PE$AAVWiFiAdapter@WiFi@Devices@Windows@@@Concurrency@@@Z@4@@Z 000000018001aa80 f i _nodert_generated.obj
 0001:00019b00       ??1?$function@$$A6AEV?$task@W4WiFiAccessStatus@WiFi@Devices@Windows@@@Concurrency@@@Z@std@@QEAA@XZ 000000018001ab00 f i _nodert_generated.obj
 0001:00019b00       ??1?$_Func_class@EV?$task@W4WiFiAccessStatus@WiFi@Devices@Windows@@@Concurrency@@@std@@QEAA@XZ 000000018001ab00 f i _nodert_generated.obj
 0001:00019b40       ?_Perform@?$_Continuation_func_transformer@V?$task@W4WiFiAccessStatus@WiFi@Devices@Windows@@@Concurrency@@X@Concurrency@@SA?AV?$function@$$A6AEV?$task@W4WiFiAccessStatus@WiFi@Devices@Windows@@@Concurrency@@@Z@std@@V?$function@$$A6AXV?$task@W4WiFiAccessStatus@WiFi@Devices@Windows@@@Concurrency@@@Z@4@@Z 000000018001ab40 f i _nodert_generated.obj
 0001:00019bc0       ??$make_shared@U?$_Task_impl@W4WiFiAccessStatus@WiFi@Devices@Windows@@@details@Concurrency@@AEAPEAV_CancellationTokenState@23@AEAUscheduler_ptr@3@@std@@YA?AV?$shared_ptr@U?$_Task_impl@W4WiFiAccessStatus@WiFi@Devices@Windows@@@details@Concurrency@@@0@AEAPEAV_CancellationTokenState@details@Concurrency@@AEAUscheduler_ptr@4@@Z 000000018001abc0 f i _nodert_generated.obj
 0001:00019cb0       ??$make_shared@U?$_Task_impl@PE$AAVWiFiAdapter@WiFi@Devices@Windows@@@details@Concurrency@@AEAPEAV_CancellationTokenState@23@AEAUscheduler_ptr@3@@std@@YA?AV?$shared_ptr@U?$_Task_impl@PE$AAVWiFiAdapter@WiFi@Devices@Windows@@@details@Concurrency@@@0@AEAPEAV_CancellationTokenState@details@Concurrency@@AEAUscheduler_ptr@4@@Z 000000018001acb0 f i _nodert_generated.obj
 0001:00019da0       ??$make_shared@U?$_Task_impl@PE$AAU?$IVectorView@PE$AAVWiFiAdapter@WiFi@Devices@Windows@@@Collections@Foundation@Windows@@@details@Concurrency@@AEAPEAV_CancellationTokenState@23@AEAUscheduler_ptr@3@@std@@YA?AV?$shared_ptr@U?$_Task_impl@PE$AAU?$IVectorView@PE$AAVWiFiAdapter@WiFi@Devices@Windows@@@Collections@Foundation@Windows@@@details@Concurrency@@@0@AEAPEAV_CancellationTokenState@details@Concurrency@@AEAUscheduler_ptr@4@@Z 000000018001ada0 f i _nodert_generated.obj
 0001:00019e90       ??$make_shared@U?$_Task_impl@PE$AAVWiFiConnectionResult@WiFi@Devices@Windows@@@details@Concurrency@@AEAPEAV_CancellationTokenState@23@AEAUscheduler_ptr@3@@std@@YA?AV?$shared_ptr@U?$_Task_impl@PE$AAVWiFiConnectionResult@WiFi@Devices@Windows@@@details@Concurrency@@@0@AEAPEAV_CancellationTokenState@details@Concurrency@@AEAUscheduler_ptr@4@@Z 000000018001ae90 f i _nodert_generated.obj
 0001:00019f80       ??$_MakeTToUnitFunc@V?$task@W4WiFiAccessStatus@WiFi@Devices@Windows@@@Concurrency@@@details@Concurrency@@YA?AV?$function@$$A6AEV?$task@W4WiFiAccessStatus@WiFi@Devices@Windows@@@Concurrency@@@Z@std@@AEBV?$function@$$A6AXV?$task@W4WiFiAccessStatus@WiFi@Devices@Windows@@@Concurrency@@@Z@3@@Z 000000018001af80 f i _nodert_generated.obj
 0001:0001a0a0       ??$_MakeTToUnitFunc@V?$task@PE$AAVWiFiAdapter@WiFi@Devices@Windows@@@Concurrency@@@details@Concurrency@@YA?AV?$function@$$A6AEV?$task@PE$AAVWiFiAdapter@WiFi@Devices@Windows@@@Concurrency@@@Z@std@@AEBV?$function@$$A6AXV?$task@PE$AAVWiFiAdapter@WiFi@Devices@Windows@@@Concurrency@@@Z@3@@Z 000000018001b0a0 f i _nodert_generated.obj
 0001:0001a1c0       ??$_MakeTToUnitFunc@V?$task@PE$AAU?$IVectorView@PE$AAVWiFiAdapter@WiFi@Devices@Windows@@@Collections@Foundation@Windows@@@Concurrency@@@details@Concurrency@@YA?AV?$function@$$A6AEV?$task@PE$AAU?$IVectorView@PE$AAVWiFiAdapter@WiFi@Devices@Windows@@@Collections@Foundation@Windows@@@Concurrency@@@Z@std@@AEBV?$function@$$A6AXV?$task@PE$AAU?$IVectorView@PE$AAVWiFiAdapter@WiFi@Devices@Windows@@@Collections@Foundation@Windows@@@Concurrency@@@Z@3@@Z 000000018001b1c0 f i _nodert_generated.obj
 0001:0001a2e0       ??$_MakeTToUnitFunc@V?$task@PE$AAVWiFiConnectionResult@WiFi@Devices@Windows@@@Concurrency@@@details@Concurrency@@YA?AV?$function@$$A6AEV?$task@PE$AAVWiFiConnectionResult@WiFi@Devices@Windows@@@Concurrency@@@Z@std@@AEBV?$function@$$A6AXV?$task@PE$AAVWiFiConnectionResult@WiFi@Devices@Windows@@@Concurrency@@@Z@3@@Z 000000018001b2e0 f i _nodert_generated.obj
 0001:0001a400       ??$_MakeTToUnitFunc@V?$task@X@Concurrency@@@details@Concurrency@@YA?AV?$function@$$A6AEV?$task@X@Concurrency@@@Z@std@@AEBV?$function@$$A6AXV?$task@X@Concurrency@@@Z@3@@Z 000000018001b400 f i _nodert_generated.obj
 0001:0001a700       ?_Delete_this@?$_Func_impl@V<lambda_68efb09af3b7db31efab1776bdb9e493>@@V?$allocator@H@std@@X$$V@std@@EEAAX_N@Z 000000018001b700 f i _nodert_generated.obj
 0001:0001a700       ?_Delete_this@?$_Func_impl@V<lambda_2ace49f5b77b91174c8cbc8b4e46373d>@@V?$allocator@H@std@@X$$V@std@@EEAAX_N@Z 000000018001b700 f i _nodert_generated.obj
 0001:0001a700       ?_Delete_this@?$_Func_impl@V<lambda_73d913ce43e6748b5d247a86ca0a72e7>@@V?$allocator@H@std@@X$$V@std@@EEAAX_N@Z 000000018001b700 f i _nodert_generated.obj
 0001:0001a700       ?_Delete_this@?$_Func_impl@V<lambda_ee2800ccd2b011420c5de0c63356449b>@@V?$allocator@H@std@@X$$V@std@@EEAAX_N@Z 000000018001b700 f i _nodert_generated.obj
 0001:0001a700       ?_Delete_this@?$_Func_impl@V<lambda_20051975644501ca4905d094cad7ca9a>@@V?$allocator@H@std@@X$$V@std@@EEAAX_N@Z 000000018001b700 f i _nodert_generated.obj
 0001:0001a700       ?_Delete_this@?$_Func_impl@V<lambda_763529b0c7473cbc215a52d189ac9b18>@@V?$allocator@H@std@@X$$V@std@@EEAAX_N@Z 000000018001b700 f i _nodert_generated.obj
 0001:0001a700       ?_Delete_this@?$_Func_impl@V<lambda_3da37a473492b4ff9784e4b9d5ec0fb3>@@V?$allocator@H@std@@X$$V@std@@EEAAX_N@Z 000000018001b700 f i _nodert_generated.obj
 0001:0001a720       ?_Get@?$_Func_impl@V<lambda_b35fdbc63eaf6c602f1361040fea34ad>@@V?$allocator@H@std@@XV?$task@W4WiFiAccessStatus@WiFi@Devices@Windows@@@Concurrency@@@std@@EEBAPEBXXZ 000000018001b720 f i _nodert_generated.obj
 0001:0001a720       ?_Get@?$_Func_impl@V<lambda_334307b97ee5f2466f8dfc680b54dc48>@@V?$allocator@H@std@@X$$V@std@@EEBAPEBXXZ 000000018001b720 f i _nodert_generated.obj
 0001:0001a720       ?_Get@?$_Func_impl@V<lambda_68efb09af3b7db31efab1776bdb9e493>@@V?$allocator@H@std@@X$$V@std@@EEBAPEBXXZ 000000018001b720 f i _nodert_generated.obj
 0001:0001a720       ?_Get@?$_Func_impl@V<lambda_fabbb294be36e42af330e23943182f39>@@V?$allocator@H@std@@EV?$task@W4WiFiAccessStatus@WiFi@Devices@Windows@@@Concurrency@@@std@@EEBAPEBXXZ 000000018001b720 f i _nodert_generated.obj
 0001:0001a720       ?_Get@?$_Func_impl@V<lambda_55ddc47e8b1e9c7c6c00a8fa07b02eeb>@@V?$allocator@H@std@@V?$Local@VValue@v8@@@v8@@PE$AAVWiFiAdapter@WiFi@Devices@Windows@@@std@@EEBAPEBXXZ 000000018001b720 f i _nodert_generated.obj
 0001:0001a720       ?_Get@?$_Func_impl@V<lambda_3da37a473492b4ff9784e4b9d5ec0fb3>@@V?$allocator@H@std@@X$$V@std@@EEBAPEBXXZ 000000018001b720 f i _nodert_generated.obj
 0001:0001a720       ?_Get@?$_Func_impl@V<lambda_d61d618acd042cb6be448c47bd6dda04>@@V?$allocator@H@std@@XV?$function@$$A6AXHPEAV?$Local@VValue@v8@@@v8@@@Z@3@@std@@EEBAPEBXXZ 000000018001b720 f i _nodert_generated.obj
 0001:0001a720       ?_Get@?$_Func_impl@V<lambda_43dba3b136f953be73dc2826e9f03afb>@@V?$allocator@H@std@@X$$V@std@@EEBAPEBXXZ 000000018001b720 f i _nodert_generated.obj
 0001:0001a720       ?_Get@?$_Func_impl@V<lambda_45bc1edc407ccfe1fa050aed513212a8>@@V?$allocator@H@std@@XV?$task@PE$AAU?$IVectorView@PE$AAVWiFiAdapter@WiFi@Devices@Windows@@@Collections@Foundation@Windows@@@Concurrency@@@std@@EEBAPEBXXZ 000000018001b720 f i _nodert_generated.obj
 0001:0001a720       ?_Get@?$_Func_impl@V<lambda_d0049738c561b5c93f538d8743334b3b>@@V?$allocator@H@std@@V?$Local@VValue@v8@@@v8@@PE$AAVWiFiAvailableNetwork@WiFi@Devices@Windows@@@std@@EEBAPEBXXZ 000000018001b720 f i _nodert_generated.obj
 0001:0001a720       ?_Get@?$_Func_impl@V<lambda_5bc6d3dfd96b81b557d2ca3987bcfe7e>@@V?$allocator@H@std@@PE$AAVWiFiAdapter@WiFi@Devices@Windows@@V?$Local@VValue@v8@@@v8@@@std@@EEBAPEBXXZ 000000018001b720 f i _nodert_generated.obj
 0001:0001a720       ?_Get@?$_Func_impl@V<lambda_f25c37099038263181b5186a3fa41b37>@@V?$allocator@H@std@@X$$V@std@@EEBAPEBXXZ 000000018001b720 f i _nodert_generated.obj
 0001:0001a720       ?_Get@?$_Func_impl@V<lambda_1af583cf6945007177c61d87505abd8e>@@V?$allocator@H@std@@XHPEAV?$Local@VValue@v8@@@v8@@@std@@EEBAPEBXXZ 000000018001b720 f i _nodert_generated.obj
 0001:0001a720       ?_Get@?$_Func_impl@V<lambda_bae4d4148c38c83d04c701f5e686a80e>@@V?$allocator@H@std@@XV?$function@$$A6AXHPEAV?$Local@VValue@v8@@@v8@@@Z@3@@std@@EEBAPEBXXZ 000000018001b720 f i _nodert_generated.obj
 0001:0001a720       ?_Get@?$_Func_impl@V<lambda_3c9564ace928a5325045d5dafda92950>@@V?$allocator@H@std@@XV?$function@$$A6AXHPEAV?$Local@VValue@v8@@@v8@@@Z@3@@std@@EEBAPEBXXZ 000000018001b720 f i _nodert_generated.obj
 0001:0001a720       ?_Get@?$_Func_impl@V<lambda_fc55a96778b695da9907353a9fdacbca>@@V?$allocator@H@std@@X$$V@std@@EEBAPEBXXZ 000000018001b720 f i _nodert_generated.obj
 0001:0001a720       ?_Get@?$_Func_impl@V<lambda_7c83662bc24fcfe269da27ef98721e5f>@@V?$allocator@H@std@@XV?$function@$$A6AXHPEAV?$Local@VValue@v8@@@v8@@@Z@3@@std@@EEBAPEBXXZ 000000018001b720 f i _nodert_generated.obj
 0001:0001a720       ?_Get@?$_Func_impl@V<lambda_2de1eaeeb1391f2030b03d1ef75d3eb0>@@V?$allocator@H@std@@X$$V@std@@EEBAPEBXXZ 000000018001b720 f i _nodert_generated.obj
 0001:0001a720       ?_Get@?$_Func_impl@V<lambda_be4c867425d6e703fe2514969f90995f>@@V?$allocator@H@std@@XV?$function@$$A6AXHPEAV?$Local@VValue@v8@@@v8@@@Z@3@@std@@EEBAPEBXXZ 000000018001b720 f i _nodert_generated.obj
 0001:0001a720       ?_Get@?$_Func_impl@V<lambda_4bc90cab6583626e4c84cccfde14d85d>@@V?$allocator@H@std@@XV?$function@$$A6AXHPEAV?$Local@VValue@v8@@@v8@@@Z@3@@std@@EEBAPEBXXZ 000000018001b720 f i _nodert_generated.obj
 0001:0001a720       ?_Get@?$_Func_impl@V<lambda_73d913ce43e6748b5d247a86ca0a72e7>@@V?$allocator@H@std@@X$$V@std@@EEBAPEBXXZ 000000018001b720 f i _nodert_generated.obj
 0001:0001a720       ?_Get@?$_Func_impl@V<lambda_ee2800ccd2b011420c5de0c63356449b>@@V?$allocator@H@std@@X$$V@std@@EEBAPEBXXZ 000000018001b720 f i _nodert_generated.obj
 0001:0001a720       ?_Get@?$_Func_impl@V<lambda_20051975644501ca4905d094cad7ca9a>@@V?$allocator@H@std@@X$$V@std@@EEBAPEBXXZ 000000018001b720 f i _nodert_generated.obj
 0001:0001a720       ?_Get@?$_Func_impl@V<lambda_d4a8bb1d3b7ec2bea7766c2745f0ce11>@@V?$allocator@H@std@@EV?$task@X@Concurrency@@@std@@EEBAPEBXXZ 000000018001b720 f i _nodert_generated.obj
 0001:0001a720       ?_Get@?$_Func_impl@V<lambda_763529b0c7473cbc215a52d189ac9b18>@@V?$allocator@H@std@@X$$V@std@@EEBAPEBXXZ 000000018001b720 f i _nodert_generated.obj
 0001:0001a720       ?_Get@?$_Func_impl@V<lambda_575df78f75be6e56c3c6d6f2c13351d7>@@V?$allocator@H@std@@XV?$function@$$A6AXHPEAV?$Local@VValue@v8@@@v8@@@Z@3@@std@@EEBAPEBXXZ 000000018001b720 f i _nodert_generated.obj
 0001:0001a720       ?_Get@?$_Func_impl@V<lambda_4710f5c52dcf42bd02a362ab04da0053>@@V?$allocator@H@std@@XV?$function@$$A6AXHPEAV?$Local@VValue@v8@@@v8@@@Z@3@@std@@EEBAPEBXXZ 000000018001b720 f i _nodert_generated.obj
 0001:0001a720       ?_Get@?$_Func_impl@V<lambda_d3aafd0b57b73d2f9a296ee38aa3e67b>@@V?$allocator@H@std@@X$$V@std@@EEBAPEBXXZ 000000018001b720 f i _nodert_generated.obj
 0001:0001a720       ?_Get@?$_Func_impl@V<lambda_85765119efc67a7064e73cc055ab740f>@@V?$allocator@H@std@@EV?$task@PE$AAU?$IVectorView@PE$AAVWiFiAdapter@WiFi@Devices@Windows@@@Collections@Foundation@Windows@@@Concurrency@@@std@@EEBAPEBXXZ 000000018001b720 f i _nodert_generated.obj
 0001:0001a720       ?_Get@?$_Func_impl@V<lambda_e0f5f8496c987d2738a350a69618b6a8>@@V?$allocator@H@std@@PE$AAVWiFiAvailableNetwork@WiFi@Devices@Windows@@V?$Local@VValue@v8@@@v8@@@std@@EEBAPEBXXZ 000000018001b720 f i _nodert_generated.obj
 0001:0001a720       ?_Get@?$_Func_impl@V<lambda_e7219b7c2136ee68b6238814f2197cbc>@@V?$allocator@H@std@@X$$V@std@@EEBAPEBXXZ 000000018001b720 f i _nodert_generated.obj
 0001:0001a720       ?_Get@?$_Func_impl@V<lambda_fcddfbb588d6d178324b6e9cbb1f8253>@@V?$allocator@H@std@@X$$V@std@@EEBAPEBXXZ 000000018001b720 f i _nodert_generated.obj
 0001:0001a720       ?_Get@?$_Func_impl@V<lambda_e03a7ec937e836cf062062cbea779d3e>@@V?$allocator@H@std@@XV?$task@PE$AAVWiFiAdapter@WiFi@Devices@Windows@@@Concurrency@@@std@@EEBAPEBXXZ 000000018001b720 f i _nodert_generated.obj
 0001:0001a720       ?_Get@?$_Func_impl@V<lambda_83c8a8a13daabe239d2c6058262a98a0>@@V?$allocator@H@std@@_NV?$Local@VValue@v8@@@v8@@@std@@EEBAPEBXXZ 000000018001b720 f i _nodert_generated.obj
 0001:0001a720       ?_Get@?$_Func_impl@V<lambda_bc0731c9a3566f45332d953ae2092d1f>@@V?$allocator@H@std@@XV?$function@$$A6AXHPEAV?$Local@VValue@v8@@@v8@@@Z@3@@std@@EEBAPEBXXZ 000000018001b720 f i _nodert_generated.obj
 0001:0001a720       ?_Get@?$_Func_impl@V<lambda_196da8969df2293b3f20f1c35ff63462>@@V?$allocator@H@std@@XV?$task@X@Concurrency@@@std@@EEBAPEBXXZ 000000018001b720 f i _nodert_generated.obj
 0001:0001a720       ?_Get@?$_Func_impl@V<lambda_2ace49f5b77b91174c8cbc8b4e46373d>@@V?$allocator@H@std@@X$$V@std@@EEBAPEBXXZ 000000018001b720 f i _nodert_generated.obj
 0001:0001a720       ?_Get@?$_Func_impl@V<lambda_2ebdab9cc8d71a78c6d6e5d0333b6c35>@@V?$allocator@H@std@@EV?$task@PE$AAVWiFiConnectionResult@WiFi@Devices@Windows@@@Concurrency@@@std@@EEBAPEBXXZ 000000018001b720 f i _nodert_generated.obj
 0001:0001a720       ?_Get@?$_Func_impl@V<lambda_394de31cb1e2557ca7df73bc20a87e56>@@V?$allocator@H@std@@_NV?$Local@VValue@v8@@@v8@@@std@@EEBAPEBXXZ 000000018001b720 f i _nodert_generated.obj
 0001:0001a720       ?_Get@?$_Func_impl@V<lambda_dbe8bba2fdc06b28517f8829416a6436>@@V?$allocator@H@std@@XV?$task@PE$AAVWiFiConnectionResult@WiFi@Devices@Windows@@@Concurrency@@@std@@EEBAPEBXXZ 000000018001b720 f i _nodert_generated.obj
 0001:0001a720       ?_Get@?$_Func_impl@V<lambda_e04973e34d302f1e2fca91b511fcd8c7>@@V?$allocator@H@std@@XV?$function@$$A6AXHPEAV?$Local@VValue@v8@@@v8@@@Z@3@@std@@EEBAPEBXXZ 000000018001b720 f i _nodert_generated.obj
 0001:0001a720       ?_Get@?$_Func_impl@V<lambda_6d9be390a0d0310de9e6f9a11a95eeaf>@@V?$allocator@H@std@@EV?$task@PE$AAVWiFiAdapter@WiFi@Devices@Windows@@@Concurrency@@@std@@EEBAPEBXXZ 000000018001b720 f i _nodert_generated.obj
 0001:0001a720       ?_Get@?$_Func_impl@V<lambda_0ce4d83caa0e454a8417afea39cd9595>@@V?$allocator@H@std@@_NV?$Local@VValue@v8@@@v8@@@std@@EEBAPEBXXZ 000000018001b720 f i _nodert_generated.obj
 0001:0001a730       ?_Target_type@?$_Func_impl@V<lambda_20051975644501ca4905d094cad7ca9a>@@V?$allocator@H@std@@X$$V@std@@EEBAAEBVtype_info@@XZ 000000018001b730 f i _nodert_generated.obj
 0001:0001a740       ?_Do_call@?$_Func_impl@V<lambda_20051975644501ca4905d094cad7ca9a>@@V?$allocator@H@std@@X$$V@std@@EEAAXXZ 000000018001b740 f i _nodert_generated.obj
 0001:0001a740       ?_Do_call@?$_Func_impl@V<lambda_763529b0c7473cbc215a52d189ac9b18>@@V?$allocator@H@std@@X$$V@std@@EEAAXXZ 000000018001b740 f i _nodert_generated.obj
 0001:0001a740       ?_Do_call@?$_Func_impl@V<lambda_3da37a473492b4ff9784e4b9d5ec0fb3>@@V?$allocator@H@std@@X$$V@std@@EEAAXXZ 000000018001b740 f i _nodert_generated.obj
 0001:0001a740       ?_Do_call@?$_Func_impl@V<lambda_73d913ce43e6748b5d247a86ca0a72e7>@@V?$allocator@H@std@@X$$V@std@@EEAAXXZ 000000018001b740 f i _nodert_generated.obj
 0001:0001a740       ?_Do_call@?$_Func_impl@V<lambda_68efb09af3b7db31efab1776bdb9e493>@@V?$allocator@H@std@@X$$V@std@@EEAAXXZ 000000018001b740 f i _nodert_generated.obj
 0001:0001a750       ?_Copy@?$_Func_impl@V<lambda_20051975644501ca4905d094cad7ca9a>@@V?$allocator@H@std@@X$$V@std@@EEBAPEAV?$_Func_base@X$$V@2@PEAX@Z 000000018001b750 f i _nodert_generated.obj
 0001:0001a750       ?_Move@?$_Func_impl@V<lambda_20051975644501ca4905d094cad7ca9a>@@V?$allocator@H@std@@X$$V@std@@EEAAPEAV?$_Func_base@X$$V@2@PEAX@Z 000000018001b750 f i _nodert_generated.obj
 0001:0001a770       ?_Target_type@?$_Func_impl@V<lambda_73d913ce43e6748b5d247a86ca0a72e7>@@V?$allocator@H@std@@X$$V@std@@EEBAAEBVtype_info@@XZ 000000018001b770 f i _nodert_generated.obj
 0001:0001a780       ?_Copy@?$_Func_impl@V<lambda_73d913ce43e6748b5d247a86ca0a72e7>@@V?$allocator@H@std@@X$$V@std@@EEBAPEAV?$_Func_base@X$$V@2@PEAX@Z 000000018001b780 f i _nodert_generated.obj
 0001:0001a780       ?_Move@?$_Func_impl@V<lambda_73d913ce43e6748b5d247a86ca0a72e7>@@V?$allocator@H@std@@X$$V@std@@EEAAPEAV?$_Func_base@X$$V@2@PEAX@Z 000000018001b780 f i _nodert_generated.obj
 0001:0001a7a0       ?_Target_type@?$_Func_impl@V<lambda_3da37a473492b4ff9784e4b9d5ec0fb3>@@V?$allocator@H@std@@X$$V@std@@EEBAAEBVtype_info@@XZ 000000018001b7a0 f i _nodert_generated.obj
 0001:0001a7b0       ?_Copy@?$_Func_impl@V<lambda_3da37a473492b4ff9784e4b9d5ec0fb3>@@V?$allocator@H@std@@X$$V@std@@EEBAPEAV?$_Func_base@X$$V@2@PEAX@Z 000000018001b7b0 f i _nodert_generated.obj
 0001:0001a7b0       ?_Move@?$_Func_impl@V<lambda_3da37a473492b4ff9784e4b9d5ec0fb3>@@V?$allocator@H@std@@X$$V@std@@EEAAPEAV?$_Func_base@X$$V@2@PEAX@Z 000000018001b7b0 f i _nodert_generated.obj
 0001:0001a7d0       ?_Target_type@?$_Func_impl@V<lambda_68efb09af3b7db31efab1776bdb9e493>@@V?$allocator@H@std@@X$$V@std@@EEBAAEBVtype_info@@XZ 000000018001b7d0 f i _nodert_generated.obj
 0001:0001a7e0       ?_Move@?$_Func_impl@V<lambda_68efb09af3b7db31efab1776bdb9e493>@@V?$allocator@H@std@@X$$V@std@@EEAAPEAV?$_Func_base@X$$V@2@PEAX@Z 000000018001b7e0 f i _nodert_generated.obj
 0001:0001a7e0       ?_Copy@?$_Func_impl@V<lambda_68efb09af3b7db31efab1776bdb9e493>@@V?$allocator@H@std@@X$$V@std@@EEBAPEAV?$_Func_base@X$$V@2@PEAX@Z 000000018001b7e0 f i _nodert_generated.obj
 0001:0001a800       ?_Target_type@?$_Func_impl@V<lambda_763529b0c7473cbc215a52d189ac9b18>@@V?$allocator@H@std@@X$$V@std@@EEBAAEBVtype_info@@XZ 000000018001b800 f i _nodert_generated.obj
 0001:0001a810       ?_Move@?$_Func_impl@V<lambda_763529b0c7473cbc215a52d189ac9b18>@@V?$allocator@H@std@@X$$V@std@@EEAAPEAV?$_Func_base@X$$V@2@PEAX@Z 000000018001b810 f i _nodert_generated.obj
 0001:0001a810       ?_Copy@?$_Func_impl@V<lambda_763529b0c7473cbc215a52d189ac9b18>@@V?$allocator@H@std@@X$$V@std@@EEBAPEAV?$_Func_base@X$$V@2@PEAX@Z 000000018001b810 f i _nodert_generated.obj
 0001:0001a830       ?_Delete_this@?$_Func_impl@V<lambda_e0f5f8496c987d2738a350a69618b6a8>@@V?$allocator@H@std@@PE$AAVWiFiAvailableNetwork@WiFi@Devices@Windows@@V?$Local@VValue@v8@@@v8@@@std@@EEAAX_N@Z 000000018001b830 f i _nodert_generated.obj
 0001:0001a850       ?_Target_type@?$_Func_impl@V<lambda_e0f5f8496c987d2738a350a69618b6a8>@@V?$allocator@H@std@@PE$AAVWiFiAvailableNetwork@WiFi@Devices@Windows@@V?$Local@VValue@v8@@@v8@@@std@@EEBAAEBVtype_info@@XZ 000000018001b850 f i _nodert_generated.obj
 0001:0001a860       ?_Do_call@?$_Func_impl@V<lambda_e0f5f8496c987d2738a350a69618b6a8>@@V?$allocator@H@std@@PE$AAVWiFiAvailableNetwork@WiFi@Devices@Windows@@V?$Local@VValue@v8@@@v8@@@std@@EEAAPE$AAVWiFiAvailableNetwork@WiFi@Devices@Windows@@$$QEAV?$Local@VValue@v8@@@v8@@@Z 000000018001b860 f i _nodert_generated.obj
 0001:0001a860       ?_Do_call@?$_Func_impl@V<lambda_5bc6d3dfd96b81b557d2ca3987bcfe7e>@@V?$allocator@H@std@@PE$AAVWiFiAdapter@WiFi@Devices@Windows@@V?$Local@VValue@v8@@@v8@@@std@@EEAAPE$AAVWiFiAdapter@WiFi@Devices@Windows@@$$QEAV?$Local@VValue@v8@@@v8@@@Z 000000018001b860 f i _nodert_generated.obj
 0001:0001a890       ?_Move@?$_Func_impl@V<lambda_e0f5f8496c987d2738a350a69618b6a8>@@V?$allocator@H@std@@PE$AAVWiFiAvailableNetwork@WiFi@Devices@Windows@@V?$Local@VValue@v8@@@v8@@@std@@EEAAPEAV?$_Func_base@PE$AAVWiFiAvailableNetwork@WiFi@Devices@Windows@@V?$Local@VValue@v8@@@v8@@@2@PEAX@Z 000000018001b890 f i _nodert_generated.obj
 0001:0001a890       ?_Copy@?$_Func_impl@V<lambda_e0f5f8496c987d2738a350a69618b6a8>@@V?$allocator@H@std@@PE$AAVWiFiAvailableNetwork@WiFi@Devices@Windows@@V?$Local@VValue@v8@@@v8@@@std@@EEBAPEAV?$_Func_base@PE$AAVWiFiAvailableNetwork@WiFi@Devices@Windows@@V?$Local@VValue@v8@@@v8@@@2@PEAX@Z 000000018001b890 f i _nodert_generated.obj
 0001:0001a8b0       ?_Delete_this@?$_Func_impl@V<lambda_394de31cb1e2557ca7df73bc20a87e56>@@V?$allocator@H@std@@_NV?$Local@VValue@v8@@@v8@@@std@@EEAAX_N@Z 000000018001b8b0 f i _nodert_generated.obj
 0001:0001a8b0       ?_Delete_this@?$_Func_impl@V<lambda_0ce4d83caa0e454a8417afea39cd9595>@@V?$allocator@H@std@@_NV?$Local@VValue@v8@@@v8@@@std@@EEAAX_N@Z 000000018001b8b0 f i _nodert_generated.obj
 0001:0001a8b0       ?_Delete_this@?$_Func_impl@V<lambda_83c8a8a13daabe239d2c6058262a98a0>@@V?$allocator@H@std@@_NV?$Local@VValue@v8@@@v8@@@std@@EEAAX_N@Z 000000018001b8b0 f i _nodert_generated.obj
 0001:0001a8d0       ?_Target_type@?$_Func_impl@V<lambda_0ce4d83caa0e454a8417afea39cd9595>@@V?$allocator@H@std@@_NV?$Local@VValue@v8@@@v8@@@std@@EEBAAEBVtype_info@@XZ 000000018001b8d0 f i _nodert_generated.obj
 0001:0001a8e0       ?_Do_call@?$_Func_impl@V<lambda_0ce4d83caa0e454a8417afea39cd9595>@@V?$allocator@H@std@@_NV?$Local@VValue@v8@@@v8@@@std@@EEAA_N$$QEAV?$Local@VValue@v8@@@v8@@@Z 000000018001b8e0 f i _nodert_generated.obj
 0001:0001a8f0       ?_Copy@?$_Func_impl@V<lambda_0ce4d83caa0e454a8417afea39cd9595>@@V?$allocator@H@std@@_NV?$Local@VValue@v8@@@v8@@@std@@EEBAPEAV?$_Func_base@_NV?$Local@VValue@v8@@@v8@@@2@PEAX@Z 000000018001b8f0 f i _nodert_generated.obj
 0001:0001a8f0       ?_Move@?$_Func_impl@V<lambda_0ce4d83caa0e454a8417afea39cd9595>@@V?$allocator@H@std@@_NV?$Local@VValue@v8@@@v8@@@std@@EEAAPEAV?$_Func_base@_NV?$Local@VValue@v8@@@v8@@@2@PEAX@Z 000000018001b8f0 f i _nodert_generated.obj
 0001:0001a910       ?_Delete_this@?$_Func_impl@V<lambda_d0049738c561b5c93f538d8743334b3b>@@V?$allocator@H@std@@V?$Local@VValue@v8@@@v8@@PE$AAVWiFiAvailableNetwork@WiFi@Devices@Windows@@@std@@EEAAX_N@Z 000000018001b910 f i _nodert_generated.obj
 0001:0001a930       ?_Target_type@?$_Func_impl@V<lambda_d0049738c561b5c93f538d8743334b3b>@@V?$allocator@H@std@@V?$Local@VValue@v8@@@v8@@PE$AAVWiFiAvailableNetwork@WiFi@Devices@Windows@@@std@@EEBAAEBVtype_info@@XZ 000000018001b930 f i _nodert_generated.obj
 0001:0001a940       ?_Do_call@?$_Func_impl@V<lambda_d0049738c561b5c93f538d8743334b3b>@@V?$allocator@H@std@@V?$Local@VValue@v8@@@v8@@PE$AAVWiFiAvailableNetwork@WiFi@Devices@Windows@@@std@@EEAA?AV?$Local@VValue@v8@@@v8@@$$QEAPE$AAVWiFiAvailableNetwork@WiFi@Devices@Windows@@@Z 000000018001b940 f i _nodert_generated.obj
 0001:0001a960       ?_Move@?$_Func_impl@V<lambda_d0049738c561b5c93f538d8743334b3b>@@V?$allocator@H@std@@V?$Local@VValue@v8@@@v8@@PE$AAVWiFiAvailableNetwork@WiFi@Devices@Windows@@@std@@EEAAPEAV?$_Func_base@V?$Local@VValue@v8@@@v8@@PE$AAVWiFiAvailableNetwork@WiFi@Devices@Windows@@@2@PEAX@Z 000000018001b960 f i _nodert_generated.obj
 0001:0001a960       ?_Copy@?$_Func_impl@V<lambda_d0049738c561b5c93f538d8743334b3b>@@V?$allocator@H@std@@V?$Local@VValue@v8@@@v8@@PE$AAVWiFiAvailableNetwork@WiFi@Devices@Windows@@@std@@EEBAPEAV?$_Func_base@V?$Local@VValue@v8@@@v8@@PE$AAVWiFiAvailableNetwork@WiFi@Devices@Windows@@@2@PEAX@Z 000000018001b960 f i _nodert_generated.obj
 0001:0001a980       ?_Delete_this@?$_Func_impl@V<lambda_2de1eaeeb1391f2030b03d1ef75d3eb0>@@V?$allocator@H@std@@X$$V@std@@EEAAX_N@Z 000000018001b980 f i _nodert_generated.obj
 0001:0001a9d0       ?_Target_type@?$_Func_impl@V<lambda_2de1eaeeb1391f2030b03d1ef75d3eb0>@@V?$allocator@H@std@@X$$V@std@@EEBAAEBVtype_info@@XZ 000000018001b9d0 f i _nodert_generated.obj
 0001:0001a9e0       ?_Do_call@?$_Func_impl@V<lambda_2de1eaeeb1391f2030b03d1ef75d3eb0>@@V?$allocator@H@std@@X$$V@std@@EEAAXXZ 000000018001b9e0 f i _nodert_generated.obj
 0001:0001a9f0       ?_Move@?$_Func_impl@V<lambda_2de1eaeeb1391f2030b03d1ef75d3eb0>@@V?$allocator@H@std@@X$$V@std@@EEAAPEAV?$_Func_base@X$$V@2@PEAX@Z 000000018001b9f0 f i _nodert_generated.obj
 0001:0001aa20       ?_Copy@?$_Func_impl@V<lambda_2de1eaeeb1391f2030b03d1ef75d3eb0>@@V?$allocator@H@std@@X$$V@std@@EEBAPEAV?$_Func_base@X$$V@2@PEAX@Z 000000018001ba20 f i _nodert_generated.obj
 0001:0001aa50       ?_Target_type@?$_Func_impl@V<lambda_2ace49f5b77b91174c8cbc8b4e46373d>@@V?$allocator@H@std@@X$$V@std@@EEBAAEBVtype_info@@XZ 000000018001ba50 f i _nodert_generated.obj
 0001:0001aa60       ?_Do_call@?$_Func_impl@V<lambda_2ace49f5b77b91174c8cbc8b4e46373d>@@V?$allocator@H@std@@X$$V@std@@EEAAXXZ 000000018001ba60 f i _nodert_generated.obj
 0001:0001aab0       ?_Move@?$_Func_impl@V<lambda_2ace49f5b77b91174c8cbc8b4e46373d>@@V?$allocator@H@std@@X$$V@std@@EEAAPEAV?$_Func_base@X$$V@2@PEAX@Z 000000018001bab0 f i _nodert_generated.obj
 0001:0001aab0       ?_Copy@?$_Func_impl@V<lambda_2ace49f5b77b91174c8cbc8b4e46373d>@@V?$allocator@H@std@@X$$V@std@@EEBAPEAV?$_Func_base@X$$V@2@PEAX@Z 000000018001bab0 f i _nodert_generated.obj
 0001:0001aad0       ?_Delete_this@?$_Func_impl@V<lambda_be4c867425d6e703fe2514969f90995f>@@V?$allocator@H@std@@XV?$function@$$A6AXHPEAV?$Local@VValue@v8@@@v8@@@Z@3@@std@@EEAAX_N@Z 000000018001bad0 f i _nodert_generated.obj
 0001:0001ab30       ?_Target_type@?$_Func_impl@V<lambda_be4c867425d6e703fe2514969f90995f>@@V?$allocator@H@std@@XV?$function@$$A6AXHPEAV?$Local@VValue@v8@@@v8@@@Z@3@@std@@EEBAAEBVtype_info@@XZ 000000018001bb30 f i _nodert_generated.obj
 0001:0001ab40       ?_Do_call@?$_Func_impl@V<lambda_be4c867425d6e703fe2514969f90995f>@@V?$allocator@H@std@@XV?$function@$$A6AXHPEAV?$Local@VValue@v8@@@v8@@@Z@3@@std@@EEAAX$$QEAV?$function@$$A6AXHPEAV?$Local@VValue@v8@@@v8@@@Z@2@@Z 000000018001bb40 f i _nodert_generated.obj
 0001:0001ab40       ?_Do_call@?$_Func_impl@V<lambda_4710f5c52dcf42bd02a362ab04da0053>@@V?$allocator@H@std@@XV?$function@$$A6AXHPEAV?$Local@VValue@v8@@@v8@@@Z@3@@std@@EEAAX$$QEAV?$function@$$A6AXHPEAV?$Local@VValue@v8@@@v8@@@Z@2@@Z 000000018001bb40 f i _nodert_generated.obj
 0001:0001ab40       ?_Do_call@?$_Func_impl@V<lambda_4bc90cab6583626e4c84cccfde14d85d>@@V?$allocator@H@std@@XV?$function@$$A6AXHPEAV?$Local@VValue@v8@@@v8@@@Z@3@@std@@EEAAX$$QEAV?$function@$$A6AXHPEAV?$Local@VValue@v8@@@v8@@@Z@2@@Z 000000018001bb40 f i _nodert_generated.obj
 0001:0001ab40       ?_Do_call@?$_Func_impl@V<lambda_e04973e34d302f1e2fca91b511fcd8c7>@@V?$allocator@H@std@@XV?$function@$$A6AXHPEAV?$Local@VValue@v8@@@v8@@@Z@3@@std@@EEAAX$$QEAV?$function@$$A6AXHPEAV?$Local@VValue@v8@@@v8@@@Z@2@@Z 000000018001bb40 f i _nodert_generated.obj
 0001:0001ab40       ?_Do_call@?$_Func_impl@V<lambda_bc0731c9a3566f45332d953ae2092d1f>@@V?$allocator@H@std@@XV?$function@$$A6AXHPEAV?$Local@VValue@v8@@@v8@@@Z@3@@std@@EEAAX$$QEAV?$function@$$A6AXHPEAV?$Local@VValue@v8@@@v8@@@Z@2@@Z 000000018001bb40 f i _nodert_generated.obj
 0001:0001ab70       ?_Copy@?$_Func_impl@V<lambda_be4c867425d6e703fe2514969f90995f>@@V?$allocator@H@std@@XV?$function@$$A6AXHPEAV?$Local@VValue@v8@@@v8@@@Z@3@@std@@EEBAPEAV?$_Func_base@XV?$function@$$A6AXHPEAV?$Local@VValue@v8@@@v8@@@Z@std@@@2@PEAX@Z 000000018001bb70 f i _nodert_generated.obj
 0001:0001ab70       ?_Move@?$_Func_impl@V<lambda_be4c867425d6e703fe2514969f90995f>@@V?$allocator@H@std@@XV?$function@$$A6AXHPEAV?$Local@VValue@v8@@@v8@@@Z@3@@std@@EEAAPEAV?$_Func_base@XV?$function@$$A6AXHPEAV?$Local@VValue@v8@@@v8@@@Z@std@@@2@PEAX@Z 000000018001bb70 f i _nodert_generated.obj
 0001:0001abc0       ?_Delete_this@?$_Func_impl@V<lambda_d61d618acd042cb6be448c47bd6dda04>@@V?$allocator@H@std@@XV?$function@$$A6AXHPEAV?$Local@VValue@v8@@@v8@@@Z@3@@std@@EEAAX_N@Z 000000018001bbc0 f i _nodert_generated.obj
 0001:0001abc0       ?_Delete_this@?$_Func_impl@V<lambda_575df78f75be6e56c3c6d6f2c13351d7>@@V?$allocator@H@std@@XV?$function@$$A6AXHPEAV?$Local@VValue@v8@@@v8@@@Z@3@@std@@EEAAX_N@Z 000000018001bbc0 f i _nodert_generated.obj
 0001:0001abe0       ?_Target_type@?$_Func_impl@V<lambda_d61d618acd042cb6be448c47bd6dda04>@@V?$allocator@H@std@@XV?$function@$$A6AXHPEAV?$Local@VValue@v8@@@v8@@@Z@3@@std@@EEBAAEBVtype_info@@XZ 000000018001bbe0 f i _nodert_generated.obj
 0001:0001abf0       ?_Do_call@?$_Func_impl@V<lambda_d61d618acd042cb6be448c47bd6dda04>@@V?$allocator@H@std@@XV?$function@$$A6AXHPEAV?$Local@VValue@v8@@@v8@@@Z@3@@std@@EEAAX$$QEAV?$function@$$A6AXHPEAV?$Local@VValue@v8@@@v8@@@Z@2@@Z 000000018001bbf0 f i _nodert_generated.obj
 0001:0001ac20       ?_Copy@?$_Func_impl@V<lambda_d61d618acd042cb6be448c47bd6dda04>@@V?$allocator@H@std@@XV?$function@$$A6AXHPEAV?$Local@VValue@v8@@@v8@@@Z@3@@std@@EEBAPEAV?$_Func_base@XV?$function@$$A6AXHPEAV?$Local@VValue@v8@@@v8@@@Z@std@@@2@PEAX@Z 000000018001bc20 f i _nodert_generated.obj
 0001:0001ac20       ?_Move@?$_Func_impl@V<lambda_d61d618acd042cb6be448c47bd6dda04>@@V?$allocator@H@std@@XV?$function@$$A6AXHPEAV?$Local@VValue@v8@@@v8@@@Z@3@@std@@EEAAPEAV?$_Func_base@XV?$function@$$A6AXHPEAV?$Local@VValue@v8@@@v8@@@Z@std@@@2@PEAX@Z 000000018001bc20 f i _nodert_generated.obj
 0001:0001ac40       ?_Delete_this@?$_Func_impl@V<lambda_4710f5c52dcf42bd02a362ab04da0053>@@V?$allocator@H@std@@XV?$function@$$A6AXHPEAV?$Local@VValue@v8@@@v8@@@Z@3@@std@@EEAAX_N@Z 000000018001bc40 f i _nodert_generated.obj
 0001:0001aca0       ?_Target_type@?$_Func_impl@V<lambda_4710f5c52dcf42bd02a362ab04da0053>@@V?$allocator@H@std@@XV?$function@$$A6AXHPEAV?$Local@VValue@v8@@@v8@@@Z@3@@std@@EEBAAEBVtype_info@@XZ 000000018001bca0 f i _nodert_generated.obj
 0001:0001acb0       ?_Copy@?$_Func_impl@V<lambda_4710f5c52dcf42bd02a362ab04da0053>@@V?$allocator@H@std@@XV?$function@$$A6AXHPEAV?$Local@VValue@v8@@@v8@@@Z@3@@std@@EEBAPEAV?$_Func_base@XV?$function@$$A6AXHPEAV?$Local@VValue@v8@@@v8@@@Z@std@@@2@PEAX@Z 000000018001bcb0 f i _nodert_generated.obj
 0001:0001acb0       ?_Move@?$_Func_impl@V<lambda_4710f5c52dcf42bd02a362ab04da0053>@@V?$allocator@H@std@@XV?$function@$$A6AXHPEAV?$Local@VValue@v8@@@v8@@@Z@3@@std@@EEAAPEAV?$_Func_base@XV?$function@$$A6AXHPEAV?$Local@VValue@v8@@@v8@@@Z@std@@@2@PEAX@Z 000000018001bcb0 f i _nodert_generated.obj
 0001:0001ad00       ?_Delete_this@?$_Func_impl@V<lambda_7c83662bc24fcfe269da27ef98721e5f>@@V?$allocator@H@std@@XV?$function@$$A6AXHPEAV?$Local@VValue@v8@@@v8@@@Z@3@@std@@EEAAX_N@Z 000000018001bd00 f i _nodert_generated.obj
 0001:0001ad60       ?_Target_type@?$_Func_impl@V<lambda_7c83662bc24fcfe269da27ef98721e5f>@@V?$allocator@H@std@@XV?$function@$$A6AXHPEAV?$Local@VValue@v8@@@v8@@@Z@3@@std@@EEBAAEBVtype_info@@XZ 000000018001bd60 f i _nodert_generated.obj
 0001:0001ad70       ?_Do_call@?$_Func_impl@V<lambda_7c83662bc24fcfe269da27ef98721e5f>@@V?$allocator@H@std@@XV?$function@$$A6AXHPEAV?$Local@VValue@v8@@@v8@@@Z@3@@std@@EEAAX$$QEAV?$function@$$A6AXHPEAV?$Local@VValue@v8@@@v8@@@Z@2@@Z 000000018001bd70 f i _nodert_generated.obj
 0001:0001ada0       ?_Move@?$_Func_impl@V<lambda_7c83662bc24fcfe269da27ef98721e5f>@@V?$allocator@H@std@@XV?$function@$$A6AXHPEAV?$Local@VValue@v8@@@v8@@@Z@3@@std@@EEAAPEAV?$_Func_base@XV?$function@$$A6AXHPEAV?$Local@VValue@v8@@@v8@@@Z@std@@@2@PEAX@Z 000000018001bda0 f i _nodert_generated.obj
 0001:0001ada0       ?_Copy@?$_Func_impl@V<lambda_7c83662bc24fcfe269da27ef98721e5f>@@V?$allocator@H@std@@XV?$function@$$A6AXHPEAV?$Local@VValue@v8@@@v8@@@Z@3@@std@@EEBAPEAV?$_Func_base@XV?$function@$$A6AXHPEAV?$Local@VValue@v8@@@v8@@@Z@std@@@2@PEAX@Z 000000018001bda0 f i _nodert_generated.obj
 0001:0001adf0       ?_Delete_this@?$_Func_impl@V<lambda_4bc90cab6583626e4c84cccfde14d85d>@@V?$allocator@H@std@@XV?$function@$$A6AXHPEAV?$Local@VValue@v8@@@v8@@@Z@3@@std@@EEAAX_N@Z 000000018001bdf0 f i _nodert_generated.obj
 0001:0001ae50       ?_Target_type@?$_Func_impl@V<lambda_4bc90cab6583626e4c84cccfde14d85d>@@V?$allocator@H@std@@XV?$function@$$A6AXHPEAV?$Local@VValue@v8@@@v8@@@Z@3@@std@@EEBAAEBVtype_info@@XZ 000000018001be50 f i _nodert_generated.obj
 0001:0001ae60       ?_Move@?$_Func_impl@V<lambda_4bc90cab6583626e4c84cccfde14d85d>@@V?$allocator@H@std@@XV?$function@$$A6AXHPEAV?$Local@VValue@v8@@@v8@@@Z@3@@std@@EEAAPEAV?$_Func_base@XV?$function@$$A6AXHPEAV?$Local@VValue@v8@@@v8@@@Z@std@@@2@PEAX@Z 000000018001be60 f i _nodert_generated.obj
 0001:0001ae60       ?_Copy@?$_Func_impl@V<lambda_4bc90cab6583626e4c84cccfde14d85d>@@V?$allocator@H@std@@XV?$function@$$A6AXHPEAV?$Local@VValue@v8@@@v8@@@Z@3@@std@@EEBAPEAV?$_Func_base@XV?$function@$$A6AXHPEAV?$Local@VValue@v8@@@v8@@@Z@std@@@2@PEAX@Z 000000018001be60 f i _nodert_generated.obj
 0001:0001aeb0       ?_Delete_this@?$_Func_impl@V<lambda_bae4d4148c38c83d04c701f5e686a80e>@@V?$allocator@H@std@@XV?$function@$$A6AXHPEAV?$Local@VValue@v8@@@v8@@@Z@3@@std@@EEAAX_N@Z 000000018001beb0 f i _nodert_generated.obj
 0001:0001af10       ?_Target_type@?$_Func_impl@V<lambda_bae4d4148c38c83d04c701f5e686a80e>@@V?$allocator@H@std@@XV?$function@$$A6AXHPEAV?$Local@VValue@v8@@@v8@@@Z@3@@std@@EEBAAEBVtype_info@@XZ 000000018001bf10 f i _nodert_generated.obj
 0001:0001af20       ?_Do_call@?$_Func_impl@V<lambda_bae4d4148c38c83d04c701f5e686a80e>@@V?$allocator@H@std@@XV?$function@$$A6AXHPEAV?$Local@VValue@v8@@@v8@@@Z@3@@std@@EEAAX$$QEAV?$function@$$A6AXHPEAV?$Local@VValue@v8@@@v8@@@Z@2@@Z 000000018001bf20 f i _nodert_generated.obj
 0001:0001af50       ?_Move@?$_Func_impl@V<lambda_bae4d4148c38c83d04c701f5e686a80e>@@V?$allocator@H@std@@XV?$function@$$A6AXHPEAV?$Local@VValue@v8@@@v8@@@Z@3@@std@@EEAAPEAV?$_Func_base@XV?$function@$$A6AXHPEAV?$Local@VValue@v8@@@v8@@@Z@std@@@2@PEAX@Z 000000018001bf50 f i _nodert_generated.obj
 0001:0001af50       ?_Copy@?$_Func_impl@V<lambda_bae4d4148c38c83d04c701f5e686a80e>@@V?$allocator@H@std@@XV?$function@$$A6AXHPEAV?$Local@VValue@v8@@@v8@@@Z@3@@std@@EEBAPEAV?$_Func_base@XV?$function@$$A6AXHPEAV?$Local@VValue@v8@@@v8@@@Z@std@@@2@PEAX@Z 000000018001bf50 f i _nodert_generated.obj
 0001:0001afa0       ?_Delete_this@?$_Func_impl@V<lambda_5bc6d3dfd96b81b557d2ca3987bcfe7e>@@V?$allocator@H@std@@PE$AAVWiFiAdapter@WiFi@Devices@Windows@@V?$Local@VValue@v8@@@v8@@@std@@EEAAX_N@Z 000000018001bfa0 f i _nodert_generated.obj
 0001:0001afc0       ?_Target_type@?$_Func_impl@V<lambda_5bc6d3dfd96b81b557d2ca3987bcfe7e>@@V?$allocator@H@std@@PE$AAVWiFiAdapter@WiFi@Devices@Windows@@V?$Local@VValue@v8@@@v8@@@std@@EEBAAEBVtype_info@@XZ 000000018001bfc0 f i _nodert_generated.obj
 0001:0001afd0       ?_Move@?$_Func_impl@V<lambda_5bc6d3dfd96b81b557d2ca3987bcfe7e>@@V?$allocator@H@std@@PE$AAVWiFiAdapter@WiFi@Devices@Windows@@V?$Local@VValue@v8@@@v8@@@std@@EEAAPEAV?$_Func_base@PE$AAVWiFiAdapter@WiFi@Devices@Windows@@V?$Local@VValue@v8@@@v8@@@2@PEAX@Z 000000018001bfd0 f i _nodert_generated.obj
 0001:0001afd0       ?_Copy@?$_Func_impl@V<lambda_5bc6d3dfd96b81b557d2ca3987bcfe7e>@@V?$allocator@H@std@@PE$AAVWiFiAdapter@WiFi@Devices@Windows@@V?$Local@VValue@v8@@@v8@@@std@@EEBAPEAV?$_Func_base@PE$AAVWiFiAdapter@WiFi@Devices@Windows@@V?$Local@VValue@v8@@@v8@@@2@PEAX@Z 000000018001bfd0 f i _nodert_generated.obj
 0001:0001aff0       ?_Target_type@?$_Func_impl@V<lambda_83c8a8a13daabe239d2c6058262a98a0>@@V?$allocator@H@std@@_NV?$Local@VValue@v8@@@v8@@@std@@EEBAAEBVtype_info@@XZ 000000018001bff0 f i _nodert_generated.obj
 0001:0001b000       ?_Do_call@?$_Func_impl@V<lambda_83c8a8a13daabe239d2c6058262a98a0>@@V?$allocator@H@std@@_NV?$Local@VValue@v8@@@v8@@@std@@EEAA_N$$QEAV?$Local@VValue@v8@@@v8@@@Z 000000018001c000 f i _nodert_generated.obj
 0001:0001b010       ?_Move@?$_Func_impl@V<lambda_83c8a8a13daabe239d2c6058262a98a0>@@V?$allocator@H@std@@_NV?$Local@VValue@v8@@@v8@@@std@@EEAAPEAV?$_Func_base@_NV?$Local@VValue@v8@@@v8@@@2@PEAX@Z 000000018001c010 f i _nodert_generated.obj
 0001:0001b010       ?_Copy@?$_Func_impl@V<lambda_83c8a8a13daabe239d2c6058262a98a0>@@V?$allocator@H@std@@_NV?$Local@VValue@v8@@@v8@@@std@@EEBAPEAV?$_Func_base@_NV?$Local@VValue@v8@@@v8@@@2@PEAX@Z 000000018001c010 f i _nodert_generated.obj
 0001:0001b030       ?_Delete_this@?$_Func_impl@V<lambda_55ddc47e8b1e9c7c6c00a8fa07b02eeb>@@V?$allocator@H@std@@V?$Local@VValue@v8@@@v8@@PE$AAVWiFiAdapter@WiFi@Devices@Windows@@@std@@EEAAX_N@Z 000000018001c030 f i _nodert_generated.obj
 0001:0001b050       ?_Target_type@?$_Func_impl@V<lambda_55ddc47e8b1e9c7c6c00a8fa07b02eeb>@@V?$allocator@H@std@@V?$Local@VValue@v8@@@v8@@PE$AAVWiFiAdapter@WiFi@Devices@Windows@@@std@@EEBAAEBVtype_info@@XZ 000000018001c050 f i _nodert_generated.obj
 0001:0001b060       ?_Do_call@?$_Func_impl@V<lambda_55ddc47e8b1e9c7c6c00a8fa07b02eeb>@@V?$allocator@H@std@@V?$Local@VValue@v8@@@v8@@PE$AAVWiFiAdapter@WiFi@Devices@Windows@@@std@@EEAA?AV?$Local@VValue@v8@@@v8@@$$QEAPE$AAVWiFiAdapter@WiFi@Devices@Windows@@@Z 000000018001c060 f i _nodert_generated.obj
 0001:0001b080       ?_Copy@?$_Func_impl@V<lambda_55ddc47e8b1e9c7c6c00a8fa07b02eeb>@@V?$allocator@H@std@@V?$Local@VValue@v8@@@v8@@PE$AAVWiFiAdapter@WiFi@Devices@Windows@@@std@@EEBAPEAV?$_Func_base@V?$Local@VValue@v8@@@v8@@PE$AAVWiFiAdapter@WiFi@Devices@Windows@@@2@PEAX@Z 000000018001c080 f i _nodert_generated.obj
 0001:0001b080       ?_Move@?$_Func_impl@V<lambda_55ddc47e8b1e9c7c6c00a8fa07b02eeb>@@V?$allocator@H@std@@V?$Local@VValue@v8@@@v8@@PE$AAVWiFiAdapter@WiFi@Devices@Windows@@@std@@EEAAPEAV?$_Func_base@V?$Local@VValue@v8@@@v8@@PE$AAVWiFiAdapter@WiFi@Devices@Windows@@@2@PEAX@Z 000000018001c080 f i _nodert_generated.obj
 0001:0001b0a0       ?_Delete_this@?$_Func_impl@V<lambda_bc0731c9a3566f45332d953ae2092d1f>@@V?$allocator@H@std@@XV?$function@$$A6AXHPEAV?$Local@VValue@v8@@@v8@@@Z@3@@std@@EEAAX_N@Z 000000018001c0a0 f i _nodert_generated.obj
 0001:0001b100       ?_Target_type@?$_Func_impl@V<lambda_bc0731c9a3566f45332d953ae2092d1f>@@V?$allocator@H@std@@XV?$function@$$A6AXHPEAV?$Local@VValue@v8@@@v8@@@Z@3@@std@@EEBAAEBVtype_info@@XZ 000000018001c100 f i _nodert_generated.obj
 0001:0001b110       ?_Copy@?$_Func_impl@V<lambda_bc0731c9a3566f45332d953ae2092d1f>@@V?$allocator@H@std@@XV?$function@$$A6AXHPEAV?$Local@VValue@v8@@@v8@@@Z@3@@std@@EEBAPEAV?$_Func_base@XV?$function@$$A6AXHPEAV?$Local@VValue@v8@@@v8@@@Z@std@@@2@PEAX@Z 000000018001c110 f i _nodert_generated.obj
 0001:0001b110       ?_Move@?$_Func_impl@V<lambda_bc0731c9a3566f45332d953ae2092d1f>@@V?$allocator@H@std@@XV?$function@$$A6AXHPEAV?$Local@VValue@v8@@@v8@@@Z@3@@std@@EEAAPEAV?$_Func_base@XV?$function@$$A6AXHPEAV?$Local@VValue@v8@@@v8@@@Z@std@@@2@PEAX@Z 000000018001c110 f i _nodert_generated.obj
 0001:0001b160       ?_Delete_this@?$_Func_impl@V<lambda_3c9564ace928a5325045d5dafda92950>@@V?$allocator@H@std@@XV?$function@$$A6AXHPEAV?$Local@VValue@v8@@@v8@@@Z@3@@std@@EEAAX_N@Z 000000018001c160 f i _nodert_generated.obj
 0001:0001b1c0       ?_Target_type@?$_Func_impl@V<lambda_3c9564ace928a5325045d5dafda92950>@@V?$allocator@H@std@@XV?$function@$$A6AXHPEAV?$Local@VValue@v8@@@v8@@@Z@3@@std@@EEBAAEBVtype_info@@XZ 000000018001c1c0 f i _nodert_generated.obj
 0001:0001b1d0       ?_Do_call@?$_Func_impl@V<lambda_3c9564ace928a5325045d5dafda92950>@@V?$allocator@H@std@@XV?$function@$$A6AXHPEAV?$Local@VValue@v8@@@v8@@@Z@3@@std@@EEAAX$$QEAV?$function@$$A6AXHPEAV?$Local@VValue@v8@@@v8@@@Z@2@@Z 000000018001c1d0 f i _nodert_generated.obj
 0001:0001b200       ?_Copy@?$_Func_impl@V<lambda_3c9564ace928a5325045d5dafda92950>@@V?$allocator@H@std@@XV?$function@$$A6AXHPEAV?$Local@VValue@v8@@@v8@@@Z@3@@std@@EEBAPEAV?$_Func_base@XV?$function@$$A6AXHPEAV?$Local@VValue@v8@@@v8@@@Z@std@@@2@PEAX@Z 000000018001c200 f i _nodert_generated.obj
 0001:0001b200       ?_Move@?$_Func_impl@V<lambda_3c9564ace928a5325045d5dafda92950>@@V?$allocator@H@std@@XV?$function@$$A6AXHPEAV?$Local@VValue@v8@@@v8@@@Z@3@@std@@EEAAPEAV?$_Func_base@XV?$function@$$A6AXHPEAV?$Local@VValue@v8@@@v8@@@Z@std@@@2@PEAX@Z 000000018001c200 f i _nodert_generated.obj
 0001:0001b250       ?_Delete_this@?$_Func_impl@V<lambda_e04973e34d302f1e2fca91b511fcd8c7>@@V?$allocator@H@std@@XV?$function@$$A6AXHPEAV?$Local@VValue@v8@@@v8@@@Z@3@@std@@EEAAX_N@Z 000000018001c250 f i _nodert_generated.obj
 0001:0001b2b0       ?_Target_type@?$_Func_impl@V<lambda_e04973e34d302f1e2fca91b511fcd8c7>@@V?$allocator@H@std@@XV?$function@$$A6AXHPEAV?$Local@VValue@v8@@@v8@@@Z@3@@std@@EEBAAEBVtype_info@@XZ 000000018001c2b0 f i _nodert_generated.obj
 0001:0001b2c0       ?_Copy@?$_Func_impl@V<lambda_e04973e34d302f1e2fca91b511fcd8c7>@@V?$allocator@H@std@@XV?$function@$$A6AXHPEAV?$Local@VValue@v8@@@v8@@@Z@3@@std@@EEBAPEAV?$_Func_base@XV?$function@$$A6AXHPEAV?$Local@VValue@v8@@@v8@@@Z@std@@@2@PEAX@Z 000000018001c2c0 f i _nodert_generated.obj
 0001:0001b2c0       ?_Move@?$_Func_impl@V<lambda_e04973e34d302f1e2fca91b511fcd8c7>@@V?$allocator@H@std@@XV?$function@$$A6AXHPEAV?$Local@VValue@v8@@@v8@@@Z@3@@std@@EEAAPEAV?$_Func_base@XV?$function@$$A6AXHPEAV?$Local@VValue@v8@@@v8@@@Z@std@@@2@PEAX@Z 000000018001c2c0 f i _nodert_generated.obj
 0001:0001b310       ?_Target_type@?$_Func_impl@V<lambda_575df78f75be6e56c3c6d6f2c13351d7>@@V?$allocator@H@std@@XV?$function@$$A6AXHPEAV?$Local@VValue@v8@@@v8@@@Z@3@@std@@EEBAAEBVtype_info@@XZ 000000018001c310 f i _nodert_generated.obj
 0001:0001b320       ?_Do_call@?$_Func_impl@V<lambda_575df78f75be6e56c3c6d6f2c13351d7>@@V?$allocator@H@std@@XV?$function@$$A6AXHPEAV?$Local@VValue@v8@@@v8@@@Z@3@@std@@EEAAX$$QEAV?$function@$$A6AXHPEAV?$Local@VValue@v8@@@v8@@@Z@2@@Z 000000018001c320 f i _nodert_generated.obj
 0001:0001b340       ?_Move@?$_Func_impl@V<lambda_575df78f75be6e56c3c6d6f2c13351d7>@@V?$allocator@H@std@@XV?$function@$$A6AXHPEAV?$Local@VValue@v8@@@v8@@@Z@3@@std@@EEAAPEAV?$_Func_base@XV?$function@$$A6AXHPEAV?$Local@VValue@v8@@@v8@@@Z@std@@@2@PEAX@Z 000000018001c340 f i _nodert_generated.obj
 0001:0001b340       ?_Copy@?$_Func_impl@V<lambda_575df78f75be6e56c3c6d6f2c13351d7>@@V?$allocator@H@std@@XV?$function@$$A6AXHPEAV?$Local@VValue@v8@@@v8@@@Z@3@@std@@EEBAPEAV?$_Func_base@XV?$function@$$A6AXHPEAV?$Local@VValue@v8@@@v8@@@Z@std@@@2@PEAX@Z 000000018001c340 f i _nodert_generated.obj
 0001:0001b360       ?_Delete_this@?$_Func_impl@V<lambda_fc55a96778b695da9907353a9fdacbca>@@V?$allocator@H@std@@X$$V@std@@EEAAX_N@Z 000000018001c360 f i _nodert_generated.obj
 0001:0001b3b0       ?_Target_type@?$_Func_impl@V<lambda_fc55a96778b695da9907353a9fdacbca>@@V?$allocator@H@std@@X$$V@std@@EEBAAEBVtype_info@@XZ 000000018001c3b0 f i _nodert_generated.obj
 0001:0001b3c0       ?_Do_call@?$_Func_impl@V<lambda_fc55a96778b695da9907353a9fdacbca>@@V?$allocator@H@std@@X$$V@std@@EEAAXXZ 000000018001c3c0 f i _nodert_generated.obj
 0001:0001b3d0       ?_Move@?$_Func_impl@V<lambda_fc55a96778b695da9907353a9fdacbca>@@V?$allocator@H@std@@X$$V@std@@EEAAPEAV?$_Func_base@X$$V@2@PEAX@Z 000000018001c3d0 f i _nodert_generated.obj
 0001:0001b430       ?_Copy@?$_Func_impl@V<lambda_fc55a96778b695da9907353a9fdacbca>@@V?$allocator@H@std@@X$$V@std@@EEBAPEAV?$_Func_base@X$$V@2@PEAX@Z 000000018001c430 f i _nodert_generated.obj
 0001:0001b490       ?_Delete_this@?$_Func_impl@V<lambda_1af583cf6945007177c61d87505abd8e>@@V?$allocator@H@std@@XHPEAV?$Local@VValue@v8@@@v8@@@std@@EEAAX_N@Z 000000018001c490 f i _nodert_generated.obj
 0001:0001b4b0       ?_Target_type@?$_Func_impl@V<lambda_1af583cf6945007177c61d87505abd8e>@@V?$allocator@H@std@@XHPEAV?$Local@VValue@v8@@@v8@@@std@@EEBAAEBVtype_info@@XZ 000000018001c4b0 f i _nodert_generated.obj
 0001:0001b4c0       ?_Do_call@?$_Func_impl@V<lambda_1af583cf6945007177c61d87505abd8e>@@V?$allocator@H@std@@XHPEAV?$Local@VValue@v8@@@v8@@@std@@EEAAX$$QEAH$$QEAPEAV?$Local@VValue@v8@@@v8@@@Z 000000018001c4c0 f i _nodert_generated.obj
 0001:0001b4d0       ?_Move@?$_Func_impl@V<lambda_1af583cf6945007177c61d87505abd8e>@@V?$allocator@H@std@@XHPEAV?$Local@VValue@v8@@@v8@@@std@@EEAAPEAV?$_Func_base@XHPEAV?$Local@VValue@v8@@@v8@@@2@PEAX@Z 000000018001c4d0 f i _nodert_generated.obj
 0001:0001b4d0       ?_Copy@?$_Func_impl@V<lambda_1af583cf6945007177c61d87505abd8e>@@V?$allocator@H@std@@XHPEAV?$Local@VValue@v8@@@v8@@@std@@EEBAPEAV?$_Func_base@XHPEAV?$Local@VValue@v8@@@v8@@@2@PEAX@Z 000000018001c4d0 f i _nodert_generated.obj
 0001:0001b4f0       ?_Target_type@?$_Func_impl@V<lambda_394de31cb1e2557ca7df73bc20a87e56>@@V?$allocator@H@std@@_NV?$Local@VValue@v8@@@v8@@@std@@EEBAAEBVtype_info@@XZ 000000018001c4f0 f i _nodert_generated.obj
 0001:0001b500       ?_Do_call@?$_Func_impl@V<lambda_394de31cb1e2557ca7df73bc20a87e56>@@V?$allocator@H@std@@_NV?$Local@VValue@v8@@@v8@@@std@@EEAA_N$$QEAV?$Local@VValue@v8@@@v8@@@Z 000000018001c500 f i _nodert_generated.obj
 0001:0001b530       ?_Copy@?$_Func_impl@V<lambda_394de31cb1e2557ca7df73bc20a87e56>@@V?$allocator@H@std@@_NV?$Local@VValue@v8@@@v8@@@std@@EEBAPEAV?$_Func_base@_NV?$Local@VValue@v8@@@v8@@@2@PEAX@Z 000000018001c530 f i _nodert_generated.obj
 0001:0001b530       ?_Move@?$_Func_impl@V<lambda_394de31cb1e2557ca7df73bc20a87e56>@@V?$allocator@H@std@@_NV?$Local@VValue@v8@@@v8@@@std@@EEAAPEAV?$_Func_base@_NV?$Local@VValue@v8@@@v8@@@2@PEAX@Z 000000018001c530 f i _nodert_generated.obj
 0001:0001b550       ?_Target_type@?$_Func_impl@V<lambda_ee2800ccd2b011420c5de0c63356449b>@@V?$allocator@H@std@@X$$V@std@@EEBAAEBVtype_info@@XZ 000000018001c550 f i _nodert_generated.obj
 0001:0001b560       ?_Do_call@?$_Func_impl@V<lambda_ee2800ccd2b011420c5de0c63356449b>@@V?$allocator@H@std@@X$$V@std@@EEAAXXZ 000000018001c560 f i _nodert_generated.obj
 0001:0001b570       ?_Move@?$_Func_impl@V<lambda_ee2800ccd2b011420c5de0c63356449b>@@V?$allocator@H@std@@X$$V@std@@EEAAPEAV?$_Func_base@X$$V@2@PEAX@Z 000000018001c570 f i _nodert_generated.obj
 0001:0001b570       ?_Copy@?$_Func_impl@V<lambda_ee2800ccd2b011420c5de0c63356449b>@@V?$allocator@H@std@@X$$V@std@@EEBAPEAV?$_Func_base@X$$V@2@PEAX@Z 000000018001c570 f i _nodert_generated.obj
 0001:0001b590       ?_Delete_this@?$_Func_impl@V<lambda_f25c37099038263181b5186a3fa41b37>@@V?$allocator@H@std@@X$$V@std@@EEAAX_N@Z 000000018001c590 f i _nodert_generated.obj
 0001:0001b5c0       ?_Target_type@?$_Func_impl@V<lambda_f25c37099038263181b5186a3fa41b37>@@V?$allocator@H@std@@X$$V@std@@EEBAAEBVtype_info@@XZ 000000018001c5c0 f i _nodert_generated.obj
 0001:0001b5d0       ?_Do_call@?$_Func_impl@V<lambda_f25c37099038263181b5186a3fa41b37>@@V?$allocator@H@std@@X$$V@std@@EEAAXXZ 000000018001c5d0 f i _nodert_generated.obj
 0001:0001b610       ?_Move@?$_Func_impl@V<lambda_f25c37099038263181b5186a3fa41b37>@@V?$allocator@H@std@@X$$V@std@@EEAAPEAV?$_Func_base@X$$V@2@PEAX@Z 000000018001c610 f i _nodert_generated.obj
 0001:0001b650       ?_Copy@?$_Func_impl@V<lambda_f25c37099038263181b5186a3fa41b37>@@V?$allocator@H@std@@X$$V@std@@EEBAPEAV?$_Func_base@X$$V@2@PEAX@Z 000000018001c650 f i _nodert_generated.obj
 0001:0001b6a0       ??R?$_Func_class@EV?$task@X@Concurrency@@@std@@QEBAEV?$task@X@Concurrency@@@Z 000000018001c6a0 f i _nodert_generated.obj
 0001:0001b750       ??R?$_Func_class@EV?$task@PE$AAVWiFiConnectionResult@WiFi@Devices@Windows@@@Concurrency@@@std@@QEBAEV?$task@PE$AAVWiFiConnectionResult@WiFi@Devices@Windows@@@Concurrency@@@Z 000000018001c750 f i _nodert_generated.obj
 0001:0001b800       ??R?$_Func_class@EV?$task@PE$AAU?$IVectorView@PE$AAVWiFiAdapter@WiFi@Devices@Windows@@@Collections@Foundation@Windows@@@Concurrency@@@std@@QEBAEV?$task@PE$AAU?$IVectorView@PE$AAVWiFiAdapter@WiFi@Devices@Windows@@@Collections@Foundation@Windows@@@Concurrency@@@Z 000000018001c800 f i _nodert_generated.obj
 0001:0001b8b0       ??R?$_Func_class@EV?$task@PE$AAVWiFiAdapter@WiFi@Devices@Windows@@@Concurrency@@@std@@QEBAEV?$task@PE$AAVWiFiAdapter@WiFi@Devices@Windows@@@Concurrency@@@Z 000000018001c8b0 f i _nodert_generated.obj
 0001:0001b960       ??R?$_Func_class@EV?$task@W4WiFiAccessStatus@WiFi@Devices@Windows@@@Concurrency@@@std@@QEBAEV?$task@W4WiFiAccessStatus@WiFi@Devices@Windows@@@Concurrency@@@Z 000000018001c960 f i _nodert_generated.obj
 0001:0001ba10       ??R?$_Func_class@XV?$task@W4WiFiAccessStatus@WiFi@Devices@Windows@@@Concurrency@@@std@@QEBAXV?$task@W4WiFiAccessStatus@WiFi@Devices@Windows@@@Concurrency@@@Z 000000018001ca10 f i _nodert_generated.obj
 0001:0001bac0       ??R?$_Func_class@XV?$task@PE$AAVWiFiAdapter@WiFi@Devices@Windows@@@Concurrency@@@std@@QEBAXV?$task@PE$AAVWiFiAdapter@WiFi@Devices@Windows@@@Concurrency@@@Z 000000018001cac0 f i _nodert_generated.obj
 0001:0001bb70       ??R?$_Func_class@XV?$task@PE$AAU?$IVectorView@PE$AAVWiFiAdapter@WiFi@Devices@Windows@@@Collections@Foundation@Windows@@@Concurrency@@@std@@QEBAXV?$task@PE$AAU?$IVectorView@PE$AAVWiFiAdapter@WiFi@Devices@Windows@@@Collections@Foundation@Windows@@@Concurrency@@@Z 000000018001cb70 f i _nodert_generated.obj
 0001:0001bc20       ??R?$_Func_class@XV?$task@PE$AAVWiFiConnectionResult@WiFi@Devices@Windows@@@Concurrency@@@std@@QEBAXV?$task@PE$AAVWiFiConnectionResult@WiFi@Devices@Windows@@@Concurrency@@@Z 000000018001cc20 f i _nodert_generated.obj
 0001:0001bcd0       ??R?$_Func_class@XV?$task@X@Concurrency@@@std@@QEBAXV?$task@X@Concurrency@@@Z 000000018001ccd0 f i _nodert_generated.obj
 0001:0001bd80       ?_TaskInitAsyncOp@?$task@W4WiFiAccessStatus@WiFi@Devices@Windows@@@Concurrency@@AEAAXPE$AAU?$IAsyncOperation@W4WiFiAccessStatus@WiFi@Devices@Windows@@@Foundation@Windows@@@Z 000000018001cd80 f i _nodert_generated.obj
 0001:0001be40       ?_TaskInitAsyncOp@?$task@PE$AAVWiFiAdapter@WiFi@Devices@Windows@@@Concurrency@@AEAAXPE$AAU?$IAsyncOperation@PE$AAVWiFiAdapter@WiFi@Devices@Windows@@@Foundation@Windows@@@Z 000000018001ce40 f i _nodert_generated.obj
 0001:0001bf00       ?_TaskInitAsyncOp@?$task@PE$AAU?$IVectorView@PE$AAVWiFiAdapter@WiFi@Devices@Windows@@@Collections@Foundation@Windows@@@Concurrency@@AEAAXPE$AAU?$IAsyncOperation@PE$AAU?$IVectorView@PE$AAVWiFiAdapter@WiFi@Devices@Windows@@@Collections@Foundation@Windows@@@Foundation@Windows@@@Z 000000018001cf00 f i _nodert_generated.obj
 0001:0001bfc0       ?_TaskInitAsyncOp@?$task@PE$AAVWiFiConnectionResult@WiFi@Devices@Windows@@@Concurrency@@AEAAXPE$AAU?$IAsyncOperation@PE$AAVWiFiConnectionResult@WiFi@Devices@Windows@@@Foundation@Windows@@@Z 000000018001cfc0 f i _nodert_generated.obj
 0001:0001c080       ??$?0AEBV?$allocator@H@std@@V<lambda_394de31cb1e2557ca7df73bc20a87e56>@@@?$_Compressed_pair@V?$allocator@H@std@@V<lambda_394de31cb1e2557ca7df73bc20a87e56>@@$00@std@@QEAA@U_One_then_variadic_args_t@1@AEBV?$allocator@H@1@$$QEAV<lambda_394de31cb1e2557ca7df73bc20a87e56>@@@Z 000000018001d080 f i _nodert_generated.obj
 0001:0001c080       ??$?0AEBV?$allocator@H@std@@@?$_Wrap_alloc@V?$allocator@V?$_Func_impl@V<lambda_394de31cb1e2557ca7df73bc20a87e56>@@V?$allocator@H@std@@_NV?$Local@VValue@v8@@@v8@@@std@@@std@@@std@@QEAA@AEBV?$allocator@H@1@@Z 000000018001d080 f i _nodert_generated.obj
 0001:0001c090       ??$?0V<lambda_fabbb294be36e42af330e23943182f39>@@EX@?$function@$$A6AEV?$task@W4WiFiAccessStatus@WiFi@Devices@Windows@@@Concurrency@@@Z@std@@QEAA@V<lambda_fabbb294be36e42af330e23943182f39>@@@Z 000000018001d090 f i _nodert_generated.obj
 0001:0001c120       ??$?0V<lambda_6d9be390a0d0310de9e6f9a11a95eeaf>@@EX@?$function@$$A6AEV?$task@PE$AAVWiFiAdapter@WiFi@Devices@Windows@@@Concurrency@@@Z@std@@QEAA@V<lambda_6d9be390a0d0310de9e6f9a11a95eeaf>@@@Z 000000018001d120 f i _nodert_generated.obj
 0001:0001c1b0       ??$?0V<lambda_85765119efc67a7064e73cc055ab740f>@@EX@?$function@$$A6AEV?$task@PE$AAU?$IVectorView@PE$AAVWiFiAdapter@WiFi@Devices@Windows@@@Collections@Foundation@Windows@@@Concurrency@@@Z@std@@QEAA@V<lambda_85765119efc67a7064e73cc055ab740f>@@@Z 000000018001d1b0 f i _nodert_generated.obj
 0001:0001c240       ??$?0V<lambda_2ebdab9cc8d71a78c6d6e5d0333b6c35>@@EX@?$function@$$A6AEV?$task@PE$AAVWiFiConnectionResult@WiFi@Devices@Windows@@@Concurrency@@@Z@std@@QEAA@V<lambda_2ebdab9cc8d71a78c6d6e5d0333b6c35>@@@Z 000000018001d240 f i _nodert_generated.obj
 0001:0001c2d0       ??$?0V<lambda_d4a8bb1d3b7ec2bea7766c2745f0ce11>@@EX@?$function@$$A6AEV?$task@X@Concurrency@@@Z@std@@QEAA@V<lambda_d4a8bb1d3b7ec2bea7766c2745f0ce11>@@@Z 000000018001d2d0 f i _nodert_generated.obj
 0001:0001c360       ??$_Invoke_ret@PE$AAVWiFiAvailableNetwork@WiFi@Devices@Windows@@AEAV<lambda_e0f5f8496c987d2738a350a69618b6a8>@@V?$Local@VValue@v8@@@v8@@@std@@YAPE$AAVWiFiAvailableNetwork@WiFi@Devices@Windows@@U?$_Forced@PE$AAVWiFiAvailableNetwork@WiFi@Devices@Windows@@$0A@@0@AEAV<lambda_e0f5f8496c987d2738a350a69618b6a8>@@$$QEAV?$Local@VValue@v8@@@v8@@@Z 000000018001d360 f i _nodert_generated.obj
 0001:0001c360       ??$_Invoke_ret@PE$AAVWiFiAdapter@WiFi@Devices@Windows@@AEAV<lambda_5bc6d3dfd96b81b557d2ca3987bcfe7e>@@V?$Local@VValue@v8@@@v8@@@std@@YAPE$AAVWiFiAdapter@WiFi@Devices@Windows@@U?$_Forced@PE$AAVWiFiAdapter@WiFi@Devices@Windows@@$0A@@0@AEAV<lambda_5bc6d3dfd96b81b557d2ca3987bcfe7e>@@$$QEAV?$Local@VValue@v8@@@v8@@@Z 000000018001d360 f i _nodert_generated.obj
 0001:0001c580       ?__abi_Windows_Foundation_?$AsyncOperationCompletedHandler@W4WiFiAccessStatus@WiFi@Devices@Windows@@___abi_IDelegate____abi_Invoke@?Q__abi_IDelegate@?$AsyncOperationCompletedHandler@W4WiFiAccessStatus@WiFi@Devices@Windows@@@Foundation@Windows@@234@UE$AAAJPE$AAU?$IAsyncOperation@W4WiFiAccessStatus@WiFi@Devices@Windows@@@34@W4AsyncStatus@34@@Z 000000018001d580 f i _nodert_generated.obj
 0001:0001c5d0       ?__abi_QueryInterface@?$AsyncOperationCompletedHandler@W4WiFiAccessStatus@WiFi@Devices@Windows@@@Foundation@Windows@@UE$AAAJAEAVGuid@Platform@@PEAPEAX@Z 000000018001d5d0 f i _nodert_generated.obj
 0001:0001c700       ?__abi_GetRuntimeClassName@?$AsyncOperationCompletedHandler@W4WiFiAccessStatus@WiFi@Devices@Windows@@@Foundation@Windows@@UE$AAAJPEAPEAUHSTRING__@@@Z 000000018001d700 f i _nodert_generated.obj
 0001:0001c720       ?Invoke@?$AsyncOperationCompletedHandler@W4WiFiAccessStatus@WiFi@Devices@Windows@@@Foundation@Windows@@UE$AAAXPE$AAU?$IAsyncOperation@W4WiFiAccessStatus@WiFi@Devices@Windows@@@23@W4AsyncStatus@23@@Z 000000018001d720 f i _nodert_generated.obj
 0001:0001c900       ?__abi_Windows_Foundation_?$AsyncOperationCompletedHandler@PE$AAVWiFiAdapter@WiFi@Devices@Windows@@___abi_IDelegate____abi_Invoke@?Q__abi_IDelegate@?$AsyncOperationCompletedHandler@PE$AAVWiFiAdapter@WiFi@Devices@Windows@@@Foundation@Windows@@234@UE$AAAJPE$AAU?$IAsyncOperation@PE$AAVWiFiAdapter@WiFi@Devices@Windows@@@34@W4AsyncStatus@34@@Z 000000018001d900 f i _nodert_generated.obj
 0001:0001c950       ?__abi_QueryInterface@?$AsyncOperationCompletedHandler@PE$AAVWiFiAdapter@WiFi@Devices@Windows@@@Foundation@Windows@@UE$AAAJAEAVGuid@Platform@@PEAPEAX@Z 000000018001d950 f i _nodert_generated.obj
 0001:0001ca80       ?__abi_GetRuntimeClassName@?$AsyncOperationCompletedHandler@PE$AAVWiFiAdapter@WiFi@Devices@Windows@@@Foundation@Windows@@UE$AAAJPEAPEAUHSTRING__@@@Z 000000018001da80 f i _nodert_generated.obj
 0001:0001caa0       ?Invoke@?$AsyncOperationCompletedHandler@PE$AAVWiFiAdapter@WiFi@Devices@Windows@@@Foundation@Windows@@UE$AAAXPE$AAU?$IAsyncOperation@PE$AAVWiFiAdapter@WiFi@Devices@Windows@@@23@W4AsyncStatus@23@@Z 000000018001daa0 f i _nodert_generated.obj
 0001:0001cc80       ?__abi_Windows_Foundation_?$AsyncOperationCompletedHandler@PE$AAU?$IVectorView@PE$AAVWiFiAdapter@WiFi@Devices@Windows@@@Collections@Foundation@Windows@@___abi_IDelegate____abi_Invoke@?Q__abi_IDelegate@?$AsyncOperationCompletedHandler@PE$AAU?$IVectorView@PE$AAVWiFiAdapter@WiFi@Devices@Windows@@@Collections@Foundation@Windows@@@Foundation@Windows@@234@UE$AAAJPE$AAU?$IAsyncOperation@PE$AAU?$IVectorView@PE$AAVWiFiAdapter@WiFi@Devices@Windows@@@Collections@Foundation@Windows@@@34@W4AsyncStatus@34@@Z 000000018001dc80 f i _nodert_generated.obj
 0001:0001ccd0       ?__abi_QueryInterface@?$AsyncOperationCompletedHandler@PE$AAU?$IVectorView@PE$AAVWiFiAdapter@WiFi@Devices@Windows@@@Collections@Foundation@Windows@@@Foundation@Windows@@UE$AAAJAEAVGuid@Platform@@PEAPEAX@Z 000000018001dcd0 f i _nodert_generated.obj
 0001:0001ce00       ?__abi_GetRuntimeClassName@?$AsyncOperationCompletedHandler@PE$AAU?$IVectorView@PE$AAVWiFiAdapter@WiFi@Devices@Windows@@@Collections@Foundation@Windows@@@Foundation@Windows@@UE$AAAJPEAPEAUHSTRING__@@@Z 000000018001de00 f i _nodert_generated.obj
 0001:0001ce20       ?Invoke@?$AsyncOperationCompletedHandler@PE$AAU?$IVectorView@PE$AAVWiFiAdapter@WiFi@Devices@Windows@@@Collections@Foundation@Windows@@@Foundation@Windows@@UE$AAAXPE$AAU?$IAsyncOperation@PE$AAU?$IVectorView@PE$AAVWiFiAdapter@WiFi@Devices@Windows@@@Collections@Foundation@Windows@@@23@W4AsyncStatus@23@@Z 000000018001de20 f i _nodert_generated.obj
 0001:0001ce60       ?__abi_Windows_Foundation_?$AsyncOperationCompletedHandler@PE$AAVWiFiConnectionResult@WiFi@Devices@Windows@@___abi_IDelegate____abi_Invoke@?Q__abi_IDelegate@?$AsyncOperationCompletedHandler@PE$AAVWiFiConnectionResult@WiFi@Devices@Windows@@@Foundation@Windows@@234@UE$AAAJPE$AAU?$IAsyncOperation@PE$AAVWiFiConnectionResult@WiFi@Devices@Windows@@@34@W4AsyncStatus@34@@Z 000000018001de60 f i _nodert_generated.obj
 0001:0001ceb0       ?__abi_QueryInterface@?$AsyncOperationCompletedHandler@PE$AAVWiFiConnectionResult@WiFi@Devices@Windows@@@Foundation@Windows@@UE$AAAJAEAVGuid@Platform@@PEAPEAX@Z 000000018001deb0 f i _nodert_generated.obj
 0001:0001cfe0       ?__abi_GetRuntimeClassName@?$AsyncOperationCompletedHandler@PE$AAVWiFiConnectionResult@WiFi@Devices@Windows@@@Foundation@Windows@@UE$AAAJPEAPEAUHSTRING__@@@Z 000000018001dfe0 f i _nodert_generated.obj
 0001:0001d000       ?Invoke@?$AsyncOperationCompletedHandler@PE$AAVWiFiConnectionResult@WiFi@Devices@Windows@@@Foundation@Windows@@UE$AAAXPE$AAU?$IAsyncOperation@PE$AAVWiFiConnectionResult@WiFi@Devices@Windows@@@23@W4AsyncStatus@23@@Z 000000018001e000 f i _nodert_generated.obj
 0001:0001d040       ??_E?$_Ref_count_obj@U?$_Task_impl@PE$AAU?$IVectorView@PE$AAVWiFiAdapter@WiFi@Devices@Windows@@@Collections@Foundation@Windows@@@details@Concurrency@@@std@@UEAAPEAXI@Z 000000018001e040 f i * CIL library *:* CIL module *
 0001:0001d040       ??_G?$_Ref_count_obj@U?$_Task_impl@PE$AAU?$IVectorView@PE$AAVWiFiAdapter@WiFi@Devices@Windows@@@Collections@Foundation@Windows@@@details@Concurrency@@@std@@UEAAPEAXI@Z 000000018001e040 f i _nodert_generated.obj
 0001:0001d070       ?_Delete_this@?$_Func_impl@V<lambda_b35fdbc63eaf6c602f1361040fea34ad>@@V?$allocator@H@std@@XV?$task@W4WiFiAccessStatus@WiFi@Devices@Windows@@@Concurrency@@@std@@EEAAX_N@Z 000000018001e070 f i _nodert_generated.obj
 0001:0001d090       ?_Target_type@?$_Func_impl@V<lambda_b35fdbc63eaf6c602f1361040fea34ad>@@V?$allocator@H@std@@XV?$task@W4WiFiAccessStatus@WiFi@Devices@Windows@@@Concurrency@@@std@@EEBAAEBVtype_info@@XZ 000000018001e090 f i _nodert_generated.obj
 0001:0001d0a0       ?_Do_call@?$_Func_impl@V<lambda_b35fdbc63eaf6c602f1361040fea34ad>@@V?$allocator@H@std@@XV?$task@W4WiFiAccessStatus@WiFi@Devices@Windows@@@Concurrency@@@std@@EEAAX$$QEAV?$task@W4WiFiAccessStatus@WiFi@Devices@Windows@@@Concurrency@@@Z 000000018001e0a0 f i _nodert_generated.obj
 0001:0001d0e0       ?_Copy@?$_Func_impl@V<lambda_b35fdbc63eaf6c602f1361040fea34ad>@@V?$allocator@H@std@@XV?$task@W4WiFiAccessStatus@WiFi@Devices@Windows@@@Concurrency@@@std@@EEBAPEAV?$_Func_base@XV?$task@W4WiFiAccessStatus@WiFi@Devices@Windows@@@Concurrency@@@2@PEAX@Z 000000018001e0e0 f i _nodert_generated.obj
 0001:0001d0e0       ?_Move@?$_Func_impl@V<lambda_b35fdbc63eaf6c602f1361040fea34ad>@@V?$allocator@H@std@@XV?$task@W4WiFiAccessStatus@WiFi@Devices@Windows@@@Concurrency@@@std@@EEAAPEAV?$_Func_base@XV?$task@W4WiFiAccessStatus@WiFi@Devices@Windows@@@Concurrency@@@2@PEAX@Z 000000018001e0e0 f i _nodert_generated.obj
 0001:0001d100       ?_Delete_this@?$_Func_impl@V<lambda_e03a7ec937e836cf062062cbea779d3e>@@V?$allocator@H@std@@XV?$task@PE$AAVWiFiAdapter@WiFi@Devices@Windows@@@Concurrency@@@std@@EEAAX_N@Z 000000018001e100 f i _nodert_generated.obj
 0001:0001d120       ?_Target_type@?$_Func_impl@V<lambda_e03a7ec937e836cf062062cbea779d3e>@@V?$allocator@H@std@@XV?$task@PE$AAVWiFiAdapter@WiFi@Devices@Windows@@@Concurrency@@@std@@EEBAAEBVtype_info@@XZ 000000018001e120 f i _nodert_generated.obj
 0001:0001d130       ?_Do_call@?$_Func_impl@V<lambda_e03a7ec937e836cf062062cbea779d3e>@@V?$allocator@H@std@@XV?$task@PE$AAVWiFiAdapter@WiFi@Devices@Windows@@@Concurrency@@@std@@EEAAX$$QEAV?$task@PE$AAVWiFiAdapter@WiFi@Devices@Windows@@@Concurrency@@@Z 000000018001e130 f i _nodert_generated.obj
 0001:0001d170       ?_Move@?$_Func_impl@V<lambda_e03a7ec937e836cf062062cbea779d3e>@@V?$allocator@H@std@@XV?$task@PE$AAVWiFiAdapter@WiFi@Devices@Windows@@@Concurrency@@@std@@EEAAPEAV?$_Func_base@XV?$task@PE$AAVWiFiAdapter@WiFi@Devices@Windows@@@Concurrency@@@2@PEAX@Z 000000018001e170 f i _nodert_generated.obj
 0001:0001d170       ?_Copy@?$_Func_impl@V<lambda_e03a7ec937e836cf062062cbea779d3e>@@V?$allocator@H@std@@XV?$task@PE$AAVWiFiAdapter@WiFi@Devices@Windows@@@Concurrency@@@std@@EEBAPEAV?$_Func_base@XV?$task@PE$AAVWiFiAdapter@WiFi@Devices@Windows@@@Concurrency@@@2@PEAX@Z 000000018001e170 f i _nodert_generated.obj
 0001:0001d190       ?_Delete_this@?$_Func_impl@V<lambda_45bc1edc407ccfe1fa050aed513212a8>@@V?$allocator@H@std@@XV?$task@PE$AAU?$IVectorView@PE$AAVWiFiAdapter@WiFi@Devices@Windows@@@Collections@Foundation@Windows@@@Concurrency@@@std@@EEAAX_N@Z 000000018001e190 f i _nodert_generated.obj
 0001:0001d1b0       ?_Target_type@?$_Func_impl@V<lambda_45bc1edc407ccfe1fa050aed513212a8>@@V?$allocator@H@std@@XV?$task@PE$AAU?$IVectorView@PE$AAVWiFiAdapter@WiFi@Devices@Windows@@@Collections@Foundation@Windows@@@Concurrency@@@std@@EEBAAEBVtype_info@@XZ 000000018001e1b0 f i _nodert_generated.obj
 0001:0001d1c0       ?_Do_call@?$_Func_impl@V<lambda_45bc1edc407ccfe1fa050aed513212a8>@@V?$allocator@H@std@@XV?$task@PE$AAU?$IVectorView@PE$AAVWiFiAdapter@WiFi@Devices@Windows@@@Collections@Foundation@Windows@@@Concurrency@@@std@@EEAAX$$QEAV?$task@PE$AAU?$IVectorView@PE$AAVWiFiAdapter@WiFi@Devices@Windows@@@Collections@Foundation@Windows@@@Concurrency@@@Z 000000018001e1c0 f i _nodert_generated.obj
 0001:0001d200       ?_Copy@?$_Func_impl@V<lambda_45bc1edc407ccfe1fa050aed513212a8>@@V?$allocator@H@std@@XV?$task@PE$AAU?$IVectorView@PE$AAVWiFiAdapter@WiFi@Devices@Windows@@@Collections@Foundation@Windows@@@Concurrency@@@std@@EEBAPEAV?$_Func_base@XV?$task@PE$AAU?$IVectorView@PE$AAVWiFiAdapter@WiFi@Devices@Windows@@@Collections@Foundation@Windows@@@Concurrency@@@2@PEAX@Z 000000018001e200 f i _nodert_generated.obj
 0001:0001d200       ?_Move@?$_Func_impl@V<lambda_45bc1edc407ccfe1fa050aed513212a8>@@V?$allocator@H@std@@XV?$task@PE$AAU?$IVectorView@PE$AAVWiFiAdapter@WiFi@Devices@Windows@@@Collections@Foundation@Windows@@@Concurrency@@@std@@EEAAPEAV?$_Func_base@XV?$task@PE$AAU?$IVectorView@PE$AAVWiFiAdapter@WiFi@Devices@Windows@@@Collections@Foundation@Windows@@@Concurrency@@@2@PEAX@Z 000000018001e200 f i _nodert_generated.obj
 0001:0001d220       ?_Delete_this@?$_Func_impl@V<lambda_dbe8bba2fdc06b28517f8829416a6436>@@V?$allocator@H@std@@XV?$task@PE$AAVWiFiConnectionResult@WiFi@Devices@Windows@@@Concurrency@@@std@@EEAAX_N@Z 000000018001e220 f i _nodert_generated.obj
 0001:0001d240       ?_Target_type@?$_Func_impl@V<lambda_dbe8bba2fdc06b28517f8829416a6436>@@V?$allocator@H@std@@XV?$task@PE$AAVWiFiConnectionResult@WiFi@Devices@Windows@@@Concurrency@@@std@@EEBAAEBVtype_info@@XZ 000000018001e240 f i _nodert_generated.obj
 0001:0001d250       ?_Do_call@?$_Func_impl@V<lambda_dbe8bba2fdc06b28517f8829416a6436>@@V?$allocator@H@std@@XV?$task@PE$AAVWiFiConnectionResult@WiFi@Devices@Windows@@@Concurrency@@@std@@EEAAX$$QEAV?$task@PE$AAVWiFiConnectionResult@WiFi@Devices@Windows@@@Concurrency@@@Z 000000018001e250 f i _nodert_generated.obj
 0001:0001d290       ?_Move@?$_Func_impl@V<lambda_dbe8bba2fdc06b28517f8829416a6436>@@V?$allocator@H@std@@XV?$task@PE$AAVWiFiConnectionResult@WiFi@Devices@Windows@@@Concurrency@@@std@@EEAAPEAV?$_Func_base@XV?$task@PE$AAVWiFiConnectionResult@WiFi@Devices@Windows@@@Concurrency@@@2@PEAX@Z 000000018001e290 f i _nodert_generated.obj
 0001:0001d290       ?_Copy@?$_Func_impl@V<lambda_dbe8bba2fdc06b28517f8829416a6436>@@V?$allocator@H@std@@XV?$task@PE$AAVWiFiConnectionResult@WiFi@Devices@Windows@@@Concurrency@@@std@@EEBAPEAV?$_Func_base@XV?$task@PE$AAVWiFiConnectionResult@WiFi@Devices@Windows@@@Concurrency@@@2@PEAX@Z 000000018001e290 f i _nodert_generated.obj
 0001:0001d2b0       ?_Delete_this@?$_Func_impl@V<lambda_196da8969df2293b3f20f1c35ff63462>@@V?$allocator@H@std@@XV?$task@X@Concurrency@@@std@@EEAAX_N@Z 000000018001e2b0 f i _nodert_generated.obj
 0001:0001d2d0       ?_Target_type@?$_Func_impl@V<lambda_196da8969df2293b3f20f1c35ff63462>@@V?$allocator@H@std@@XV?$task@X@Concurrency@@@std@@EEBAAEBVtype_info@@XZ 000000018001e2d0 f i _nodert_generated.obj
 0001:0001d2e0       ?_Do_call@?$_Func_impl@V<lambda_196da8969df2293b3f20f1c35ff63462>@@V?$allocator@H@std@@XV?$task@X@Concurrency@@@std@@EEAAX$$QEAV?$task@X@Concurrency@@@Z 000000018001e2e0 f i _nodert_generated.obj
 0001:0001d320       ?_Move@?$_Func_impl@V<lambda_196da8969df2293b3f20f1c35ff63462>@@V?$allocator@H@std@@XV?$task@X@Concurrency@@@std@@EEAAPEAV?$_Func_base@XV?$task@X@Concurrency@@@2@PEAX@Z 000000018001e320 f i _nodert_generated.obj
 0001:0001d320       ?_Copy@?$_Func_impl@V<lambda_196da8969df2293b3f20f1c35ff63462>@@V?$allocator@H@std@@XV?$task@X@Concurrency@@@std@@EEBAPEAV?$_Func_base@XV?$task@X@Concurrency@@@2@PEAX@Z 000000018001e320 f i _nodert_generated.obj
 0001:0001d340       ?_SetUnwrappedAsyncOp@?$_Task_impl@W4WiFiAccessStatus@WiFi@Devices@Windows@@@details@Concurrency@@QEAAXPE$AAU?$IAsyncOperation@W4WiFiAccessStatus@WiFi@Devices@Windows@@@Foundation@Windows@@@Z 000000018001e340 f i _nodert_generated.obj
 0001:0001d470       ?_FinalizeAndRunContinuations@?$_Task_impl@W4WiFiAccessStatus@WiFi@Devices@Windows@@@details@Concurrency@@QEAAXW4WiFiAccessStatus@WiFi@Devices@Windows@@@Z 000000018001e470 f i _nodert_generated.obj
 0001:0001d500       ??0?$_Task_impl@W4WiFiAccessStatus@WiFi@Devices@Windows@@@details@Concurrency@@QEAA@PEAV_CancellationTokenState@12@Uscheduler_ptr@2@@Z 000000018001e500 f i _nodert_generated.obj
 0001:0001d5b0       ?_SetUnwrappedAsyncOp@?$_Task_impl@PE$AAVWiFiAdapter@WiFi@Devices@Windows@@@details@Concurrency@@QEAAXPE$AAU?$IAsyncOperation@PE$AAVWiFiAdapter@WiFi@Devices@Windows@@@Foundation@Windows@@@Z 000000018001e5b0 f i _nodert_generated.obj
 0001:0001d6e0       ?_FinalizeAndRunContinuations@?$_Task_impl@PE$AAVWiFiConnectionResult@WiFi@Devices@Windows@@@details@Concurrency@@QEAAXPE$AAVWiFiConnectionResult@WiFi@Devices@Windows@@@Z 000000018001e6e0 f i _nodert_generated.obj
 0001:0001d6e0       ?_FinalizeAndRunContinuations@?$_Task_impl@PE$AAVWiFiAdapter@WiFi@Devices@Windows@@@details@Concurrency@@QEAAXPE$AAVWiFiAdapter@WiFi@Devices@Windows@@@Z 000000018001e6e0 f i _nodert_generated.obj
 0001:0001d7d0       ??0?$_Task_impl@PE$AAVWiFiAdapter@WiFi@Devices@Windows@@@details@Concurrency@@QEAA@PEAV_CancellationTokenState@12@Uscheduler_ptr@2@@Z 000000018001e7d0 f i _nodert_generated.obj
 0001:0001d890       ?_SetUnwrappedAsyncOp@?$_Task_impl@PE$AAU?$IVectorView@PE$AAVWiFiAdapter@WiFi@Devices@Windows@@@Collections@Foundation@Windows@@@details@Concurrency@@QEAAXPE$AAU?$IAsyncOperation@PE$AAU?$IVectorView@PE$AAVWiFiAdapter@WiFi@Devices@Windows@@@Collections@Foundation@Windows@@@Foundation@Windows@@@Z 000000018001e890 f i _nodert_generated.obj
 0001:0001d9c0       ?_FinalizeAndRunContinuations@?$_Task_impl@PE$AAU?$IVectorView@PE$AAVWiFiAdapter@WiFi@Devices@Windows@@@Collections@Foundation@Windows@@@details@Concurrency@@QEAAXPE$AAU?$IVectorView@PE$AAVWiFiAdapter@WiFi@Devices@Windows@@@Collections@Foundation@Windows@@@Z 000000018001e9c0 f i _nodert_generated.obj
 0001:0001da90       ??0?$_Task_impl@PE$AAU?$IVectorView@PE$AAVWiFiAdapter@WiFi@Devices@Windows@@@Collections@Foundation@Windows@@@details@Concurrency@@QEAA@PEAV_CancellationTokenState@12@Uscheduler_ptr@2@@Z 000000018001ea90 f i _nodert_generated.obj
 0001:0001db60       ?_SetUnwrappedAsyncOp@?$_Task_impl@PE$AAVWiFiConnectionResult@WiFi@Devices@Windows@@@details@Concurrency@@QEAAXPE$AAU?$IAsyncOperation@PE$AAVWiFiConnectionResult@WiFi@Devices@Windows@@@Foundation@Windows@@@Z 000000018001eb60 f i _nodert_generated.obj
 0001:0001dc90       ??0?$_Task_impl@PE$AAVWiFiConnectionResult@WiFi@Devices@Windows@@@details@Concurrency@@QEAA@PEAV_CancellationTokenState@12@Uscheduler_ptr@2@@Z 000000018001ec90 f i _nodert_generated.obj
 0001:0001dd50       ??4?$Agile@PE$AAU?$IVectorView@PE$AAVWiFiAdapter@WiFi@Devices@Windows@@@Collections@Foundation@Windows@@$00@Platform@@QEAAAEAV01@PE$AAU?$IVectorView@PE$AAVWiFiAdapter@WiFi@Devices@Windows@@@Collections@Foundation@Windows@@@Z 000000018001ed50 f i _nodert_generated.obj
 0001:0001dea0       ?GetResults@?$IAsyncOperation@PE$AAU?$IVectorView@PE$AAVWiFiAdapter@WiFi@Devices@Windows@@@Collections@Foundation@Windows@@@Foundation@Windows@@UE$AAAPE$AAU?$IVectorView@PE$AAVWiFiAdapter@WiFi@Devices@Windows@@@Collections@23@XZ 000000018001eea0 f i _nodert_generated.obj
 0001:0001dea0       ?GetResults@?$IAsyncOperation@PE$AAVWiFiAdapter@WiFi@Devices@Windows@@@Foundation@Windows@@UE$AAAPE$AAVWiFiAdapter@WiFi@Devices@3@XZ 000000018001eea0 f i _nodert_generated.obj
 0001:0001dea0       ?GetResults@?$IAsyncOperation@PE$AAVWiFiConnectionResult@WiFi@Devices@Windows@@@Foundation@Windows@@UE$AAAPE$AAVWiFiConnectionResult@WiFi@Devices@3@XZ 000000018001eea0 f i _nodert_generated.obj
 0001:0001df00       ??$_Reset@V<lambda_fabbb294be36e42af330e23943182f39>@@@?$_Func_class@EV?$task@W4WiFiAccessStatus@WiFi@Devices@Windows@@@Concurrency@@@std@@IEAAX$$QEAV<lambda_fabbb294be36e42af330e23943182f39>@@@Z 000000018001ef00 f i _nodert_generated.obj
 0001:0001dfb0       ??$_Reset@V<lambda_6d9be390a0d0310de9e6f9a11a95eeaf>@@@?$_Func_class@EV?$task@PE$AAVWiFiAdapter@WiFi@Devices@Windows@@@Concurrency@@@std@@IEAAX$$QEAV<lambda_6d9be390a0d0310de9e6f9a11a95eeaf>@@@Z 000000018001efb0 f i _nodert_generated.obj
 0001:0001e060       ??$_Reset@V<lambda_85765119efc67a7064e73cc055ab740f>@@@?$_Func_class@EV?$task@PE$AAU?$IVectorView@PE$AAVWiFiAdapter@WiFi@Devices@Windows@@@Collections@Foundation@Windows@@@Concurrency@@@std@@IEAAX$$QEAV<lambda_85765119efc67a7064e73cc055ab740f>@@@Z 000000018001f060 f i _nodert_generated.obj
 0001:0001e110       ??$_Reset@V<lambda_2ebdab9cc8d71a78c6d6e5d0333b6c35>@@@?$_Func_class@EV?$task@PE$AAVWiFiConnectionResult@WiFi@Devices@Windows@@@Concurrency@@@std@@IEAAX$$QEAV<lambda_2ebdab9cc8d71a78c6d6e5d0333b6c35>@@@Z 000000018001f110 f i _nodert_generated.obj
 0001:0001e1c0       ??$_Reset@V<lambda_d4a8bb1d3b7ec2bea7766c2745f0ce11>@@@?$_Func_class@EV?$task@X@Concurrency@@@std@@IEAAX$$QEAV<lambda_d4a8bb1d3b7ec2bea7766c2745f0ce11>@@@Z 000000018001f1c0 f i _nodert_generated.obj
 0001:0001e270       ??$?0V<lambda_bd36e4550c07aa6279a00ca606e5e690>@@@?$AsyncOperationCompletedHandler@W4WiFiAccessStatus@WiFi@Devices@Windows@@@Foundation@Windows@@QE$AAA@V<lambda_bd36e4550c07aa6279a00ca606e5e690>@@W4CallbackContext@Platform@@_N@Z 000000018001f270 f i _nodert_generated.obj
 0001:0001e370       ??$?0V<lambda_cc9b10b2bfbca148cbf6cbf67ef94e36>@@@?$AsyncOperationCompletedHandler@PE$AAVWiFiAdapter@WiFi@Devices@Windows@@@Foundation@Windows@@QE$AAA@V<lambda_cc9b10b2bfbca148cbf6cbf67ef94e36>@@W4CallbackContext@Platform@@_N@Z 000000018001f370 f i _nodert_generated.obj
 0001:0001e470       ??$?0V<lambda_585ed612c2d693254ec4a52eb6b5009a>@@@?$AsyncOperationCompletedHandler@PE$AAU?$IVectorView@PE$AAVWiFiAdapter@WiFi@Devices@Windows@@@Collections@Foundation@Windows@@@Foundation@Windows@@QE$AAA@V<lambda_585ed612c2d693254ec4a52eb6b5009a>@@W4CallbackContext@Platform@@_N@Z 000000018001f470 f i _nodert_generated.obj
 0001:0001e570       ??$?0V<lambda_1be61911d0911224a6a5e596bb6a6971>@@@?$AsyncOperationCompletedHandler@PE$AAVWiFiConnectionResult@WiFi@Devices@Windows@@@Foundation@Windows@@QE$AAA@V<lambda_1be61911d0911224a6a5e596bb6a6971>@@W4CallbackContext@Platform@@_N@Z 000000018001f570 f i _nodert_generated.obj
 0001:0001e670       ??$?4V<lambda_334307b97ee5f2466f8dfc680b54dc48>@@XX@?$function@$$A6AXXZ@std@@QEAAAEAV01@$$QEAV<lambda_334307b97ee5f2466f8dfc680b54dc48>@@@Z 000000018001f670 f i _nodert_generated.obj
 0001:0001e740       ??$?4V<lambda_e7219b7c2136ee68b6238814f2197cbc>@@XX@?$function@$$A6AXXZ@std@@QEAAAEAV01@$$QEAV<lambda_e7219b7c2136ee68b6238814f2197cbc>@@@Z 000000018001f740 f i _nodert_generated.obj
 0001:0001e810       ??$?4V<lambda_d3aafd0b57b73d2f9a296ee38aa3e67b>@@XX@?$function@$$A6AXXZ@std@@QEAAAEAV01@$$QEAV<lambda_d3aafd0b57b73d2f9a296ee38aa3e67b>@@@Z 000000018001f810 f i _nodert_generated.obj
 0001:0001e8e0       ??$?4V<lambda_43dba3b136f953be73dc2826e9f03afb>@@XX@?$function@$$A6AXXZ@std@@QEAAAEAV01@$$QEAV<lambda_43dba3b136f953be73dc2826e9f03afb>@@@Z 000000018001f8e0 f i _nodert_generated.obj
 0001:0001e9b0       ??$swap@PE$AAU?$IVectorView@PE$AAVWiFiAdapter@WiFi@Devices@Windows@@@Collections@Foundation@Windows@@X@std@@YAXAEAPE$AAU?$IVectorView@PE$AAVWiFiAdapter@WiFi@Devices@Windows@@@Collections@Foundation@Windows@@0@Z 000000018001f9b0 f i _nodert_generated.obj
 0001:0001ea60       ?Invoke@?$__abi_FunctorCapture@V<lambda_1be61911d0911224a6a5e596bb6a6971>@@XPE$AAU?$IAsyncOperation@PE$AAVWiFiConnectionResult@WiFi@Devices@Windows@@@Foundation@Windows@@W4AsyncStatus@34@@Details@Platform@@UEAAXPE$AAU?$IAsyncOperation@PE$AAVWiFiConnectionResult@WiFi@Devices@Windows@@@Foundation@Windows@@W4AsyncStatus@56@@Z 000000018001fa60 f i _nodert_generated.obj
 0001:0001ea60       ?Invoke@?$__abi_FunctorCapture@V<lambda_cc9b10b2bfbca148cbf6cbf67ef94e36>@@XPE$AAU?$IAsyncOperation@PE$AAVWiFiAdapter@WiFi@Devices@Windows@@@Foundation@Windows@@W4AsyncStatus@34@@Details@Platform@@UEAAXPE$AAU?$IAsyncOperation@PE$AAVWiFiAdapter@WiFi@Devices@Windows@@@Foundation@Windows@@W4AsyncStatus@56@@Z 000000018001fa60 f i _nodert_generated.obj
 0001:0001ea70       ??0?$__abi_FunctorCapture@V<lambda_1be61911d0911224a6a5e596bb6a6971>@@XPE$AAU?$IAsyncOperation@PE$AAVWiFiConnectionResult@WiFi@Devices@Windows@@@Foundation@Windows@@W4AsyncStatus@34@@Details@Platform@@QEAA@V<lambda_1be61911d0911224a6a5e596bb6a6971>@@@Z 000000018001fa70 f i _nodert_generated.obj
 0001:0001eb10       ?Invoke@?$__abi_FunctorCapture@V<lambda_585ed612c2d693254ec4a52eb6b5009a>@@XPE$AAU?$IAsyncOperation@PE$AAU?$IVectorView@PE$AAVWiFiAdapter@WiFi@Devices@Windows@@@Collections@Foundation@Windows@@@Foundation@Windows@@W4AsyncStatus@34@@Details@Platform@@UEAAXPE$AAU?$IAsyncOperation@PE$AAU?$IVectorView@PE$AAVWiFiAdapter@WiFi@Devices@Windows@@@Collections@Foundation@Windows@@@Foundation@Windows@@W4AsyncStatus@56@@Z 000000018001fb10 f i _nodert_generated.obj
 0001:0001eb20       ??0?$__abi_FunctorCapture@V<lambda_585ed612c2d693254ec4a52eb6b5009a>@@XPE$AAU?$IAsyncOperation@PE$AAU?$IVectorView@PE$AAVWiFiAdapter@WiFi@Devices@Windows@@@Collections@Foundation@Windows@@@Foundation@Windows@@W4AsyncStatus@34@@Details@Platform@@QEAA@V<lambda_585ed612c2d693254ec4a52eb6b5009a>@@@Z 000000018001fb20 f i _nodert_generated.obj
 0001:0001ebc0       ??0?$__abi_FunctorCapture@V<lambda_cc9b10b2bfbca148cbf6cbf67ef94e36>@@XPE$AAU?$IAsyncOperation@PE$AAVWiFiAdapter@WiFi@Devices@Windows@@@Foundation@Windows@@W4AsyncStatus@34@@Details@Platform@@QEAA@V<lambda_cc9b10b2bfbca148cbf6cbf67ef94e36>@@@Z 000000018001fbc0 f i _nodert_generated.obj
 0001:0001ec60       ?Invoke@?$__abi_FunctorCapture@V<lambda_bd36e4550c07aa6279a00ca606e5e690>@@XPE$AAU?$IAsyncOperation@W4WiFiAccessStatus@WiFi@Devices@Windows@@@Foundation@Windows@@W4AsyncStatus@34@@Details@Platform@@UEAAXPE$AAU?$IAsyncOperation@W4WiFiAccessStatus@WiFi@Devices@Windows@@@Foundation@Windows@@W4AsyncStatus@56@@Z 000000018001fc60 f i _nodert_generated.obj
 0001:0001ec70       ??0?$__abi_FunctorCapture@V<lambda_bd36e4550c07aa6279a00ca606e5e690>@@XPE$AAU?$IAsyncOperation@W4WiFiAccessStatus@WiFi@Devices@Windows@@@Foundation@Windows@@W4AsyncStatus@34@@Details@Platform@@QEAA@V<lambda_bd36e4550c07aa6279a00ca606e5e690>@@@Z 000000018001fc70 f i _nodert_generated.obj
 0001:0001ed10       ?_Delete_this@?$_Func_impl@V<lambda_fcddfbb588d6d178324b6e9cbb1f8253>@@V?$allocator@H@std@@X$$V@std@@EEAAX_N@Z 000000018001fd10 f i _nodert_generated.obj
 0001:0001ed70       ?_Target_type@?$_Func_impl@V<lambda_fcddfbb588d6d178324b6e9cbb1f8253>@@V?$allocator@H@std@@X$$V@std@@EEBAAEBVtype_info@@XZ 000000018001fd70 f i _nodert_generated.obj
 0001:0001ed80       ?_Do_call@?$_Func_impl@V<lambda_43dba3b136f953be73dc2826e9f03afb>@@V?$allocator@H@std@@X$$V@std@@EEAAXXZ 000000018001fd80 f i _nodert_generated.obj
 0001:0001ed80       ?_Do_call@?$_Func_impl@V<lambda_334307b97ee5f2466f8dfc680b54dc48>@@V?$allocator@H@std@@X$$V@std@@EEAAXXZ 000000018001fd80 f i _nodert_generated.obj
 0001:0001ed80       ?_Do_call@?$_Func_impl@V<lambda_fcddfbb588d6d178324b6e9cbb1f8253>@@V?$allocator@H@std@@X$$V@std@@EEAAXXZ 000000018001fd80 f i _nodert_generated.obj
 0001:0001ed80       ?_Do_call@?$_Func_impl@V<lambda_e7219b7c2136ee68b6238814f2197cbc>@@V?$allocator@H@std@@X$$V@std@@EEAAXXZ 000000018001fd80 f i _nodert_generated.obj
 0001:0001ed80       ?_Do_call@?$_Func_impl@V<lambda_d3aafd0b57b73d2f9a296ee38aa3e67b>@@V?$allocator@H@std@@X$$V@std@@EEAAXXZ 000000018001fd80 f i _nodert_generated.obj
 0001:0001edf0       ?_Copy@?$_Func_impl@V<lambda_fcddfbb588d6d178324b6e9cbb1f8253>@@V?$allocator@H@std@@X$$V@std@@EEBAPEAV?$_Func_base@X$$V@2@PEAX@Z 000000018001fdf0 f i _nodert_generated.obj
 0001:0001edf0       ?_Move@?$_Func_impl@V<lambda_fcddfbb588d6d178324b6e9cbb1f8253>@@V?$allocator@H@std@@X$$V@std@@EEAAPEAV?$_Func_base@X$$V@2@PEAX@Z 000000018001fdf0 f i _nodert_generated.obj
 0001:0001ee40       ?_Delete_this@?$_Func_impl@V<lambda_d4a8bb1d3b7ec2bea7766c2745f0ce11>@@V?$allocator@H@std@@EV?$task@X@Concurrency@@@std@@EEAAX_N@Z 000000018001fe40 f i _nodert_generated.obj
 0001:0001ee70       ?_Target_type@?$_Func_impl@V<lambda_d4a8bb1d3b7ec2bea7766c2745f0ce11>@@V?$allocator@H@std@@EV?$task@X@Concurrency@@@std@@EEBAAEBVtype_info@@XZ 000000018001fe70 f i _nodert_generated.obj
 0001:0001ee80       ?_Do_call@?$_Func_impl@V<lambda_d4a8bb1d3b7ec2bea7766c2745f0ce11>@@V?$allocator@H@std@@EV?$task@X@Concurrency@@@std@@EEAAE$$QEAV?$task@X@Concurrency@@@Z 000000018001fe80 f i _nodert_generated.obj
 0001:0001eec0       ?_Move@?$_Func_impl@V<lambda_d4a8bb1d3b7ec2bea7766c2745f0ce11>@@V?$allocator@H@std@@EV?$task@X@Concurrency@@@std@@EEAAPEAV?$_Func_base@EV?$task@X@Concurrency@@@2@PEAX@Z 000000018001fec0 f i _nodert_generated.obj
 0001:0001ef50       ?_Copy@?$_Func_impl@V<lambda_d4a8bb1d3b7ec2bea7766c2745f0ce11>@@V?$allocator@H@std@@EV?$task@X@Concurrency@@@std@@EEBAPEAV?$_Func_base@EV?$task@X@Concurrency@@@2@PEAX@Z 000000018001ff50 f i _nodert_generated.obj
 0001:0001ef60       ?_Delete_this@?$_Func_impl@V<lambda_2ebdab9cc8d71a78c6d6e5d0333b6c35>@@V?$allocator@H@std@@EV?$task@PE$AAVWiFiConnectionResult@WiFi@Devices@Windows@@@Concurrency@@@std@@EEAAX_N@Z 000000018001ff60 f i _nodert_generated.obj
 0001:0001ef90       ?_Target_type@?$_Func_impl@V<lambda_2ebdab9cc8d71a78c6d6e5d0333b6c35>@@V?$allocator@H@std@@EV?$task@PE$AAVWiFiConnectionResult@WiFi@Devices@Windows@@@Concurrency@@@std@@EEBAAEBVtype_info@@XZ 000000018001ff90 f i _nodert_generated.obj
 0001:0001efa0       ?_Do_call@?$_Func_impl@V<lambda_2ebdab9cc8d71a78c6d6e5d0333b6c35>@@V?$allocator@H@std@@EV?$task@PE$AAVWiFiConnectionResult@WiFi@Devices@Windows@@@Concurrency@@@std@@EEAAE$$QEAV?$task@PE$AAVWiFiConnectionResult@WiFi@Devices@Windows@@@Concurrency@@@Z 000000018001ffa0 f i _nodert_generated.obj
 0001:0001efe0       ?_Move@?$_Func_impl@V<lambda_2ebdab9cc8d71a78c6d6e5d0333b6c35>@@V?$allocator@H@std@@EV?$task@PE$AAVWiFiConnectionResult@WiFi@Devices@Windows@@@Concurrency@@@std@@EEAAPEAV?$_Func_base@EV?$task@PE$AAVWiFiConnectionResult@WiFi@Devices@Windows@@@Concurrency@@@2@PEAX@Z 000000018001ffe0 f i _nodert_generated.obj
 0001:0001f070       ?_Copy@?$_Func_impl@V<lambda_2ebdab9cc8d71a78c6d6e5d0333b6c35>@@V?$allocator@H@std@@EV?$task@PE$AAVWiFiConnectionResult@WiFi@Devices@Windows@@@Concurrency@@@std@@EEBAPEAV?$_Func_base@EV?$task@PE$AAVWiFiConnectionResult@WiFi@Devices@Windows@@@Concurrency@@@2@PEAX@Z 0000000180020070 f i _nodert_generated.obj
 0001:0001f080       ?_Delete_this@?$_Func_impl@V<lambda_85765119efc67a7064e73cc055ab740f>@@V?$allocator@H@std@@EV?$task@PE$AAU?$IVectorView@PE$AAVWiFiAdapter@WiFi@Devices@Windows@@@Collections@Foundation@Windows@@@Concurrency@@@std@@EEAAX_N@Z 0000000180020080 f i _nodert_generated.obj
 0001:0001f0b0       ?_Target_type@?$_Func_impl@V<lambda_85765119efc67a7064e73cc055ab740f>@@V?$allocator@H@std@@EV?$task@PE$AAU?$IVectorView@PE$AAVWiFiAdapter@WiFi@Devices@Windows@@@Collections@Foundation@Windows@@@Concurrency@@@std@@EEBAAEBVtype_info@@XZ 00000001800200b0 f i _nodert_generated.obj
 0001:0001f0c0       ?_Do_call@?$_Func_impl@V<lambda_85765119efc67a7064e73cc055ab740f>@@V?$allocator@H@std@@EV?$task@PE$AAU?$IVectorView@PE$AAVWiFiAdapter@WiFi@Devices@Windows@@@Collections@Foundation@Windows@@@Concurrency@@@std@@EEAAE$$QEAV?$task@PE$AAU?$IVectorView@PE$AAVWiFiAdapter@WiFi@Devices@Windows@@@Collections@Foundation@Windows@@@Concurrency@@@Z 00000001800200c0 f i _nodert_generated.obj
 0001:0001f100       ?_Move@?$_Func_impl@V<lambda_85765119efc67a7064e73cc055ab740f>@@V?$allocator@H@std@@EV?$task@PE$AAU?$IVectorView@PE$AAVWiFiAdapter@WiFi@Devices@Windows@@@Collections@Foundation@Windows@@@Concurrency@@@std@@EEAAPEAV?$_Func_base@EV?$task@PE$AAU?$IVectorView@PE$AAVWiFiAdapter@WiFi@Devices@Windows@@@Collections@Foundation@Windows@@@Concurrency@@@2@PEAX@Z 0000000180020100 f i _nodert_generated.obj
 0001:0001f190       ?_Copy@?$_Func_impl@V<lambda_85765119efc67a7064e73cc055ab740f>@@V?$allocator@H@std@@EV?$task@PE$AAU?$IVectorView@PE$AAVWiFiAdapter@WiFi@Devices@Windows@@@Collections@Foundation@Windows@@@Concurrency@@@std@@EEBAPEAV?$_Func_base@EV?$task@PE$AAU?$IVectorView@PE$AAVWiFiAdapter@WiFi@Devices@Windows@@@Collections@Foundation@Windows@@@Concurrency@@@2@PEAX@Z 0000000180020190 f i _nodert_generated.obj
 0001:0001f1a0       ?_Delete_this@?$_Func_impl@V<lambda_6d9be390a0d0310de9e6f9a11a95eeaf>@@V?$allocator@H@std@@EV?$task@PE$AAVWiFiAdapter@WiFi@Devices@Windows@@@Concurrency@@@std@@EEAAX_N@Z 00000001800201a0 f i _nodert_generated.obj
 0001:0001f1d0       ?_Target_type@?$_Func_impl@V<lambda_6d9be390a0d0310de9e6f9a11a95eeaf>@@V?$allocator@H@std@@EV?$task@PE$AAVWiFiAdapter@WiFi@Devices@Windows@@@Concurrency@@@std@@EEBAAEBVtype_info@@XZ 00000001800201d0 f i _nodert_generated.obj
 0001:0001f1e0       ?_Do_call@?$_Func_impl@V<lambda_6d9be390a0d0310de9e6f9a11a95eeaf>@@V?$allocator@H@std@@EV?$task@PE$AAVWiFiAdapter@WiFi@Devices@Windows@@@Concurrency@@@std@@EEAAE$$QEAV?$task@PE$AAVWiFiAdapter@WiFi@Devices@Windows@@@Concurrency@@@Z 00000001800201e0 f i _nodert_generated.obj
 0001:0001f220       ?_Move@?$_Func_impl@V<lambda_6d9be390a0d0310de9e6f9a11a95eeaf>@@V?$allocator@H@std@@EV?$task@PE$AAVWiFiAdapter@WiFi@Devices@Windows@@@Concurrency@@@std@@EEAAPEAV?$_Func_base@EV?$task@PE$AAVWiFiAdapter@WiFi@Devices@Windows@@@Concurrency@@@2@PEAX@Z 0000000180020220 f i _nodert_generated.obj
 0001:0001f2b0       ?_Copy@?$_Func_impl@V<lambda_6d9be390a0d0310de9e6f9a11a95eeaf>@@V?$allocator@H@std@@EV?$task@PE$AAVWiFiAdapter@WiFi@Devices@Windows@@@Concurrency@@@std@@EEBAPEAV?$_Func_base@EV?$task@PE$AAVWiFiAdapter@WiFi@Devices@Windows@@@Concurrency@@@2@PEAX@Z 00000001800202b0 f i _nodert_generated.obj
 0001:0001f2c0       ?_Delete_this@?$_Func_impl@V<lambda_fabbb294be36e42af330e23943182f39>@@V?$allocator@H@std@@EV?$task@W4WiFiAccessStatus@WiFi@Devices@Windows@@@Concurrency@@@std@@EEAAX_N@Z 00000001800202c0 f i _nodert_generated.obj
 0001:0001f2f0       ?_Target_type@?$_Func_impl@V<lambda_fabbb294be36e42af330e23943182f39>@@V?$allocator@H@std@@EV?$task@W4WiFiAccessStatus@WiFi@Devices@Windows@@@Concurrency@@@std@@EEBAAEBVtype_info@@XZ 00000001800202f0 f i _nodert_generated.obj
 0001:0001f300       ?_Do_call@?$_Func_impl@V<lambda_fabbb294be36e42af330e23943182f39>@@V?$allocator@H@std@@EV?$task@W4WiFiAccessStatus@WiFi@Devices@Windows@@@Concurrency@@@std@@EEAAE$$QEAV?$task@W4WiFiAccessStatus@WiFi@Devices@Windows@@@Concurrency@@@Z 0000000180020300 f i _nodert_generated.obj
 0001:0001f340       ?_Move@?$_Func_impl@V<lambda_fabbb294be36e42af330e23943182f39>@@V?$allocator@H@std@@EV?$task@W4WiFiAccessStatus@WiFi@Devices@Windows@@@Concurrency@@@std@@EEAAPEAV?$_Func_base@EV?$task@W4WiFiAccessStatus@WiFi@Devices@Windows@@@Concurrency@@@2@PEAX@Z 0000000180020340 f i _nodert_generated.obj
 0001:0001f3d0       ?_Copy@?$_Func_impl@V<lambda_fabbb294be36e42af330e23943182f39>@@V?$allocator@H@std@@EV?$task@W4WiFiAccessStatus@WiFi@Devices@Windows@@@Concurrency@@@std@@EEBAPEAV?$_Func_base@EV?$task@W4WiFiAccessStatus@WiFi@Devices@Windows@@@Concurrency@@@2@PEAX@Z 00000001800203d0 f i _nodert_generated.obj
 0001:0001f3e0       ??1?$_Func_impl@V<lambda_f25c37099038263181b5186a3fa41b37>@@V?$allocator@H@std@@X$$V@std@@QEAA@XZ 00000001800203e0 f i _nodert_generated.obj
 0001:0001f480       ??0?$function@$$A6AXHPEAV?$Local@VValue@v8@@@v8@@@Z@std@@QEAA@$$QEAV01@@Z 0000000180020480 f i _nodert_generated.obj
 0001:0001f510       ??1?$_Func_base@X$$V@std@@QEAA@XZ 0000000180020510 f i _nodert_generated.obj
 0001:0001f520       ??$_Clone@X@?$_Func_impl@V<lambda_d4a8bb1d3b7ec2bea7766c2745f0ce11>@@V?$allocator@H@std@@EV?$task@X@Concurrency@@@std@@AEBAPEAV?$_Func_base@EV?$task@X@Concurrency@@@1@PEAXU?$integral_constant@_N$00@1@@Z 0000000180020520 f i _nodert_generated.obj
 0001:0001f5d0       ??$_Clone@X@?$_Func_impl@V<lambda_2ebdab9cc8d71a78c6d6e5d0333b6c35>@@V?$allocator@H@std@@EV?$task@PE$AAVWiFiConnectionResult@WiFi@Devices@Windows@@@Concurrency@@@std@@AEBAPEAV?$_Func_base@EV?$task@PE$AAVWiFiConnectionResult@WiFi@Devices@Windows@@@Concurrency@@@1@PEAXU?$integral_constant@_N$00@1@@Z 00000001800205d0 f i _nodert_generated.obj
 0001:0001f680       ??$_Clone@X@?$_Func_impl@V<lambda_85765119efc67a7064e73cc055ab740f>@@V?$allocator@H@std@@EV?$task@PE$AAU?$IVectorView@PE$AAVWiFiAdapter@WiFi@Devices@Windows@@@Collections@Foundation@Windows@@@Concurrency@@@std@@AEBAPEAV?$_Func_base@EV?$task@PE$AAU?$IVectorView@PE$AAVWiFiAdapter@WiFi@Devices@Windows@@@Collections@Foundation@Windows@@@Concurrency@@@1@PEAXU?$integral_constant@_N$00@1@@Z 0000000180020680 f i _nodert_generated.obj
 0001:0001f730       ??$_Clone@X@?$_Func_impl@V<lambda_6d9be390a0d0310de9e6f9a11a95eeaf>@@V?$allocator@H@std@@EV?$task@PE$AAVWiFiAdapter@WiFi@Devices@Windows@@@Concurrency@@@std@@AEBAPEAV?$_Func_base@EV?$task@PE$AAVWiFiAdapter@WiFi@Devices@Windows@@@Concurrency@@@1@PEAXU?$integral_constant@_N$00@1@@Z 0000000180020730 f i _nodert_generated.obj
 0001:0001f7e0       ??$_Clone@X@?$_Func_impl@V<lambda_fabbb294be36e42af330e23943182f39>@@V?$allocator@H@std@@EV?$task@W4WiFiAccessStatus@WiFi@Devices@Windows@@@Concurrency@@@std@@AEBAPEAV?$_Func_base@EV?$task@W4WiFiAccessStatus@WiFi@Devices@Windows@@@Concurrency@@@1@PEAXU?$integral_constant@_N$00@1@@Z 00000001800207e0 f i _nodert_generated.obj
 0001:0001f910       ?_Delete_this@?$_Func_impl@V<lambda_43dba3b136f953be73dc2826e9f03afb>@@V?$allocator@H@std@@X$$V@std@@EEAAX_N@Z 0000000180020910 f i _nodert_generated.obj
 0001:0001f970       ?_Target_type@?$_Func_impl@V<lambda_43dba3b136f953be73dc2826e9f03afb>@@V?$allocator@H@std@@X$$V@std@@EEBAAEBVtype_info@@XZ 0000000180020970 f i _nodert_generated.obj
 0001:0001f980       ?_Move@?$_Func_impl@V<lambda_43dba3b136f953be73dc2826e9f03afb>@@V?$allocator@H@std@@X$$V@std@@EEAAPEAV?$_Func_base@X$$V@2@PEAX@Z 0000000180020980 f i _nodert_generated.obj
 0001:0001f980       ?_Copy@?$_Func_impl@V<lambda_43dba3b136f953be73dc2826e9f03afb>@@V?$allocator@H@std@@X$$V@std@@EEBAPEAV?$_Func_base@X$$V@2@PEAX@Z 0000000180020980 f i _nodert_generated.obj
 0001:0001f9d0       ?_Delete_this@?$_Func_impl@V<lambda_d3aafd0b57b73d2f9a296ee38aa3e67b>@@V?$allocator@H@std@@X$$V@std@@EEAAX_N@Z 00000001800209d0 f i _nodert_generated.obj
 0001:0001fa30       ?_Target_type@?$_Func_impl@V<lambda_d3aafd0b57b73d2f9a296ee38aa3e67b>@@V?$allocator@H@std@@X$$V@std@@EEBAAEBVtype_info@@XZ 0000000180020a30 f i _nodert_generated.obj
 0001:0001fa40       ?_Move@?$_Func_impl@V<lambda_d3aafd0b57b73d2f9a296ee38aa3e67b>@@V?$allocator@H@std@@X$$V@std@@EEAAPEAV?$_Func_base@X$$V@2@PEAX@Z 0000000180020a40 f i _nodert_generated.obj
 0001:0001fa40       ?_Copy@?$_Func_impl@V<lambda_d3aafd0b57b73d2f9a296ee38aa3e67b>@@V?$allocator@H@std@@X$$V@std@@EEBAPEAV?$_Func_base@X$$V@2@PEAX@Z 0000000180020a40 f i _nodert_generated.obj
 0001:0001fa90       ?_Delete_this@?$_Func_impl@V<lambda_e7219b7c2136ee68b6238814f2197cbc>@@V?$allocator@H@std@@X$$V@std@@EEAAX_N@Z 0000000180020a90 f i _nodert_generated.obj
 0001:0001faf0       ?_Target_type@?$_Func_impl@V<lambda_e7219b7c2136ee68b6238814f2197cbc>@@V?$allocator@H@std@@X$$V@std@@EEBAAEBVtype_info@@XZ 0000000180020af0 f i _nodert_generated.obj
 0001:0001fb00       ?_Move@?$_Func_impl@V<lambda_e7219b7c2136ee68b6238814f2197cbc>@@V?$allocator@H@std@@X$$V@std@@EEAAPEAV?$_Func_base@X$$V@2@PEAX@Z 0000000180020b00 f i _nodert_generated.obj
 0001:0001fb00       ?_Copy@?$_Func_impl@V<lambda_e7219b7c2136ee68b6238814f2197cbc>@@V?$allocator@H@std@@X$$V@std@@EEBAPEAV?$_Func_base@X$$V@2@PEAX@Z 0000000180020b00 f i _nodert_generated.obj
 0001:0001fb50       ?_Delete_this@?$_Func_impl@V<lambda_334307b97ee5f2466f8dfc680b54dc48>@@V?$allocator@H@std@@X$$V@std@@EEAAX_N@Z 0000000180020b50 f i _nodert_generated.obj
 0001:0001fbb0       ?_Target_type@?$_Func_impl@V<lambda_334307b97ee5f2466f8dfc680b54dc48>@@V?$allocator@H@std@@X$$V@std@@EEBAAEBVtype_info@@XZ 0000000180020bb0 f i _nodert_generated.obj
 0001:0001fbc0       ?_Copy@?$_Func_impl@V<lambda_334307b97ee5f2466f8dfc680b54dc48>@@V?$allocator@H@std@@X$$V@std@@EEBAPEAV?$_Func_base@X$$V@2@PEAX@Z 0000000180020bc0 f i _nodert_generated.obj
 0001:0001fbc0       ?_Move@?$_Func_impl@V<lambda_334307b97ee5f2466f8dfc680b54dc48>@@V?$allocator@H@std@@X$$V@std@@EEAAPEAV?$_Func_base@X$$V@2@PEAX@Z 0000000180020bc0 f i _nodert_generated.obj
 0001:0001fc10       ??0?$function@$$A6AXV?$function@$$A6AXHPEAV?$Local@VValue@v8@@@v8@@@Z@std@@@Z@std@@QEAA@$$QEAV01@@Z 0000000180020c10 f i _nodert_generated.obj
 0001:0001fd90       ??1?$_Func_impl@V<lambda_d4a8bb1d3b7ec2bea7766c2745f0ce11>@@V?$allocator@H@std@@EV?$task@X@Concurrency@@@std@@QEAA@XZ 0000000180020d90 f i _nodert_generated.obj
 0001:0001fe10       ??1?$_Func_impl@V<lambda_2ebdab9cc8d71a78c6d6e5d0333b6c35>@@V?$allocator@H@std@@EV?$task@PE$AAVWiFiConnectionResult@WiFi@Devices@Windows@@@Concurrency@@@std@@QEAA@XZ 0000000180020e10 f i _nodert_generated.obj
 0001:0001fe90       ??1?$_Func_impl@V<lambda_85765119efc67a7064e73cc055ab740f>@@V?$allocator@H@std@@EV?$task@PE$AAU?$IVectorView@PE$AAVWiFiAdapter@WiFi@Devices@Windows@@@Collections@Foundation@Windows@@@Concurrency@@@std@@QEAA@XZ 0000000180020e90 f i _nodert_generated.obj
 0001:0001ff10       ??1?$_Func_impl@V<lambda_6d9be390a0d0310de9e6f9a11a95eeaf>@@V?$allocator@H@std@@EV?$task@PE$AAVWiFiAdapter@WiFi@Devices@Windows@@@Concurrency@@@std@@QEAA@XZ 0000000180020f10 f i _nodert_generated.obj
 0001:0001ff90       ??1?$_Func_impl@V<lambda_fabbb294be36e42af330e23943182f39>@@V?$allocator@H@std@@EV?$task@W4WiFiAccessStatus@WiFi@Devices@Windows@@@Concurrency@@@std@@QEAA@XZ 0000000180020f90 f i _nodert_generated.obj
 0001:00020010       ??1?$_Func_base@EV?$task@X@Concurrency@@@std@@QEAA@XZ 0000000180021010 f i _nodert_generated.obj
 0001:00020020       ??1?$_Func_base@EV?$task@PE$AAVWiFiConnectionResult@WiFi@Devices@Windows@@@Concurrency@@@std@@QEAA@XZ 0000000180021020 f i _nodert_generated.obj
 0001:00020030       ??1?$_Func_base@EV?$task@PE$AAU?$IVectorView@PE$AAVWiFiAdapter@WiFi@Devices@Windows@@@Collections@Foundation@Windows@@@Concurrency@@@std@@QEAA@XZ 0000000180021030 f i _nodert_generated.obj
 0001:00020040       ??1?$_Func_base@EV?$task@PE$AAVWiFiAdapter@WiFi@Devices@Windows@@@Concurrency@@@std@@QEAA@XZ 0000000180021040 f i _nodert_generated.obj
 0001:00020050       ??1?$_Func_base@EV?$task@W4WiFiAccessStatus@WiFi@Devices@Windows@@@Concurrency@@@std@@QEAA@XZ 0000000180021050 f i _nodert_generated.obj
 0001:0002005c       ?__abi_AddRef@?$AsyncOperationCompletedHandler@PE$AAU?$IVectorView@PE$AAVWiFiAdapter@WiFi@Devices@Windows@@@Collections@Foundation@Windows@@@Foundation@Windows@@W7E$AAAKXZ 000000018002105c f i _nodert_generated.obj
 0001:0002005c       ?__abi_AddRef@?$AsyncOperationCompletedHandler@PE$AAVWiFiConnectionResult@WiFi@Devices@Windows@@@Foundation@Windows@@W7E$AAAKXZ 000000018002105c f i _nodert_generated.obj
 0001:0002005c       ?__abi_AddRef@?$TypedEventHandler@PE$AAVWiFiAdapter@WiFi@Devices@Windows@@PE$AAVObject@Platform@@@Foundation@Windows@@W7E$AAAKXZ 000000018002105c f i _nodert_generated.obj
 0001:0002005c       ?__abi_AddRef@?$AsyncOperationCompletedHandler@E@Foundation@Windows@@W7E$AAAKXZ 000000018002105c f i _nodert_generated.obj
 0001:0002005c       ?__abi_AddRef@?$AsyncOperationCompletedHandler@W4WiFiAccessStatus@WiFi@Devices@Windows@@@Foundation@Windows@@W7E$AAAKXZ 000000018002105c f i _nodert_generated.obj
 0001:0002005c       ?__abi_AddRef@AsyncActionCompletedHandler@Foundation@Windows@@W7E$AAAKXZ 000000018002105c f i _nodert_generated.obj
 0001:0002005c       ?__abi_AddRef@?$AsyncOperationCompletedHandler@PE$AAVWiFiAdapter@WiFi@Devices@Windows@@@Foundation@Windows@@W7E$AAAKXZ 000000018002105c f i _nodert_generated.obj
 0001:00020068       ?__abi_GetTrustLevel@AsyncActionCompletedHandler@Foundation@Windows@@WBA@E$AAAJPEAW4__abi_TrustLevel@@@Z 0000000180021068 f i _nodert_generated.obj
 0001:00020068       ?__abi_GetTrustLevel@?$AsyncOperationCompletedHandler@E@Foundation@Windows@@WBA@E$AAAJPEAW4__abi_TrustLevel@@@Z 0000000180021068 f i _nodert_generated.obj
 0001:00020068       ?__abi_GetTrustLevel@?$AsyncOperationCompletedHandler@PE$AAVWiFiConnectionResult@WiFi@Devices@Windows@@@Foundation@Windows@@WBA@E$AAAJPEAW4__abi_TrustLevel@@@Z 0000000180021068 f i _nodert_generated.obj
 0001:00020068       ?__abi_GetTrustLevel@?$AsyncOperationCompletedHandler@PE$AAVWiFiAdapter@WiFi@Devices@Windows@@@Foundation@Windows@@WBA@E$AAAJPEAW4__abi_TrustLevel@@@Z 0000000180021068 f i _nodert_generated.obj
 0001:00020068       ?__abi_GetTrustLevel@?QObject@Platform@@_IAsyncActionToAsyncOperationConverter@details@Concurrency@@WBA@E$AAAJPEAW4__abi_TrustLevel@@@Z 0000000180021068 f i _nodert_generated.obj
 0001:00020068       ?__abi_GetTrustLevel@?$AsyncOperationCompletedHandler@W4WiFiAccessStatus@WiFi@Devices@Windows@@@Foundation@Windows@@WBA@E$AAAJPEAW4__abi_TrustLevel@@@Z 0000000180021068 f i _nodert_generated.obj
 0001:00020068       ?__abi_GetTrustLevel@?$AsyncOperationCompletedHandler@PE$AAU?$IVectorView@PE$AAVWiFiAdapter@WiFi@Devices@Windows@@@Collections@Foundation@Windows@@@Foundation@Windows@@WBA@E$AAAJPEAW4__abi_TrustLevel@@@Z 0000000180021068 f i _nodert_generated.obj
 0001:00020068       ?__abi_GetTrustLevel@?$TypedEventHandler@PE$AAVWiFiAdapter@WiFi@Devices@Windows@@PE$AAVObject@Platform@@@Foundation@Windows@@WBA@E$AAAJPEAW4__abi_TrustLevel@@@Z 0000000180021068 f i _nodert_generated.obj
 0001:00020074       ?__abi_GetRuntimeClassName@?$AsyncOperationCompletedHandler@PE$AAU?$IVectorView@PE$AAVWiFiAdapter@WiFi@Devices@Windows@@@Collections@Foundation@Windows@@@Foundation@Windows@@W7E$AAAJPEAPEAUHSTRING__@@@Z 0000000180021074 f i _nodert_generated.obj
 0001:00020080       ?__abi_QueryInterface@?QObject@Platform@@_IAsyncActionToAsyncOperationConverter@details@Concurrency@@WGA@E$AAAJAEAVGuid@2@PEAPEAX@Z 0000000180021080 f i _nodert_generated.obj
 0001:0002008c       ?__abi_Release@?$AsyncOperationCompletedHandler@W4WiFiAccessStatus@WiFi@Devices@Windows@@@Foundation@Windows@@WBA@E$AAAKXZ 000000018002108c f i _nodert_generated.obj
 0001:0002008c       ?__abi_Release@?$AsyncOperationCompletedHandler@PE$AAU?$IVectorView@PE$AAVWiFiAdapter@WiFi@Devices@Windows@@@Collections@Foundation@Windows@@@Foundation@Windows@@WBA@E$AAAKXZ 000000018002108c f i _nodert_generated.obj
 0001:0002008c       ?__abi_Release@?$AsyncOperationCompletedHandler@PE$AAVWiFiAdapter@WiFi@Devices@Windows@@@Foundation@Windows@@WBA@E$AAAKXZ 000000018002108c f i _nodert_generated.obj
 0001:0002008c       ?__abi_Release@?$TypedEventHandler@PE$AAVWiFiAdapter@WiFi@Devices@Windows@@PE$AAVObject@Platform@@@Foundation@Windows@@WBA@E$AAAKXZ 000000018002108c f i _nodert_generated.obj
 0001:0002008c       ?__abi_Release@?$AsyncOperationCompletedHandler@E@Foundation@Windows@@WBA@E$AAAKXZ 000000018002108c f i _nodert_generated.obj
 0001:0002008c       ?__abi_Release@?$AsyncOperationCompletedHandler@PE$AAVWiFiConnectionResult@WiFi@Devices@Windows@@@Foundation@Windows@@WBA@E$AAAKXZ 000000018002108c f i _nodert_generated.obj
 0001:0002008c       ?__abi_Release@AsyncActionCompletedHandler@Foundation@Windows@@WBA@E$AAAKXZ 000000018002108c f i _nodert_generated.obj
 0001:00020098       ?__abi_QueryInterface@?$AsyncOperationCompletedHandler@PE$AAVWiFiAdapter@WiFi@Devices@Windows@@@Foundation@Windows@@W7E$AAAJAEAVGuid@Platform@@PEAPEAX@Z 0000000180021098 f i _nodert_generated.obj
 0001:000200a4       ?__abi_Release@?$AsyncOperationCompletedHandler@PE$AAVWiFiConnectionResult@WiFi@Devices@Windows@@@Foundation@Windows@@W7E$AAAKXZ 00000001800210a4 f i _nodert_generated.obj
 0001:000200a4       ?__abi_Release@?$AsyncOperationCompletedHandler@W4WiFiAccessStatus@WiFi@Devices@Windows@@@Foundation@Windows@@W7E$AAAKXZ 00000001800210a4 f i _nodert_generated.obj
 0001:000200a4       ?__abi_Release@?$AsyncOperationCompletedHandler@PE$AAVWiFiAdapter@WiFi@Devices@Windows@@@Foundation@Windows@@W7E$AAAKXZ 00000001800210a4 f i _nodert_generated.obj
 0001:000200a4       ?__abi_Release@?$AsyncOperationCompletedHandler@PE$AAU?$IVectorView@PE$AAVWiFiAdapter@WiFi@Devices@Windows@@@Collections@Foundation@Windows@@@Foundation@Windows@@W7E$AAAKXZ 00000001800210a4 f i _nodert_generated.obj
 0001:000200a4       ?__abi_Release@?$TypedEventHandler@PE$AAVWiFiAdapter@WiFi@Devices@Windows@@PE$AAVObject@Platform@@@Foundation@Windows@@W7E$AAAKXZ 00000001800210a4 f i _nodert_generated.obj
 0001:000200a4       ?__abi_Release@AsyncActionCompletedHandler@Foundation@Windows@@W7E$AAAKXZ 00000001800210a4 f i _nodert_generated.obj
 0001:000200a4       ?__abi_Release@?$AsyncOperationCompletedHandler@E@Foundation@Windows@@W7E$AAAKXZ 00000001800210a4 f i _nodert_generated.obj
 0001:000200b0       ?__abi_Windows_Foundation_IAsyncInfo____abi_get_Id@?QIAsyncInfo@Foundation@Windows@@?$_AsyncInfoImpl@PE$AAUIAsyncAction@Foundation@Windows@@VAsyncActionCompletedHandler@23@E@details@Concurrency@@WBA@E$AAAJPEAI@Z 00000001800210b0 f i _nodert_generated.obj
 0001:000200bc       ?__abi_GetIids@?QObject@Platform@@_IAsyncActionToAsyncOperationConverter@details@Concurrency@@WBI@E$AAAJPEAKPEAPEAVGuid@2@@Z 00000001800210bc f i _nodert_generated.obj
 0001:000200c8       ?__abi_AddRef@?QObject@Platform@@_IAsyncActionToAsyncOperationConverter@details@Concurrency@@W7E$AAAKXZ 00000001800210c8 f i _nodert_generated.obj
 0001:000200d4       ?__abi_Platform_Details_IWeakReferenceSource____abi_GetWeakReference@?QIWeakReferenceSource@Details@Platform@@_IAsyncActionToAsyncOperationConverter@details@Concurrency@@WFI@E$AAAJPEAPE$AAUIWeakReference@23@@Z 00000001800210d4 f i _nodert_generated.obj
 0001:000200e0       ?Close@?QIAsyncInfo@Foundation@Windows@@?$_AsyncInfoImpl@PE$AAUIAsyncAction@Foundation@Windows@@VAsyncActionCompletedHandler@23@E@details@Concurrency@@WBA@E$AAAXXZ 00000001800210e0 f i _nodert_generated.obj
 0001:000200ec       ?get@?Q?$IAsyncOperation@E@Foundation@Windows@@Completed@?$_AsyncInfoImpl@PE$AAUIAsyncAction@Foundation@Windows@@VAsyncActionCompletedHandler@23@E@details@Concurrency@@W7E$AAAPE$AAV?$AsyncOperationCompletedHandler@E@23@XZ 00000001800210ec f i _nodert_generated.obj
 0001:000200f8       ?__abi_GetTrustLevel@?QObject@Platform@@_IAsyncActionToAsyncOperationConverter@details@Concurrency@@W7E$AAAJPEAW4__abi_TrustLevel@@@Z 00000001800210f8 f i _nodert_generated.obj
 0001:000200f8       ?__abi_GetTrustLevel@?$TypedEventHandler@PE$AAVWiFiAdapter@WiFi@Devices@Windows@@PE$AAVObject@Platform@@@Foundation@Windows@@W7E$AAAJPEAW4__abi_TrustLevel@@@Z 00000001800210f8 f i _nodert_generated.obj
 0001:000200f8       ?__abi_GetTrustLevel@AsyncActionCompletedHandler@Foundation@Windows@@W7E$AAAJPEAW4__abi_TrustLevel@@@Z 00000001800210f8 f i _nodert_generated.obj
 0001:000200f8       ?__abi_GetTrustLevel@?$AsyncOperationCompletedHandler@W4WiFiAccessStatus@WiFi@Devices@Windows@@@Foundation@Windows@@W7E$AAAJPEAW4__abi_TrustLevel@@@Z 00000001800210f8 f i _nodert_generated.obj
 0001:000200f8       ?__abi_GetTrustLevel@?$AsyncOperationCompletedHandler@PE$AAU?$IVectorView@PE$AAVWiFiAdapter@WiFi@Devices@Windows@@@Collections@Foundation@Windows@@@Foundation@Windows@@W7E$AAAJPEAW4__abi_TrustLevel@@@Z 00000001800210f8 f i _nodert_generated.obj
 0001:000200f8       ?__abi_GetTrustLevel@?$AsyncOperationCompletedHandler@E@Foundation@Windows@@W7E$AAAJPEAW4__abi_TrustLevel@@@Z 00000001800210f8 f i _nodert_generated.obj
 0001:000200f8       ?__abi_GetTrustLevel@?$AsyncOperationCompletedHandler@PE$AAVWiFiConnectionResult@WiFi@Devices@Windows@@@Foundation@Windows@@W7E$AAAJPEAW4__abi_TrustLevel@@@Z 00000001800210f8 f i _nodert_generated.obj
 0001:000200f8       ?__abi_GetTrustLevel@?$AsyncOperationCompletedHandler@PE$AAVWiFiAdapter@WiFi@Devices@Windows@@@Foundation@Windows@@W7E$AAAJPEAW4__abi_TrustLevel@@@Z 00000001800210f8 f i _nodert_generated.obj
 0001:00020104       ?__abi_GetIids@AsyncActionCompletedHandler@Foundation@Windows@@W7E$AAAJPEAKPEAPEAVGuid@Platform@@@Z 0000000180021104 f i _nodert_generated.obj
 0001:00020110       ?__abi_GetIids@?$AsyncOperationCompletedHandler@PE$AAVWiFiAdapter@WiFi@Devices@Windows@@@Foundation@Windows@@W7E$AAAJPEAKPEAPEAVGuid@Platform@@@Z 0000000180021110 f i _nodert_generated.obj
 0001:00020110       ?__abi_GetIids@?$AsyncOperationCompletedHandler@W4WiFiAccessStatus@WiFi@Devices@Windows@@@Foundation@Windows@@W7E$AAAJPEAKPEAPEAVGuid@Platform@@@Z 0000000180021110 f i _nodert_generated.obj
 0001:00020110       ?__abi_GetIids@?$AsyncOperationCompletedHandler@E@Foundation@Windows@@W7E$AAAJPEAKPEAPEAVGuid@Platform@@@Z 0000000180021110 f i _nodert_generated.obj
 0001:00020110       ?__abi_GetIids@?$AsyncOperationCompletedHandler@PE$AAU?$IVectorView@PE$AAVWiFiAdapter@WiFi@Devices@Windows@@@Collections@Foundation@Windows@@@Foundation@Windows@@W7E$AAAJPEAKPEAPEAVGuid@Platform@@@Z 0000000180021110 f i _nodert_generated.obj
 0001:00020110       ?__abi_GetIids@?$AsyncOperationCompletedHandler@PE$AAVWiFiConnectionResult@WiFi@Devices@Windows@@@Foundation@Windows@@W7E$AAAJPEAKPEAPEAVGuid@Platform@@@Z 0000000180021110 f i _nodert_generated.obj
 0001:0002011c       ?__abi_GetIids@?$AsyncOperationCompletedHandler@W4WiFiAccessStatus@WiFi@Devices@Windows@@@Foundation@Windows@@WBA@E$AAAJPEAKPEAPEAVGuid@Platform@@@Z 000000018002111c f i _nodert_generated.obj
 0001:0002011c       ?__abi_GetIids@?$AsyncOperationCompletedHandler@PE$AAVWiFiAdapter@WiFi@Devices@Windows@@@Foundation@Windows@@WBA@E$AAAJPEAKPEAPEAVGuid@Platform@@@Z 000000018002111c f i _nodert_generated.obj
 0001:0002011c       ?__abi_GetIids@?$AsyncOperationCompletedHandler@E@Foundation@Windows@@WBA@E$AAAJPEAKPEAPEAVGuid@Platform@@@Z 000000018002111c f i _nodert_generated.obj
 0001:0002011c       ?__abi_GetIids@?$AsyncOperationCompletedHandler@PE$AAVWiFiConnectionResult@WiFi@Devices@Windows@@@Foundation@Windows@@WBA@E$AAAJPEAKPEAPEAVGuid@Platform@@@Z 000000018002111c f i _nodert_generated.obj
 0001:0002011c       ?__abi_GetIids@?$AsyncOperationCompletedHandler@PE$AAU?$IVectorView@PE$AAVWiFiAdapter@WiFi@Devices@Windows@@@Collections@Foundation@Windows@@@Foundation@Windows@@WBA@E$AAAJPEAKPEAPEAVGuid@Platform@@@Z 000000018002111c f i _nodert_generated.obj
 0001:00020128       ?__abi_QueryInterface@?$AsyncOperationCompletedHandler@PE$AAU?$IVectorView@PE$AAVWiFiAdapter@WiFi@Devices@Windows@@@Collections@Foundation@Windows@@@Foundation@Windows@@W7E$AAAJAEAVGuid@Platform@@PEAPEAX@Z 0000000180021128 f i _nodert_generated.obj
 0001:00020134       ?__abi_GetIids@?$TypedEventHandler@PE$AAVWiFiAdapter@WiFi@Devices@Windows@@PE$AAVObject@Platform@@@Foundation@Windows@@WBA@E$AAAJPEAKPEAPEAVGuid@Platform@@@Z 0000000180021134 f i _nodert_generated.obj
 0001:00020140       ?__abi_GetRuntimeClassName@?$AsyncOperationCompletedHandler@E@Foundation@Windows@@W7E$AAAJPEAPEAUHSTRING__@@@Z 0000000180021140 f i _nodert_generated.obj
 0001:0002014c       ?__abi_GetRuntimeClassName@?QObject@Platform@@_IAsyncActionToAsyncOperationConverter@details@Concurrency@@WCA@E$AAAJPEAPEAUHSTRING__@@@Z 000000018002114c f i _nodert_generated.obj
 0001:00020158       ?__abi_Windows_Foundation_IAsyncInfo____abi_Close@?QIAsyncInfo@Foundation@Windows@@?$_AsyncInfoImpl@PE$AAUIAsyncAction@Foundation@Windows@@VAsyncActionCompletedHandler@23@E@details@Concurrency@@WBA@E$AAAJXZ 0000000180021158 f i _nodert_generated.obj
 0001:00020164       ?__abi_Windows_Foundation_?$IAsyncOperation@E____abi_get_Completed@?Q?$IAsyncOperation@E@Foundation@Windows@@?$_AsyncInfoImpl@PE$AAUIAsyncAction@Foundation@Windows@@VAsyncActionCompletedHandler@23@E@details@Concurrency@@W7E$AAAJPEAPE$AAV?$AsyncOperationCompletedHandler@E@23@@Z 0000000180021164 f i _nodert_generated.obj
 0001:00020170       ?__abi_QueryInterface@?$AsyncOperationCompletedHandler@E@Foundation@Windows@@W7E$AAAJAEAVGuid@Platform@@PEAPEAX@Z 0000000180021170 f i _nodert_generated.obj
 0001:0002017c       ?GetResults@?Q?$IAsyncOperation@E@Foundation@Windows@@?$_AsyncInfoImpl@PE$AAUIAsyncAction@Foundation@Windows@@VAsyncActionCompletedHandler@23@E@details@Concurrency@@W7E$AAAEXZ 000000018002117c f i _nodert_generated.obj
 0001:00020188       ?__abi_Windows_Foundation_?$IAsyncOperation@E____abi_set_Completed@?Q?$IAsyncOperation@E@Foundation@Windows@@?$_AsyncInfoImpl@PE$AAUIAsyncAction@Foundation@Windows@@VAsyncActionCompletedHandler@23@E@details@Concurrency@@W7E$AAAJPE$AAV?$AsyncOperationCompletedHandler@E@23@@Z 0000000180021188 f i _nodert_generated.obj
 0001:00020194       ?__abi_QueryInterface@AsyncActionCompletedHandler@Foundation@Windows@@WBA@E$AAAJAEAVGuid@Platform@@PEAPEAX@Z 0000000180021194 f i _nodert_generated.obj
 0001:000201a0       ?__abi_GetRuntimeClassName@?QObject@Platform@@_IAsyncActionToAsyncOperationConverter@details@Concurrency@@WGA@E$AAAJPEAPEAUHSTRING__@@@Z 00000001800211a0 f i _nodert_generated.obj
 0001:000201ac       ?__abi_GetTrustLevel@?QObject@Platform@@_IAsyncActionToAsyncOperationConverter@details@Concurrency@@WCA@E$AAAJPEAW4__abi_TrustLevel@@@Z 00000001800211ac f i _nodert_generated.obj
 0001:000201b8       ?__abi_QueryInterface@?QObject@Platform@@_IAsyncActionToAsyncOperationConverter@details@Concurrency@@W7E$AAAJAEAVGuid@2@PEAPEAX@Z 00000001800211b8 f i _nodert_generated.obj
 0001:000201c4       ?__abi_Windows_Foundation_?$IAsyncOperation@E____abi_GetResults@?Q?$IAsyncOperation@E@Foundation@Windows@@?$_AsyncInfoImpl@PE$AAUIAsyncAction@Foundation@Windows@@VAsyncActionCompletedHandler@23@E@details@Concurrency@@W7E$AAAJPEAE@Z 00000001800211c4 f i _nodert_generated.obj
 0001:000201d0       ?__abi_Release@?QObject@Platform@@_IAsyncActionToAsyncOperationConverter@details@Concurrency@@WBA@E$AAAKXZ 00000001800211d0 f i _nodert_generated.obj
 0001:000201dc       ?__abi_GetRuntimeClassName@?$AsyncOperationCompletedHandler@W4WiFiAccessStatus@WiFi@Devices@Windows@@@Foundation@Windows@@W7E$AAAJPEAPEAUHSTRING__@@@Z 00000001800211dc f i _nodert_generated.obj
 0001:000201e8       ?__abi_AddRef@?$AsyncOperationCompletedHandler@PE$AAVWiFiConnectionResult@WiFi@Devices@Windows@@@Foundation@Windows@@WBA@E$AAAKXZ 00000001800211e8 f i _nodert_generated.obj
 0001:000201e8       ?__abi_AddRef@AsyncActionCompletedHandler@Foundation@Windows@@WBA@E$AAAKXZ 00000001800211e8 f i _nodert_generated.obj
 0001:000201e8       ?__abi_AddRef@?$AsyncOperationCompletedHandler@PE$AAU?$IVectorView@PE$AAVWiFiAdapter@WiFi@Devices@Windows@@@Collections@Foundation@Windows@@@Foundation@Windows@@WBA@E$AAAKXZ 00000001800211e8 f i _nodert_generated.obj
 0001:000201e8       ?__abi_AddRef@?$AsyncOperationCompletedHandler@W4WiFiAccessStatus@WiFi@Devices@Windows@@@Foundation@Windows@@WBA@E$AAAKXZ 00000001800211e8 f i _nodert_generated.obj
 0001:000201e8       ?__abi_AddRef@?$AsyncOperationCompletedHandler@PE$AAVWiFiAdapter@WiFi@Devices@Windows@@@Foundation@Windows@@WBA@E$AAAKXZ 00000001800211e8 f i _nodert_generated.obj
 0001:000201e8       ?__abi_AddRef@?$AsyncOperationCompletedHandler@E@Foundation@Windows@@WBA@E$AAAKXZ 00000001800211e8 f i _nodert_generated.obj
 0001:000201e8       ?__abi_AddRef@?$TypedEventHandler@PE$AAVWiFiAdapter@WiFi@Devices@Windows@@PE$AAVObject@Platform@@@Foundation@Windows@@WBA@E$AAAKXZ 00000001800211e8 f i _nodert_generated.obj
 0001:000201f4       ?__abi_GetTrustLevel@?QObject@Platform@@_IAsyncActionToAsyncOperationConverter@details@Concurrency@@WGA@E$AAAJPEAW4__abi_TrustLevel@@@Z 00000001800211f4 f i _nodert_generated.obj
 0001:00020200       ?__abi_GetRuntimeClassName@AsyncActionCompletedHandler@Foundation@Windows@@WBA@E$AAAJPEAPEAUHSTRING__@@@Z 0000000180021200 f i _nodert_generated.obj
 0001:0002020c       ?__abi_GetRuntimeClassName@?$AsyncOperationCompletedHandler@PE$AAU?$IVectorView@PE$AAVWiFiAdapter@WiFi@Devices@Windows@@@Collections@Foundation@Windows@@@Foundation@Windows@@WBA@E$AAAJPEAPEAUHSTRING__@@@Z 000000018002120c f i _nodert_generated.obj
 0001:00020218       ?__abi_QueryInterface@?$AsyncOperationCompletedHandler@PE$AAVWiFiAdapter@WiFi@Devices@Windows@@@Foundation@Windows@@WBA@E$AAAJAEAVGuid@Platform@@PEAPEAX@Z 0000000180021218 f i _nodert_generated.obj
 0001:00020224       ?__abi_QueryInterface@?$AsyncOperationCompletedHandler@PE$AAVWiFiConnectionResult@WiFi@Devices@Windows@@@Foundation@Windows@@W7E$AAAJAEAVGuid@Platform@@PEAPEAX@Z 0000000180021224 f i _nodert_generated.obj
 0001:00020230       ?__abi_GetIids@?QObject@Platform@@_IAsyncActionToAsyncOperationConverter@details@Concurrency@@WCA@E$AAAJPEAKPEAPEAVGuid@2@@Z 0000000180021230 f i _nodert_generated.obj
 0001:0002023c       ?__abi_AddRef@?QObject@Platform@@_IAsyncActionToAsyncOperationConverter@details@Concurrency@@WBA@E$AAAKXZ 000000018002123c f i _nodert_generated.obj
 0001:00020248       ?get@?QIAsyncInfo@Foundation@Windows@@Status@?$_AsyncInfoImpl@PE$AAUIAsyncAction@Foundation@Windows@@VAsyncActionCompletedHandler@23@E@details@Concurrency@@WBA@E$AAA?AW4AsyncStatus@23@XZ 0000000180021248 f i _nodert_generated.obj
 0001:00020254       ?__abi_GetRuntimeClassName@?QObject@Platform@@_IAsyncActionToAsyncOperationConverter@details@Concurrency@@W7E$AAAJPEAPEAUHSTRING__@@@Z 0000000180021254 f i _nodert_generated.obj
 0001:00020260       ?__abi_GetIids@AsyncActionCompletedHandler@Foundation@Windows@@WBA@E$AAAJPEAKPEAPEAVGuid@Platform@@@Z 0000000180021260 f i _nodert_generated.obj
 0001:0002026c       ?__abi_QueryInterface@?$AsyncOperationCompletedHandler@PE$AAU?$IVectorView@PE$AAVWiFiAdapter@WiFi@Devices@Windows@@@Collections@Foundation@Windows@@@Foundation@Windows@@WBA@E$AAAJAEAVGuid@Platform@@PEAPEAX@Z 000000018002126c f i _nodert_generated.obj
 0001:00020278       ?__abi_QueryInterface@?$TypedEventHandler@PE$AAVWiFiAdapter@WiFi@Devices@Windows@@PE$AAVObject@Platform@@@Foundation@Windows@@W7E$AAAJAEAVGuid@Platform@@PEAPEAX@Z 0000000180021278 f i _nodert_generated.obj
 0001:00020284       ?__abi_GetRuntimeClassName@?$AsyncOperationCompletedHandler@E@Foundation@Windows@@WBA@E$AAAJPEAPEAUHSTRING__@@@Z 0000000180021284 f i _nodert_generated.obj
 0001:00020290       ?__abi_GetIids@?QObject@Platform@@_IAsyncActionToAsyncOperationConverter@details@Concurrency@@WGA@E$AAAJPEAKPEAPEAVGuid@2@@Z 0000000180021290 f i _nodert_generated.obj
 0001:0002029c       ?__abi_QueryInterface@?$AsyncOperationCompletedHandler@E@Foundation@Windows@@WBA@E$AAAJAEAVGuid@Platform@@PEAPEAX@Z 000000018002129c f i _nodert_generated.obj
 0001:000202a8       ?__abi_GetRuntimeClassName@?$AsyncOperationCompletedHandler@PE$AAVWiFiConnectionResult@WiFi@Devices@Windows@@@Foundation@Windows@@W7E$AAAJPEAPEAUHSTRING__@@@Z 00000001800212a8 f i _nodert_generated.obj
 0001:000202b4       ?__abi_QueryInterface@?QObject@Platform@@_IAsyncActionToAsyncOperationConverter@details@Concurrency@@WBA@E$AAAJAEAVGuid@2@PEAPEAX@Z 00000001800212b4 f i _nodert_generated.obj
 0001:000202c0       ?Cancel@?QIAsyncInfo@Foundation@Windows@@?$_AsyncInfoImpl@PE$AAUIAsyncAction@Foundation@Windows@@VAsyncActionCompletedHandler@23@E@details@Concurrency@@WBA@E$AAAXXZ 00000001800212c0 f i _nodert_generated.obj
 0001:000202cc       ?__abi_Release@?QObject@Platform@@_IAsyncActionToAsyncOperationConverter@details@Concurrency@@WBI@E$AAAKXZ 00000001800212cc f i _nodert_generated.obj
 0001:000202d8       ?set@?Q?$IAsyncOperation@E@Foundation@Windows@@Completed@?$_AsyncInfoImpl@PE$AAUIAsyncAction@Foundation@Windows@@VAsyncActionCompletedHandler@23@E@details@Concurrency@@W7E$AAAXPE$AAV?$AsyncOperationCompletedHandler@E@23@@Z 00000001800212d8 f i _nodert_generated.obj
 0001:000202e4       ?__abi_GetRuntimeClassName@?$AsyncOperationCompletedHandler@W4WiFiAccessStatus@WiFi@Devices@Windows@@@Foundation@Windows@@WBA@E$AAAJPEAPEAUHSTRING__@@@Z 00000001800212e4 f i _nodert_generated.obj
 0001:000202f0       ?__abi_Release@?QObject@Platform@@_IAsyncActionToAsyncOperationConverter@details@Concurrency@@WFI@E$AAAKXZ 00000001800212f0 f i _nodert_generated.obj
 0001:000202fc       ?__abi_Windows_Foundation_IAsyncInfo____abi_get_ErrorCode@?QIAsyncInfo@Foundation@Windows@@?$_AsyncInfoImpl@PE$AAUIAsyncAction@Foundation@Windows@@VAsyncActionCompletedHandler@23@E@details@Concurrency@@WBA@E$AAAJPEAVHResult@23@@Z 00000001800212fc f i _nodert_generated.obj
 0001:00020308       ?__abi_GetIids@?QObject@Platform@@_IAsyncActionToAsyncOperationConverter@details@Concurrency@@W7E$AAAJPEAKPEAPEAVGuid@2@@Z 0000000180021308 f i _nodert_generated.obj
 0001:00020314       ?__abi_QueryInterface@?$AsyncOperationCompletedHandler@W4WiFiAccessStatus@WiFi@Devices@Windows@@@Foundation@Windows@@W7E$AAAJAEAVGuid@Platform@@PEAPEAX@Z 0000000180021314 f i _nodert_generated.obj
 0001:00020320       ?__abi_QueryInterface@?$AsyncOperationCompletedHandler@PE$AAVWiFiConnectionResult@WiFi@Devices@Windows@@@Foundation@Windows@@WBA@E$AAAJAEAVGuid@Platform@@PEAPEAX@Z 0000000180021320 f i _nodert_generated.obj
 0001:0002032c       ?__abi_Windows_Foundation_IAsyncInfo____abi_Cancel@?QIAsyncInfo@Foundation@Windows@@?$_AsyncInfoImpl@PE$AAUIAsyncAction@Foundation@Windows@@VAsyncActionCompletedHandler@23@E@details@Concurrency@@WBA@E$AAAJXZ 000000018002132c f i _nodert_generated.obj
 0001:00020338       ?__abi_AddRef@?QObject@Platform@@_IAsyncActionToAsyncOperationConverter@details@Concurrency@@WBI@E$AAAKXZ 0000000180021338 f i _nodert_generated.obj
 0001:00020344       ?get@?QIAsyncInfo@Foundation@Windows@@Id@?$_AsyncInfoImpl@PE$AAUIAsyncAction@Foundation@Windows@@VAsyncActionCompletedHandler@23@E@details@Concurrency@@WBA@E$AAAIXZ 0000000180021344 f i _nodert_generated.obj
 0001:00020350       ?GetResults@?Q?$IAsyncOperation@E@Foundation@Windows@@_IAsyncActionToAsyncOperationConverter@details@Concurrency@@WBA@E$AAAEXZ 0000000180021350 f i _nodert_generated.obj
 0001:0002035c       ?__abi_GetRuntimeClassName@?QObject@Platform@@_IAsyncActionToAsyncOperationConverter@details@Concurrency@@WBA@E$AAAJPEAPEAUHSTRING__@@@Z 000000018002135c f i _nodert_generated.obj
 0001:00020368       ?__abi_GetRuntimeClassName@?$AsyncOperationCompletedHandler@PE$AAVWiFiAdapter@WiFi@Devices@Windows@@@Foundation@Windows@@W7E$AAAJPEAPEAUHSTRING__@@@Z 0000000180021368 f i _nodert_generated.obj
 0001:00020374       ?__abi_QueryInterface@?$TypedEventHandler@PE$AAVWiFiAdapter@WiFi@Devices@Windows@@PE$AAVObject@Platform@@@Foundation@Windows@@WBA@E$AAAJAEAVGuid@Platform@@PEAPEAX@Z 0000000180021374 f i _nodert_generated.obj
 0001:00020380       ?__abi_AddRef@?QObject@Platform@@_IAsyncActionToAsyncOperationConverter@details@Concurrency@@WFI@E$AAAKXZ 0000000180021380 f i _nodert_generated.obj
 0001:0002038c       ?__abi_GetRuntimeClassName@?$AsyncOperationCompletedHandler@PE$AAVWiFiConnectionResult@WiFi@Devices@Windows@@@Foundation@Windows@@WBA@E$AAAJPEAPEAUHSTRING__@@@Z 000000018002138c f i _nodert_generated.obj
 0001:00020398       ?GetWeakReference@?QIWeakReferenceSource@Details@Platform@@_IAsyncActionToAsyncOperationConverter@details@Concurrency@@WFI@E$AAAPE$AAUIWeakReference@23@XZ 0000000180021398 f i _nodert_generated.obj
 0001:000203a4       ?__abi_QueryInterface@?QObject@Platform@@_IAsyncActionToAsyncOperationConverter@details@Concurrency@@WBI@E$AAAJAEAVGuid@2@PEAPEAX@Z 00000001800213a4 f i _nodert_generated.obj
 0001:000203b0       ?__abi_GetRuntimeClassName@?$TypedEventHandler@PE$AAVWiFiAdapter@WiFi@Devices@Windows@@PE$AAVObject@Platform@@@Foundation@Windows@@W7E$AAAJPEAPEAUHSTRING__@@@Z 00000001800213b0 f i _nodert_generated.obj
 0001:000203bc       ?__abi_Release@?QObject@Platform@@_IAsyncActionToAsyncOperationConverter@details@Concurrency@@WCA@E$AAAKXZ 00000001800213bc f i _nodert_generated.obj
 0001:000203c8       ?__abi_QueryInterface@?QObject@Platform@@_IAsyncActionToAsyncOperationConverter@details@Concurrency@@WFI@E$AAAJAEAVGuid@2@PEAPEAX@Z 00000001800213c8 f i _nodert_generated.obj
 0001:000203d4       ?__abi_Release@?QObject@Platform@@_IAsyncActionToAsyncOperationConverter@details@Concurrency@@WGA@E$AAAKXZ 00000001800213d4 f i _nodert_generated.obj
 0001:000203e0       ?__abi_GetIids@?QObject@Platform@@_IAsyncActionToAsyncOperationConverter@details@Concurrency@@WBA@E$AAAJPEAKPEAPEAVGuid@2@@Z 00000001800213e0 f i _nodert_generated.obj
 0001:000203ec       ?__abi_QueryInterface@?$AsyncOperationCompletedHandler@W4WiFiAccessStatus@WiFi@Devices@Windows@@@Foundation@Windows@@WBA@E$AAAJAEAVGuid@Platform@@PEAPEAX@Z 00000001800213ec f i _nodert_generated.obj
 0001:000203f8       ?__abi_AddRef@?QObject@Platform@@_IAsyncActionToAsyncOperationConverter@details@Concurrency@@WCA@E$AAAKXZ 00000001800213f8 f i _nodert_generated.obj
 0001:00020404       ?__abi_GetIids@?$TypedEventHandler@PE$AAVWiFiAdapter@WiFi@Devices@Windows@@PE$AAVObject@Platform@@@Foundation@Windows@@W7E$AAAJPEAKPEAPEAVGuid@Platform@@@Z 0000000180021404 f i _nodert_generated.obj
 0001:00020410       ?__abi_GetRuntimeClassName@?QObject@Platform@@_IAsyncActionToAsyncOperationConverter@details@Concurrency@@WBI@E$AAAJPEAPEAUHSTRING__@@@Z 0000000180021410 f i _nodert_generated.obj
 0001:0002041c       ?__abi_GetRuntimeClassName@?$AsyncOperationCompletedHandler@PE$AAVWiFiAdapter@WiFi@Devices@Windows@@@Foundation@Windows@@WBA@E$AAAJPEAPEAUHSTRING__@@@Z 000000018002141c f i _nodert_generated.obj
 0001:00020428       ?__abi_AddRef@?QObject@Platform@@_IAsyncActionToAsyncOperationConverter@details@Concurrency@@WGA@E$AAAKXZ 0000000180021428 f i _nodert_generated.obj
 0001:00020434       ?__abi_QueryInterface@AsyncActionCompletedHandler@Foundation@Windows@@W7E$AAAJAEAVGuid@Platform@@PEAPEAX@Z 0000000180021434 f i _nodert_generated.obj
 0001:00020440       ?__abi_GetTrustLevel@?QObject@Platform@@_IAsyncActionToAsyncOperationConverter@details@Concurrency@@WBI@E$AAAJPEAW4__abi_TrustLevel@@@Z 0000000180021440 f i _nodert_generated.obj
 0001:0002044c       ?__abi_QueryInterface@?QObject@Platform@@_IAsyncActionToAsyncOperationConverter@details@Concurrency@@WCA@E$AAAJAEAVGuid@2@PEAPEAX@Z 000000018002144c f i _nodert_generated.obj
 0001:00020458       ?__abi_Windows_Foundation_IAsyncInfo____abi_get_Status@?QIAsyncInfo@Foundation@Windows@@?$_AsyncInfoImpl@PE$AAUIAsyncAction@Foundation@Windows@@VAsyncActionCompletedHandler@23@E@details@Concurrency@@WBA@E$AAAJPEAW4AsyncStatus@23@@Z 0000000180021458 f i _nodert_generated.obj
 0001:00020464       ?__abi_Release@?QObject@Platform@@_IAsyncActionToAsyncOperationConverter@details@Concurrency@@W7E$AAAKXZ 0000000180021464 f i _nodert_generated.obj
 0001:00020470       ?__abi_GetRuntimeClassName@?$TypedEventHandler@PE$AAVWiFiAdapter@WiFi@Devices@Windows@@PE$AAVObject@Platform@@@Foundation@Windows@@WBA@E$AAAJPEAPEAUHSTRING__@@@Z 0000000180021470 f i _nodert_generated.obj
 0001:0002047c       ?get@?QIAsyncInfo@Foundation@Windows@@ErrorCode@?$_AsyncInfoImpl@PE$AAUIAsyncAction@Foundation@Windows@@VAsyncActionCompletedHandler@23@E@details@Concurrency@@WBA@E$AAA?AVHResult@23@XZ 000000018002147c f i _nodert_generated.obj
 0001:00020488       ?__abi_GetRuntimeClassName@AsyncActionCompletedHandler@Foundation@Windows@@W7E$AAAJPEAPEAUHSTRING__@@@Z 0000000180021488 f i _nodert_generated.obj
 0001:000204a0       ?ForceSet@Nan@@YA?AV?$Maybe@_N@v8@@V?$Local@VObject@v8@@@3@V?$Local@VValue@v8@@@3@1W4PropertyAttribute@3@@Z 00000001800214a0 f i NodeRtUtils.obj
 0001:00020530       ?Has@Nan@@YA?AV?$Maybe@_N@v8@@V?$Local@VObject@v8@@@3@V?$Local@VString@v8@@@3@@Z 0000000180021530 f i NodeRtUtils.obj
 0001:000205b0       ?New@?$Factory@VDate@v8@@@imp@Nan@@SA?AV?$MaybeLocal@VDate@v8@@@v8@@N@Z 00000001800215b0 f i NodeRtUtils.obj
 0001:00020640       ?WinRtExceptionToJsError@Utils@NodeRT@@YA?AV?$Local@VValue@v8@@@v8@@PE$AAVException@Platform@@@Z 0000000180021640 f   NodeRtUtils.obj
 0001:00020810       ?ThrowWinRtExceptionInJs@Utils@NodeRT@@YAXPE$AAVException@Platform@@@Z 0000000180021810 f   NodeRtUtils.obj
 0001:00020850       ?CreateCallbackObjectInDomain@Utils@NodeRT@@YA?AV?$Local@VObject@v8@@@v8@@V?$Local@VFunction@v8@@@4@@Z 0000000180021850 f   NodeRtUtils.obj
 0001:00020ab0       ?GetObjectInstance@Utils@NodeRT@@YAPE$AAVObject@Platform@@V?$Local@VValue@v8@@@v8@@@Z 0000000180021ab0 f   NodeRtUtils.obj
 0001:00020b30       ?CaseInsenstiveEquals@Utils@NodeRT@@YA_NPEB_WPEBG@Z 0000000180021b30 f   NodeRtUtils.obj
 0001:00020b90       ?RegisterNameSpace@Utils@NodeRT@@YAXPEBDV?$Local@VValue@v8@@@v8@@@Z 0000000180021b90 f   NodeRtUtils.obj
 0001:00020d60       ?CreateExternalWinRTObject@Utils@NodeRT@@YA?AV?$Local@VValue@v8@@@v8@@PEBD0PE$AAVObject@Platform@@@Z 0000000180021d60 f   NodeRtUtils.obj
 0001:00021090       ?IsWinRtWrapper@Utils@NodeRT@@YA_NV?$Local@VValue@v8@@@v8@@@Z 0000000180022090 f   NodeRtUtils.obj
 0001:000211d0       ?New@OpaqueWrapper@NodeRT@@CAXAEBV?$FunctionCallbackInfo@VValue@v8@@@Nan@@@Z 00000001800221d0 f   OpaqueWrapper.obj
 0001:00021270       ?Init@OpaqueWrapper@NodeRT@@CAXXZ 0000000180022270 f   OpaqueWrapper.obj
 0001:00021390       ?CreateOpaqueWrapper@NodeRT@@YA?AV?$Local@VValue@v8@@@v8@@PE$AAVObject@Platform@@@Z 0000000180022390 f   OpaqueWrapper.obj
 0001:0002152e       __imp_load_?Global@Context@v8@@QEAA?AV?$Local@VObject@v8@@@2@XZ 000000018002252e f   node:node.exe
 0001:0002153a       __tailMerge_node_exe       000000018002253a f i node:node.exe
 0001:000215b3       __imp_load_?Value@External@v8@@QEBAPEAXXZ 00000001800225b3 f   node:node.exe
 0001:000215bf       __imp_load_?New@External@v8@@SA?AV?$Local@VExternal@v8@@@2@PEAVIsolate@2@PEAX@Z 00000001800225bf f   node:node.exe
 0001:000215cb       __imp_load_?NewFromUnsigned@Integer@v8@@SA?AV?$Local@VInteger@v8@@@2@PEAVIsolate@2@I@Z 00000001800225cb f   node:node.exe
 0001:000215d7       __imp_load_?New@Integer@v8@@SA?AV?$Local@VInteger@v8@@@2@PEAVIsolate@2@H@Z 00000001800225d7 f   node:node.exe
 0001:000215e3       __imp_load_?New@Signature@v8@@SA?AV?$Local@VSignature@v8@@@2@PEAVIsolate@2@V?$Local@VFunctionTemplate@v8@@@2@@Z 00000001800225e3 f   node:node.exe
 0001:000215ef       __imp_load_?ThrowException@Isolate@v8@@QEAA?AV?$Local@VValue@v8@@@2@V32@@Z 00000001800225ef f   node:node.exe
 0001:000215fb       __imp_load_?GetCurrentContext@Isolate@v8@@QEAA?AV?$Local@VContext@v8@@@2@XZ 00000001800225fb f   node:node.exe
 0001:00021607       __imp_load_?GetCurrent@Isolate@v8@@SAPEAV12@XZ 0000000180022607 f   node:node.exe
 0001:00021613       __imp_load_?CreateHandle@HandleScope@v8@@KAPEAPEAVObject@internal@2@PEAVIsolate@42@PEAV342@@Z 0000000180022613 f   node:node.exe
 0001:0002161f       __imp_load_?CreateHandle@HandleScope@v8@@CAPEAPEAVObject@internal@2@PEAVHeapObject@42@PEAV342@@Z 000000018002261f f   node:node.exe
 0001:0002162b       __imp_load_??1HandleScope@v8@@QEAA@XZ 000000018002262b f   node:node.exe
 0001:00021637       __imp_load_??0HandleScope@v8@@QEAA@PEAVIsolate@1@@Z 0000000180022637 f   node:node.exe
 0001:00021643       __imp_load_?Set@Template@v8@@QEAAXV?$Local@VName@v8@@@2@V?$Local@VData@v8@@@2@W4PropertyAttribute@2@@Z 0000000180022643 f   node:node.exe
 0001:0002164f       __imp_load_?Error@Exception@v8@@SA?AV?$Local@VValue@v8@@@2@V?$Local@VString@v8@@@2@@Z 000000018002264f f   node:node.exe
 0001:0002165b       __imp_load_?HasInstance@FunctionTemplate@v8@@QEAA_NV?$Local@VValue@v8@@@2@@Z 000000018002265b f   node:node.exe
 0001:00021667       __imp_load_?SetClassName@FunctionTemplate@v8@@QEAAXV?$Local@VString@v8@@@2@@Z 0000000180022667 f   node:node.exe
 0001:00021673       __imp_load_?PrototypeTemplate@FunctionTemplate@v8@@QEAA?AV?$Local@VObjectTemplate@v8@@@2@XZ 0000000180022673 f   node:node.exe
 0001:0002167f       __imp_load_?InstanceTemplate@FunctionTemplate@v8@@QEAA?AV?$Local@VObjectTemplate@v8@@@2@XZ 000000018002267f f   node:node.exe
 0001:0002168b       __imp_load_?GetFunction@FunctionTemplate@v8@@QEAA?AV?$MaybeLocal@VFunction@v8@@@2@V?$Local@VContext@v8@@@2@@Z 000000018002268b f   node:node.exe
 0001:00021697       __imp_load_?New@FunctionTemplate@v8@@SA?AV?$Local@VFunctionTemplate@v8@@@2@PEAVIsolate@2@P6AXAEBV?$FunctionCallbackInfo@VValue@v8@@@2@@ZV?$Local@VValue@v8@@@2@V?$Local@VSignature@v8@@@2@H@Z 0000000180022697 f   node:node.exe
 0001:000216a3       __imp_load_?ToLocalEmpty@V8@v8@@CAXXZ 00000001800226a3 f   node:node.exe
 0001:000216af       __imp_load_?ClearWeak@V8@v8@@CAPEAXPEAPEAVObject@internal@2@@Z 00000001800226af f   node:node.exe
 0001:000216bb       __imp_load_?MakeWeak@V8@v8@@CAXPEAPEAVObject@internal@2@PEAXP6AXAEBV?$WeakCallbackInfo@X@2@@ZW4WeakCallbackType@2@@Z 00000001800226bb f   node:node.exe
 0001:000216c7       __imp_load_?DisposeGlobal@V8@v8@@CAXPEAPEAVObject@internal@2@@Z 00000001800226c7 f   node:node.exe
 0001:000216d3       __imp_load_?GlobalizeReference@V8@v8@@CAPEAPEAVObject@internal@2@PEAVIsolate@42@PEAPEAV342@@Z 00000001800226d3 f   node:node.exe
 0001:000216df       __imp_load_?Equals@Value@v8@@QEBA_NV?$Local@VValue@v8@@@2@@Z 00000001800226df f   node:node.exe
 0001:000216eb       __imp_load_?Equals@Value@v8@@QEBA?AV?$Maybe@_N@2@V?$Local@VContext@v8@@@2@V?$Local@VValue@v8@@@2@@Z 00000001800226eb f   node:node.exe
 0001:000216f7       __imp_load_?Int32Value@Value@v8@@QEBA?AV?$Maybe@H@2@V?$Local@VContext@v8@@@2@@Z 00000001800226f7 f   node:node.exe
 0001:00021703       __imp_load_?Uint32Value@Value@v8@@QEBAIXZ 0000000180022703 f   node:node.exe
 0001:0002170f       __imp_load_?ToInteger@Value@v8@@QEBA?AV?$MaybeLocal@VInteger@v8@@@2@V?$Local@VContext@v8@@@2@@Z 000000018002270f f   node:node.exe
 0001:0002171b       __imp_load_?ToObject@Value@v8@@QEBA?AV?$MaybeLocal@VObject@v8@@@2@V?$Local@VContext@v8@@@2@@Z 000000018002271b f   node:node.exe
 0001:00021727       __imp_load_?ToString@Value@v8@@QEBA?AV?$MaybeLocal@VString@v8@@@2@V?$Local@VContext@v8@@@2@@Z 0000000180022727 f   node:node.exe
 0001:00021733       __imp_load_?IsUint32@Value@v8@@QEBA_NXZ 0000000180022733 f   node:node.exe
 0001:0002173f       __imp_load_?IsInt32@Value@v8@@QEBA_NXZ 000000018002273f f   node:node.exe
 0001:0002174b       __imp_load_?IsBoolean@Value@v8@@QEBA_NXZ 000000018002274b f   node:node.exe
 0001:00021757       __imp_load_?IsObject@Value@v8@@QEBA_NXZ 0000000180022757 f   node:node.exe
 0001:00021763       __imp_load_?IsFunction@Value@v8@@QEBA_NXZ 0000000180022763 f   node:node.exe
 0001:0002176f       __imp_load_?Exception@TryCatch@v8@@QEBA?AV?$Local@VValue@v8@@@2@XZ 000000018002276f f   node:node.exe
 0001:0002177b       __imp_load_?HasCaught@TryCatch@v8@@QEBA_NXZ 000000018002277b f   node:node.exe
 0001:00021787       __imp_load_??1TryCatch@v8@@QEAA@XZ 0000000180022787 f   node:node.exe
 0001:00021793       __imp_load_??0TryCatch@v8@@QEAA@PEAVIsolate@1@@Z 0000000180022793 f   node:node.exe
 0001:0002179f       __imp_load_?Escape@EscapableHandleScope@v8@@AEAAPEAPEAVObject@internal@2@PEAPEAV342@@Z 000000018002279f f   node:node.exe
 0001:000217ab       __imp_load_??0EscapableHandleScope@v8@@QEAA@PEAVIsolate@1@@Z 00000001800227ab f   node:node.exe
 0001:000217b7       __imp_load_??1Value@String@v8@@QEAA@XZ 00000001800227b7 f   node:node.exe
 0001:000217c3       __imp_load_??0Value@String@v8@@QEAA@V?$Local@VValue@v8@@@2@@Z 00000001800227c3 f   node:node.exe
 0001:000217cf       __imp_load_?Concat@String@v8@@SA?AV?$Local@VString@v8@@@2@V32@0@Z 00000001800227cf f   node:node.exe
 0001:000217db       __imp_load_?NewFromUtf8@String@v8@@SA?AV?$MaybeLocal@VString@v8@@@2@PEAVIsolate@2@PEBDW4NewStringType@2@H@Z 00000001800227db f   node:node.exe
 0001:000217e7       __imp_load_?New@Number@v8@@SA?AV?$Local@VNumber@v8@@@2@PEAVIsolate@2@N@Z 00000001800227e7 f   node:node.exe
 0001:000217f3       __imp_load_?SlowGetAlignedPointerFromInternalField@Object@v8@@AEAAPEAXH@Z 00000001800227f3 f   node:node.exe
 0001:000217ff       __imp_load_?SlowGetInternalField@Object@v8@@AEAA?AV?$Local@VValue@v8@@@2@H@Z 00000001800227ff f   node:node.exe
 0001:0002180b       __imp_load_?New@Object@v8@@SA?AV?$Local@VObject@v8@@@2@PEAVIsolate@2@@Z 000000018002280b f   node:node.exe
 0001:00021817       __imp_load_?SetAlignedPointerInInternalField@Object@v8@@QEAAXHPEAX@Z 0000000180022817 f   node:node.exe
 0001:00021823       __imp_load_?SetInternalField@Object@v8@@QEAAXHV?$Local@VValue@v8@@@2@@Z 0000000180022823 f   node:node.exe
 0001:0002182f       __imp_load_?InternalFieldCount@Object@v8@@QEAAHXZ 000000018002282f f   node:node.exe
 0001:0002183b       __imp_load_?SetPrototype@Object@v8@@QEAA?AV?$Maybe@_N@2@V?$Local@VContext@v8@@@2@V?$Local@VValue@v8@@@2@@Z 000000018002283b f   node:node.exe
 0001:00021847       __imp_load_?Delete@Object@v8@@QEAA?AV?$Maybe@_N@2@V?$Local@VContext@v8@@@2@V?$Local@VValue@v8@@@2@@Z 0000000180022847 f   node:node.exe
 0001:00021853       __imp_load_?Get@Object@v8@@QEAA?AV?$Local@VValue@v8@@@2@V32@@Z 0000000180022853 f   node:node.exe
 0001:0002185f       __imp_load_?Get@Object@v8@@QEAA?AV?$MaybeLocal@VValue@v8@@@2@V?$Local@VContext@v8@@@2@V?$Local@VValue@v8@@@2@@Z 000000018002285f f   node:node.exe
 0001:0002186b       __imp_load_?Set@Object@v8@@QEAA_NV?$Local@VValue@v8@@@2@0@Z 000000018002286b f   node:node.exe
 0001:00021877       __imp_load_?Set@Object@v8@@QEAA?AV?$Maybe@_N@2@V?$Local@VContext@v8@@@2@V?$Local@VValue@v8@@@2@1@Z 0000000180022877 f   node:node.exe
 0001:00021883       __imp_load_?NewInstance@Function@v8@@QEBA?AV?$MaybeLocal@VObject@v8@@@2@V?$Local@VContext@v8@@@2@HQEAV?$Local@VValue@v8@@@2@@Z 0000000180022883 f   node:node.exe
 0001:0002188f       __imp_load_?SetInternalFieldCount@ObjectTemplate@v8@@QEAAXH@Z 000000018002288f f   node:node.exe
 0001:0002189b       __imp_load_?SetHandler@ObjectTemplate@v8@@QEAAXAEBUIndexedPropertyHandlerConfiguration@2@@Z 000000018002289b f   node:node.exe
 0001:000218a7       __imp_load_?SetAccessor@ObjectTemplate@v8@@QEAAXV?$Local@VName@v8@@@2@P6AX0AEBV?$PropertyCallbackInfo@VValue@v8@@@2@@ZP6AX0V?$Local@VValue@v8@@@2@AEBV?$PropertyCallbackInfo@X@2@@Z3W4AccessControl@2@W4PropertyAttribute@2@V?$Local@VAccessorSignature@v8@@@2@@Z 00000001800228a7 f   node:node.exe
 0001:000218b3       __imp_load_?NewInstance@ObjectTemplate@v8@@QEAA?AV?$MaybeLocal@VObject@v8@@@2@V?$Local@VContext@v8@@@2@@Z 00000001800228b3 f   node:node.exe
 0001:000218bf       __imp_load_?New@ObjectTemplate@v8@@SA?AV?$Local@VObjectTemplate@v8@@@2@PEAVIsolate@2@V?$Local@VFunctionTemplate@v8@@@2@@Z 00000001800228bf f   node:node.exe
 0001:000218cb       __imp_load_uv_close        00000001800228cb f   node:node.exe
 0001:000218d7       __imp_load_node_module_register 00000001800228d7 f   node:node.exe
 0001:000218e3       __imp_load_?MakeCallback@node@@YA?AV?$Local@VValue@v8@@@v8@@PEAVIsolate@3@V?$Local@VObject@v8@@@3@V?$Local@VString@v8@@@3@HPEAV23@@Z 00000001800228e3 f   node:node.exe
 0001:000218ef       __imp_load_uv_async_send   00000001800228ef f   node:node.exe
 0001:000218fb       __imp_load_uv_async_init   00000001800228fb f   node:node.exe
 0001:00021907       __imp_load_uv_default_loop 0000000180022907 f   node:node.exe
 0001:00021913       __imp_load_??1EscapableHandleScope@v8@@QEAA@XZ 0000000180022913 f   node:node.exe
 0001:0002191f       __imp_load_?New@Date@v8@@SA?AV?$MaybeLocal@VValue@v8@@@2@V?$Local@VContext@v8@@@2@N@Z 000000018002291f f   node:node.exe
 0001:0002192b       __imp_load_?IsTrue@Value@v8@@QEBA_NXZ 000000018002292b f   node:node.exe
 0001:00021937       __imp_load_?NewFromTwoByte@String@v8@@SA?AV?$MaybeLocal@VString@v8@@@2@PEAVIsolate@2@PEBGW4NewStringType@2@H@Z 0000000180022937 f   node:node.exe
 0001:00021943       __imp_load_?Has@Object@v8@@QEAA?AV?$Maybe@_N@2@V?$Local@VContext@v8@@@2@V?$Local@VValue@v8@@@2@@Z 0000000180022943 f   node:node.exe
 0001:0002194f       __imp_load_?ForceSet@Object@v8@@QEAA?AV?$Maybe@_N@2@V?$Local@VContext@v8@@@2@V?$Local@VValue@v8@@@2@1W4PropertyAttribute@2@@Z 000000018002294f f   node:node.exe
 0001:0002195c       ?Initialize@Details@Platform@@YAHXZ 000000018002295c f   vccorlib:init.obj
 0001:000219b0       ??_G?$Module@$00VInProcModule@Details@Platform@@@WRL@Microsoft@@UEAAPEAXI@Z 00000001800229b0 f i vccorlib:init.obj
 0001:000219b0       ??_E?$Module@$00VInProcModule@Details@Platform@@@WRL@Microsoft@@UEAAPEAXI@Z 00000001800229b0 f i vccorlib:init.obj
 0001:000219fc       ??_EInProcModule@Details@Platform@@UEAAPEAXI@Z 00000001800229fc f i vccorlib:init.obj
 0001:000219fc       ??_GInProcModule@Details@Platform@@UEAAPEAXI@Z 00000001800229fc f i vccorlib:init.obj
 0001:00021a5c       ?Cleanup@Details@Platform@@YAXXZ 0000000180022a5c f   vccorlib:init.obj
 0001:00021a68       ?Create@?$Module@$00VInProcModule@Details@Platform@@@WRL@Microsoft@@SAAEAVInProcModule@Details@Platform@@XZ 0000000180022a68 f i vccorlib:init.obj
 0001:00021ad0       ?GetFirstEntryPointer@ModuleBase@Details@WRL@Microsoft@@UEBAPEAPEBUCreatorMap@234@XZ 0000000180022ad0 f i vccorlib:init.obj
 0001:00021ad8       ?GetLastEntryPointer@ModuleBase@Details@WRL@Microsoft@@UEBAPEAPEBUCreatorMap@234@XZ 0000000180022ad8 f i vccorlib:init.obj
 0001:00021ae0       ?GetLock@ModuleBase@Details@WRL@Microsoft@@UEBAPEAU_RTL_SRWLOCK@@XZ 0000000180022ae0 f i vccorlib:init.obj
 0001:00021ae8       ?GetMidEntryPointer@ModuleBase@Details@WRL@Microsoft@@UEBAPEAPEBUCreatorMap@234@XZ 0000000180022ae8 f i vccorlib:init.obj
 0001:00021af0       ?GetObjectCount@ModuleBase@Details@WRL@Microsoft@@UEBAKXZ 0000000180022af0 f i vccorlib:init.obj
 0001:00021af8       ?LockExclusive@SRWLock@Wrappers@WRL@Microsoft@@SA?AV?$SyncLockT@USRWLockExclusiveTraits@HandleTraits@Wrappers@WRL@Microsoft@@@Details@234@PEAU_RTL_SRWLOCK@@@Z 0000000180022af8 f i vccorlib:init.obj
 0001:00021b24       ?TerminateMap@Details@WRL@Microsoft@@YA_NPEAVModuleBase@123@PEB_W_N@Z 0000000180022b24 f i vccorlib:init.obj
 0001:00021cb0       ?UnregisterWinRTObject@?$Module@$00VInProcModule@Details@Platform@@@WRL@Microsoft@@UEAAJPEB_WPEAU<unnamed-type-RO_REGISTRATION_COOKIE>@@@Z 0000000180022cb0 f i vccorlib:init.obj
 0001:00021cb0       ?RegisterWinRTObject@?$Module@$00VInProcModule@Details@Platform@@@WRL@Microsoft@@UEAAJPEB_WPEAPEB_WPEAPEAU<unnamed-type-RO_REGISTRATION_COOKIE>@@I@Z 0000000180022cb0 f i vccorlib:init.obj
 0001:00021cb0       ?RegisterCOMObject@?$Module@$00VInProcModule@Details@Platform@@@WRL@Microsoft@@UEAAJPEB_WPEAU_GUID@@PEAPEAUIClassFactory@@PEAKI@Z 0000000180022cb0 f i vccorlib:init.obj
 0001:00021cb0       ?UnregisterCOMObject@?$Module@$00VInProcModule@Details@Platform@@@WRL@Microsoft@@UEAAJPEB_WPEAKI@Z 0000000180022cb0 f i vccorlib:init.obj
 0001:00021cb8       ?__abi_DecrementObjectCount@InProcModule@Details@Platform@@UEAAKXZ 0000000180022cb8 f i vccorlib:init.obj
 0001:00021cb8       ?DecrementObjectCount@?$Module@$00VInProcModule@Details@Platform@@@WRL@Microsoft@@UEAAKXZ 0000000180022cb8 f i vccorlib:init.obj
 0001:00021cc8       ?__abi_IncrementObjectCount@InProcModule@Details@Platform@@UEAAKXZ 0000000180022cc8 f i vccorlib:init.obj
 0001:00021cc8       ?IncrementObjectCount@?$Module@$00VInProcModule@Details@Platform@@@WRL@Microsoft@@UEAAKXZ 0000000180022cc8 f i vccorlib:init.obj
 0001:00021cd8       ?__getIids@__winRT@@YAJHPEAKPEBU__s_GUID@@PEAPEAVGuid@Platform@@@Z 0000000180022cd8 f   vccorlib:compiler.obj
 0001:00021ce0       ?__windowsCreateString@__winRT@@YAJPEB_WHPEAPEAUHSTRING__@@@Z 0000000180022ce0 f   vccorlib:compiler.obj
 0001:00021ce8       ?__getActivationFactoryByPCWSTR@__winRT@@YAJPEAXAEAVGuid@Platform@@PEAPEAX@Z 0000000180022ce8 f   vccorlib:activation.obj
 0001:00021cee       ?InitializeData@Details@Platform@@YAJH@Z 0000000180022cee f   vccorlib:vccorlib140.DLL
 0001:00021cf4       ?UninitializeData@Details@Platform@@YAXH@Z 0000000180022cf4 f   vccorlib:vccorlib140.DLL
 0001:00021cfa       ?GetIidsFn@@YAJHPEAKPEBU__s_GUID@@PEAPEAVGuid@Platform@@@Z 0000000180022cfa f   vccorlib:vccorlib140.DLL
 0001:00021d00       ?GetActivationFactoryByPCWSTR@@YAJPEAXAEAVGuid@Platform@@PEAPEAX@Z 0000000180022d00 f   vccorlib:vccorlib140.DLL
 0001:00021d20       __security_check_cookie    0000000180022d20 f   MSVCRT:_amdsecgs_.obj
 0001:00021d44       ??_V@YAXPEAX@Z             0000000180022d44 f   MSVCRT:delete_array.obj
 0001:00021d44       ??3@YAXPEAX_K@Z            0000000180022d44 f   MSVCRT:delete_scalar_size.obj
 0001:00021e94       _Init_thread_footer        0000000180022e94 f   MSVCRT:thread_safe_statics.obj
 0001:00021ef4       _Init_thread_header        0000000180022ef4 f   MSVCRT:thread_safe_statics.obj
 0001:00021f5c       _Init_thread_notify        0000000180022f5c f   MSVCRT:thread_safe_statics.obj
 0001:00021fb8       _Init_thread_wait          0000000180022fb8 f   MSVCRT:thread_safe_statics.obj
 0001:00022050       ??2@YAPEAX_K@Z             0000000180023050 f   MSVCRT:new_scalar.obj
 0001:0002208c       __scrt_acquire_startup_lock 000000018002308c f   MSVCRT:utility.obj
 0001:000220c8       __scrt_dllmain_after_initialize_c 00000001800230c8 f   MSVCRT:utility.obj
 0001:000220fc       __scrt_dllmain_before_initialize_c 00000001800230fc f   MSVCRT:utility.obj
 0001:00022114       __scrt_dllmain_crt_thread_attach 0000000180023114 f   MSVCRT:utility.obj
 0001:0002213c       __scrt_dllmain_crt_thread_detach 000000018002313c f   MSVCRT:utility.obj
 0001:00022154       __scrt_dllmain_exception_filter 0000000180023154 f   MSVCRT:utility.obj
 0001:000221b8       __scrt_dllmain_uninitialize_c 00000001800231b8 f   MSVCRT:utility.obj
 0001:000221e8       __scrt_dllmain_uninitialize_critical 00000001800231e8 f   MSVCRT:utility.obj
 0001:000221fc       __scrt_initialize_crt      00000001800231fc f   MSVCRT:utility.obj
 0001:00022248       __scrt_initialize_onexit_tables 0000000180023248 f   MSVCRT:utility.obj
 0001:00022314       __scrt_is_nonwritable_in_current_image 0000000180023314 f   MSVCRT:utility.obj
 0001:000223b0       __scrt_release_startup_lock 00000001800233b0 f   MSVCRT:utility.obj
 0001:000223d4       __scrt_uninitialize_crt    00000001800233d4 f   MSVCRT:utility.obj
 0001:00022400       _onexit                    0000000180023400 f   MSVCRT:utility.obj
 0001:00022450       atexit                     0000000180023450 f   MSVCRT:utility.obj
 0001:00022468       ??3@YAXPEAX@Z              0000000180023468 f   MSVCRT:delete_scalar.obj
 0001:00022470       ??_U@YAPEAX_K@Z            0000000180023470 f   MSVCRT:new_array.obj
 0001:00022478       ??_Gtype_info@@UEAAPEAXI@Z 0000000180023478 f i MSVCRT:std_type_info_static.obj
 0001:00022478       ??_Etype_info@@UEAAPEAXI@Z 0000000180023478 f i MSVCRT:std_type_info_static.obj
 0001:000224a4       __raise_securityfailure    00000001800234a4 f   MSVCRT:gs_report.obj
 0001:000224d8       __report_gsfailure         00000001800234d8 f   MSVCRT:gs_report.obj
 0001:0002296c       _DllMainCRTStartup         000000018002396c f   MSVCRT:dll_dllmain.obj
 0001:000229ac       _guard_check_icall         00000001800239ac f i MSVCRT:checkcfg.obj
 0001:000229b4       __scrt_fastfail            00000001800239b4 f   MSVCRT:utility_desktop.obj
 0001:00022afc       ??0bad_alloc@std@@QEAA@AEBV01@@Z 0000000180023afc f i MSVCRT:throw_bad_alloc.obj
 0001:00022b3c       ??0bad_alloc@std@@QEAA@XZ  0000000180023b3c f i MSVCRT:throw_bad_alloc.obj
 0001:00022b5c       ??0bad_array_new_length@std@@QEAA@AEBV01@@Z 0000000180023b5c f i MSVCRT:throw_bad_alloc.obj
 0001:00022b9c       ??0bad_array_new_length@std@@QEAA@XZ 0000000180023b9c f i MSVCRT:throw_bad_alloc.obj
 0001:00022bbc       ??0exception@std@@QEAA@AEBV01@@Z 0000000180023bbc f i MSVCRT:throw_bad_alloc.obj
 0001:00022bf4       ??1bad_array_new_length@std@@UEAA@XZ 0000000180023bf4 f i MSVCRT:throw_bad_alloc.obj
 0001:00022bf4       ??1bad_alloc@std@@UEAA@XZ  0000000180023bf4 f i MSVCRT:throw_bad_alloc.obj
 0001:00022c08       ??_Eexception@std@@UEAAPEAXI@Z 0000000180023c08 f i MSVCRT:throw_bad_alloc.obj
 0001:00022c08       ??_Gbad_alloc@std@@UEAAPEAXI@Z 0000000180023c08 f i MSVCRT:throw_bad_alloc.obj
 0001:00022c08       ??_Ebad_alloc@std@@UEAAPEAXI@Z 0000000180023c08 f i MSVCRT:throw_bad_alloc.obj
 0001:00022c08       ??_Gexception@std@@UEAAPEAXI@Z 0000000180023c08 f i MSVCRT:throw_bad_alloc.obj
 0001:00022c08       ??_Gbad_array_new_length@std@@UEAAPEAXI@Z 0000000180023c08 f i MSVCRT:throw_bad_alloc.obj
 0001:00022c08       ??_Ebad_array_new_length@std@@UEAAPEAXI@Z 0000000180023c08 f i MSVCRT:throw_bad_alloc.obj
 0001:00022c4c       ?__scrt_throw_std_bad_alloc@@YAXXZ 0000000180023c4c f   MSVCRT:throw_bad_alloc.obj
 0001:00022c6c       ?__scrt_throw_std_bad_array_new_length@@YAXXZ 0000000180023c6c f   MSVCRT:throw_bad_alloc.obj
 0001:00022c8c       ?what@exception@std@@UEBAPEBDXZ 0000000180023c8c f i MSVCRT:throw_bad_alloc.obj
 0001:00022ca0       __isa_available_init       0000000180023ca0 f   MSVCRT:_cpu_disp_.obj
 0001:00022e68       _get_startup_argv_mode     0000000180023e68 f   MSVCRT:argv_mode.obj
 0001:00022e70       __scrt_is_ucrt_dll_in_use  0000000180023e70 f   MSVCRT:ucrt_detection.obj
 0001:00022e7c       __security_init_cookie     0000000180023e7c f   MSVCRT:gs_support.obj
 0001:00022f28       DllMain                    0000000180023f28 f   MSVCRT:dll_dllmain_stub.obj
 0001:00022f4c       ?__scrt_initialize_type_info@@YAXXZ 0000000180023f4c f   MSVCRT:tncleanup.obj
 0001:00022f5c       ?__scrt_uninitialize_type_info@@YAXXZ 0000000180023f5c f   MSVCRT:tncleanup.obj
 0001:00022f68       __local_stdio_printf_options 0000000180023f68 f i MSVCRT:default_local_stdio_options.obj
 0001:00022f70       __local_stdio_scanf_options 0000000180023f70 f i MSVCRT:default_local_stdio_options.obj
 0001:00022f78       __scrt_initialize_default_local_stdio_options 0000000180023f78 f   MSVCRT:default_local_stdio_options.obj
 0001:00022f94       __scrt_get_dyn_tls_init_callback 0000000180023f94 f   MSVCRT:dyn_tls_init.obj
 0001:00022f9c       _RTC_Initialize            0000000180023f9c f   MSVCRT:_initsect_.obj
 0001:00022fe8       _RTC_Terminate             0000000180023fe8 f   MSVCRT:_initsect_.obj
 0001:00023040       _purecall                  0000000180024040 f   vcruntime:VCRUNTIME140.dll
 0001:00023046       __std_terminate            0000000180024046 f   vcruntime:VCRUNTIME140.dll
 0001:0002304c       memset                     000000018002404c f   vcruntime:VCRUNTIME140.dll
 0001:0002304c       __Platform_memset          000000018002404c f   vcruntime:VCRUNTIME140.dll
 0001:00023052       __vcrt_InitializeCriticalSectionEx 0000000180024052 f   vcruntime:VCRUNTIME140.dll
 0001:00023058       __C_specific_handler       0000000180024058 f   vcruntime:VCRUNTIME140.dll
 0001:0002305e       __std_exception_copy       000000018002405e f   vcruntime:VCRUNTIME140.dll
 0001:00023064       __std_exception_destroy    0000000180024064 f   vcruntime:VCRUNTIME140.dll
 0001:0002306a       _CxxThrowException         000000018002406a f   vcruntime:VCRUNTIME140.dll
 0001:00023070       __std_type_info_destroy_list 0000000180024070 f   vcruntime:VCRUNTIME140.dll
 0001:00023076       wcslen                     0000000180024076 f   ucrt:api-ms-win-crt-string-l1-1-0.dll
 0001:00023076       __Platform_wcslen          0000000180024076 f   ucrt:api-ms-win-crt-string-l1-1-0.dll
 0001:0002307c       _callnewh                  000000018002407c f   ucrt:api-ms-win-crt-heap-l1-1-0.dll
 0001:00023082       malloc                     0000000180024082 f   ucrt:api-ms-win-crt-heap-l1-1-0.dll
 0001:00023088       _seh_filter_dll            0000000180024088 f   ucrt:api-ms-win-crt-runtime-l1-1-0.dll
 0001:0002308e       _configure_narrow_argv     000000018002408e f   ucrt:api-ms-win-crt-runtime-l1-1-0.dll
 0001:00023094       _initialize_narrow_environment 0000000180024094 f   ucrt:api-ms-win-crt-runtime-l1-1-0.dll
 0001:0002309a       _initialize_onexit_table   000000018002409a f   ucrt:api-ms-win-crt-runtime-l1-1-0.dll
 0001:000230a0       _register_onexit_function  00000001800240a0 f   ucrt:api-ms-win-crt-runtime-l1-1-0.dll
 0001:000230a6       _execute_onexit_table      00000001800240a6 f   ucrt:api-ms-win-crt-runtime-l1-1-0.dll
 0001:000230ac       _crt_atexit                00000001800240ac f   ucrt:api-ms-win-crt-runtime-l1-1-0.dll
 0001:000230b2       _cexit                     00000001800240b2 f   ucrt:api-ms-win-crt-runtime-l1-1-0.dll
 0001:000230b8       free                       00000001800240b8 f   ucrt:api-ms-win-crt-heap-l1-1-0.dll
 0001:000230be       _initterm                  00000001800240be f   ucrt:api-ms-win-crt-runtime-l1-1-0.dll
 0001:000230c4       _initterm_e                00000001800240c4 f   ucrt:api-ms-win-crt-runtime-l1-1-0.dll
 0001:000230ca       IsProcessorFeaturePresent  00000001800240ca f   kernel32:KERNEL32.dll
 0001:000230d0       CoCreateFreeThreadedMarshaler 00000001800240d0 f   ole32:ole32.dll
 0001:000230d0       __Platform_CoCreateFreeThreadedMarshaler 00000001800240d0 f   ole32:ole32.dll
 0001:000230d8       ?DloadAcquireSectionWriteAccess@@YAXXZ 00000001800240d8 f i DelayImp:delayhlp.obj
 0001:00023194       ?DloadGetSRWLockFunctionPointers@@YAEXZ 0000000180024194 f i DelayImp:delayhlp.obj
 0001:00023230       ?DloadMakePermanentImageCommit@@YAXPEAX_K@Z 0000000180024230 f i DelayImp:delayhlp.obj
 0001:000232c8       ?DloadObtainSection@@YAPEAXPEAK0@Z 00000001800242c8 f i DelayImp:delayhlp.obj
 0001:00023360       ?DloadProtectSection@@YAXKPEAK@Z 0000000180024360 f i DelayImp:delayhlp.obj
 0001:000233f0       ?DloadReleaseSectionWriteAccess@@YAXXZ 00000001800243f0 f i DelayImp:delayhlp.obj
 0001:00023494       __delayLoadHelper2         0000000180024494 f   DelayImp:delayhlp.obj
 0001:0002378e       __Platform_WindowsCreateString 000000018002478e f   runtimeobject:api-ms-win-core-winrt-string-l1-1-0.dll
 0001:0002378e       WindowsCreateString        000000018002478e f   runtimeobject:api-ms-win-core-winrt-string-l1-1-0.dll
 0001:00023794       WindowsDeleteString        0000000180024794 f   runtimeobject:api-ms-win-core-winrt-string-l1-1-0.dll
 0001:00023794       __Platform_WindowsDeleteString 0000000180024794 f   runtimeobject:api-ms-win-core-winrt-string-l1-1-0.dll
 0001:0002379a       WindowsGetStringRawBuffer  000000018002479a f   runtimeobject:api-ms-win-core-winrt-string-l1-1-0.dll
 0001:0002379a       __Platform_WindowsGetStringRawBuffer 000000018002479a f   runtimeobject:api-ms-win-core-winrt-string-l1-1-0.dll
 0001:000237a0       WindowsDuplicateString     00000001800247a0 f   runtimeobject:api-ms-win-core-winrt-string-l1-1-0.dll
 0001:000237a0       __Platform_WindowsDuplicateString 00000001800247a0 f   runtimeobject:api-ms-win-core-winrt-string-l1-1-0.dll
 0001:000237a6       __Platform_WindowsGetStringLen 00000001800247a6 f   runtimeobject:api-ms-win-core-winrt-string-l1-1-0.dll
 0001:000237a6       WindowsGetStringLen        00000001800247a6 f   runtimeobject:api-ms-win-core-winrt-string-l1-1-0.dll
 0001:000237ac       __acrt_initialize          00000001800247ac f   MSVCRT:ucrt_stubs.obj
 0001:000237ac       __acrt_uninitialize        00000001800247ac f   MSVCRT:ucrt_stubs.obj
 0001:000237ac       __vcrt_initialize          00000001800247ac f   MSVCRT:ucrt_stubs.obj
 0001:000237ac       __vcrt_thread_attach       00000001800247ac f   MSVCRT:ucrt_stubs.obj
 0001:000237ac       __acrt_thread_attach       00000001800247ac f   MSVCRT:ucrt_stubs.obj
 0001:000237ac       __vcrt_uninitialize_critical 00000001800247ac f   MSVCRT:ucrt_stubs.obj
 0001:000237ac       __scrt_stub_for_acrt_thread_detach 00000001800247ac f   MSVCRT:ucrt_stubs.obj
 0001:000237ac       __scrt_stub_for_acrt_uninitialize_critical 00000001800247ac f   MSVCRT:ucrt_stubs.obj
 0001:000237ac       __vcrt_uninitialize        00000001800247ac f   MSVCRT:ucrt_stubs.obj
 0001:000237ac       __scrt_stub_for_acrt_thread_attach 00000001800247ac f   MSVCRT:ucrt_stubs.obj
 0001:000237ac       __acrt_uninitialize_critical 00000001800247ac f   MSVCRT:ucrt_stubs.obj
 0001:000237ac       __scrt_stub_for_acrt_initialize 00000001800247ac f   MSVCRT:ucrt_stubs.obj
 0001:000237ac       __scrt_stub_for_acrt_uninitialize 00000001800247ac f   MSVCRT:ucrt_stubs.obj
 0001:000237ac       __vcrt_thread_detach       00000001800247ac f   MSVCRT:ucrt_stubs.obj
 0001:000237ac       __acrt_thread_detach       00000001800247ac f   MSVCRT:ucrt_stubs.obj
 0001:000237b0       __GSHandlerCheck           00000001800247b0 f   MSVCRT:_gshandler_.obj
 0001:000237d0       __GSHandlerCheckCommon     00000001800247d0 f   MSVCRT:_gshandler_.obj
 0001:0002382c       __GSHandlerCheck_EH        000000018002482c f   MSVCRT:gshandlereh.obj
 0001:000238ac       __CxxFrameHandler3         00000001800248ac f   vcruntime:VCRUNTIME140.dll
 0001:000238d0       _guard_dispatch_icall_nop  00000001800248d0 f   MSVCRT:_guard_dispatch_.obj
 0001:00026d40       ??__F_S_scheduler@?1??_GetStaticAmbientSchedulerRef@details@Concurrency@@YAAEAV?$shared_ptr@Uscheduler_interface@Concurrency@@@std@@XZ@YAXXZ 0000000180027d40 f i _nodert_generated.obj
 0001:00026ea4       ??__Fmodule@?1??Create@?$Module@$00VInProcModule@Details@Platform@@@WRL@Microsoft@@SAAEAVInProcModule@Details@Platform@@XZ@YAXXZ 0000000180027ea4 f i vccorlib:init.obj
 0002:00000000       __imp_GetModuleHandleA     0000000180028000     kernel32:KERNEL32.dll
 0002:00000008       __imp_LoadLibraryExA       0000000180028008     kernel32:KERNEL32.dll
 0002:00000010       __imp_FreeLibrary          0000000180028010     kernel32:KERNEL32.dll
 0002:00000018       __imp_VirtualQuery         0000000180028018     kernel32:KERNEL32.dll
 0002:00000020       __imp_VirtualProtect       0000000180028020     kernel32:KERNEL32.dll
 0002:00000028       __imp_GetSystemInfo        0000000180028028     kernel32:KERNEL32.dll
 0002:00000030       __imp_GetLastError         0000000180028030     kernel32:KERNEL32.dll
 0002:00000038       __imp_RaiseException       0000000180028038     kernel32:KERNEL32.dll
 0002:00000040       __imp_InitializeSListHead  0000000180028040     kernel32:KERNEL32.dll
 0002:00000048       __imp_DisableThreadLibraryCalls 0000000180028048     kernel32:KERNEL32.dll
 0002:00000050       __imp_GetSystemTimeAsFileTime 0000000180028050     kernel32:KERNEL32.dll
 0002:00000058       __imp_GetCurrentThreadId   0000000180028058     kernel32:KERNEL32.dll
 0002:00000060       __imp_GetCurrentProcessId  0000000180028060     kernel32:KERNEL32.dll
 0002:00000068       __imp_QueryPerformanceCounter 0000000180028068     kernel32:KERNEL32.dll
 0002:00000070       __imp_IsDebuggerPresent    0000000180028070     kernel32:KERNEL32.dll
 0002:00000078       __imp_IsProcessorFeaturePresent 0000000180028078     kernel32:KERNEL32.dll
 0002:00000080       __imp_TerminateProcess     0000000180028080     kernel32:KERNEL32.dll
 0002:00000088       __imp_GetCurrentProcess    0000000180028088     kernel32:KERNEL32.dll
 0002:00000090       __imp_SetUnhandledExceptionFilter 0000000180028090     kernel32:KERNEL32.dll
 0002:00000098       __imp_UnhandledExceptionFilter 0000000180028098     kernel32:KERNEL32.dll
 0002:000000a0       __imp_RtlVirtualUnwind     00000001800280a0     kernel32:KERNEL32.dll
 0002:000000a8       __imp_RtlLookupFunctionEntry 00000001800280a8     kernel32:KERNEL32.dll
 0002:000000b0       __imp_RtlCaptureContext    00000001800280b0     kernel32:KERNEL32.dll
 0002:000000b8       __imp_GetModuleHandleW     00000001800280b8     kernel32:KERNEL32.dll
 0002:000000c0       __imp_CreateEventW         00000001800280c0     kernel32:KERNEL32.dll
 0002:000000c8       __imp_WaitForSingleObjectEx 00000001800280c8     kernel32:KERNEL32.dll
 0002:000000d0       __imp_ResetEvent           00000001800280d0     kernel32:KERNEL32.dll
 0002:000000d8       __imp_SetEvent             00000001800280d8     kernel32:KERNEL32.dll
 0002:000000e0       __imp_DeleteCriticalSection 00000001800280e0     kernel32:KERNEL32.dll
 0002:000000e8       __imp_LeaveCriticalSection 00000001800280e8     kernel32:KERNEL32.dll
 0002:000000f0       __imp_EnterCriticalSection 00000001800280f0     kernel32:KERNEL32.dll
 0002:000000f8       __imp_CloseHandle          00000001800280f8     kernel32:KERNEL32.dll
 0002:00000100       __imp_GetProcAddress       0000000180028100     kernel32:KERNEL32.dll
 0002:00000108       __imp_AcquireSRWLockExclusive 0000000180028108     kernel32:KERNEL32.dll
 0002:00000110       __imp_ReleaseSRWLockExclusive 0000000180028110     kernel32:KERNEL32.dll
 0002:00000118       __imp_DecodePointer        0000000180028118     kernel32:KERNEL32.dll
 0002:00000120       \177KERNEL32_NULL_THUNK_DATA 0000000180028120     kernel32:KERNEL32.dll
 0002:00000128       __imp__Cnd_destroy_in_situ 0000000180028128     msvcprt:MSVCP140.dll
 0002:00000130       __imp__Cnd_broadcast       0000000180028130     msvcprt:MSVCP140.dll
 0002:00000138       __imp__Mtx_unlock          0000000180028138     msvcprt:MSVCP140.dll
 0002:00000140       __imp__Cnd_wait            0000000180028140     msvcprt:MSVCP140.dll
 0002:00000148       __imp__Mtx_init_in_situ    0000000180028148     msvcprt:MSVCP140.dll
 0002:00000150       __imp_?__ExceptionPtrRethrow@@YAXPEBX@Z 0000000180028150     msvcprt:MSVCP140.dll
 0002:00000158       __imp_?GetCurrentThreadId@platform@details@Concurrency@@YAJXZ 0000000180028158     msvcprt:MSVCP140.dll
 0002:00000160       __imp_?_ReportUnobservedException@details@Concurrency@@YAXXZ 0000000180028160     msvcprt:MSVCP140.dll
 0002:00000168       __imp_?_Schedule_chore@details@Concurrency@@YAHPEAU_Threadpool_chore@12@@Z 0000000180028168     msvcprt:MSVCP140.dll
 0002:00000170       __imp_?_IsNonBlockingThread@_Task_impl_base@details@Concurrency@@SA_NXZ 0000000180028170     msvcprt:MSVCP140.dll
 0002:00000178       __imp_?_LogWorkItemCompleted@_TaskEventLogger@details@Concurrency@@QEAAXXZ 0000000180028178     msvcprt:MSVCP140.dll
 0002:00000180       __imp_?_LogWorkItemStarted@_TaskEventLogger@details@Concurrency@@QEAAXXZ 0000000180028180     msvcprt:MSVCP140.dll
 0002:00000188       __imp_?_LogTaskExecutionCompleted@_TaskEventLogger@details@Concurrency@@QEAAXXZ 0000000180028188     msvcprt:MSVCP140.dll
 0002:00000190       __imp_?_LogTaskCompleted@_TaskEventLogger@details@Concurrency@@QEAAXXZ 0000000180028190     msvcprt:MSVCP140.dll
 0002:00000198       __imp_?_LogCancelTask@_TaskEventLogger@details@Concurrency@@QEAAXXZ 0000000180028198     msvcprt:MSVCP140.dll
 0002:000001a0       __imp_?_LogScheduleTask@_TaskEventLogger@details@Concurrency@@QEAAX_N@Z 00000001800281a0     msvcprt:MSVCP140.dll
 0002:000001a8       __imp_?_Release_chore@details@Concurrency@@YAXPEAU_Threadpool_chore@12@@Z 00000001800281a8     msvcprt:MSVCP140.dll
 0002:000001b0       __imp_?ReportUnhandledError@_ExceptionHolder@details@Concurrency@@AEAAXXZ 00000001800281b0     msvcprt:MSVCP140.dll
 0002:000001b8       __imp_?_Capture@_ContextCallback@details@Concurrency@@AEAAXXZ 00000001800281b8     msvcprt:MSVCP140.dll
 0002:000001c0       __imp_?_IsCurrentOriginSTA@_ContextCallback@details@Concurrency@@CA_NXZ 00000001800281c0     msvcprt:MSVCP140.dll
 0002:000001c8       __imp_?_Assign@_ContextCallback@details@Concurrency@@AEAAXPEAX@Z 00000001800281c8     msvcprt:MSVCP140.dll
 0002:000001d0       __imp_?_Reset@_ContextCallback@details@Concurrency@@AEAAXXZ 00000001800281d0     msvcprt:MSVCP140.dll
 0002:000001d8       __imp_?_CallInContext@_ContextCallback@details@Concurrency@@QEBAXV?$function@$$A6AXXZ@std@@_N@Z 00000001800281d8     msvcprt:MSVCP140.dll
 0002:000001e0       __imp_??0task_continuation_context@Concurrency@@AEAA@XZ 00000001800281e0     msvcprt:MSVCP140.dll
 0002:000001e8       __imp_?__ExceptionPtrCreate@@YAXPEAX@Z 00000001800281e8     msvcprt:MSVCP140.dll
 0002:000001f0       __imp__Cnd_init_in_situ    00000001800281f0     msvcprt:MSVCP140.dll
 0002:000001f8       __imp_?__ExceptionPtrCopyException@@YAXPEAXPEBX1@Z 00000001800281f8     msvcprt:MSVCP140.dll
 0002:00000200       __imp_?__ExceptionPtrCopy@@YAXPEAXPEBX@Z 0000000180028200     msvcprt:MSVCP140.dll
 0002:00000208       __imp_?_Xbad_alloc@std@@YAXXZ 0000000180028208     msvcprt:MSVCP140.dll
 0002:00000210       __imp_?_Xbad_function_call@std@@YAXXZ 0000000180028210     msvcprt:MSVCP140.dll
 0002:00000218       __imp_?_Raise_handler@std@@3P6AXAEBVexception@stdext@@@ZEA 0000000180028218     msvcprt:MSVCP140.dll
 0002:00000220       __imp_?_Throw_C_error@std@@YAXH@Z 0000000180028220     msvcprt:MSVCP140.dll
 0002:00000228       __imp_?_Xlength_error@std@@YAXPEBD@Z 0000000180028228     msvcprt:MSVCP140.dll
 0002:00000230       __imp__Mtx_destroy_in_situ 0000000180028230     msvcprt:MSVCP140.dll
 0002:00000238       __imp_?__ExceptionPtrDestroy@@YAXPEAX@Z 0000000180028238     msvcprt:MSVCP140.dll
 0002:00000240       __imp__Mtx_lock            0000000180028240     msvcprt:MSVCP140.dll
 0002:00000248       __imp_?__ExceptionPtrCurrentException@@YAXPEAX@Z 0000000180028248     msvcprt:MSVCP140.dll
 0002:00000250       \177MSVCP140_NULL_THUNK_DATA 0000000180028250     msvcprt:MSVCP140.dll
 0002:00000258       __imp___CxxFrameHandler3   0000000180028258     vcruntime:VCRUNTIME140.dll
 0002:00000260       __imp___C_specific_handler 0000000180028260     vcruntime:VCRUNTIME140.dll
 0002:00000268       __imp___vcrt_InitializeCriticalSectionEx 0000000180028268     vcruntime:VCRUNTIME140.dll
 0002:00000270       __imp___std_type_info_destroy_list 0000000180028270     vcruntime:VCRUNTIME140.dll
 0002:00000278       __imp__CxxThrowException   0000000180028278     vcruntime:VCRUNTIME140.dll
 0002:00000280       __imp___std_exception_destroy 0000000180028280     vcruntime:VCRUNTIME140.dll
 0002:00000288       __imp_memset               0000000180028288     vcruntime:VCRUNTIME140.dll
 0002:00000290       __imp_memmove              0000000180028290     vcruntime:VCRUNTIME140.dll
 0002:00000298       __imp___std_type_info_compare 0000000180028298     vcruntime:VCRUNTIME140.dll
 0002:000002a0       __imp__purecall            00000001800282a0     vcruntime:VCRUNTIME140.dll
 0002:000002a8       __imp___std_terminate      00000001800282a8     vcruntime:VCRUNTIME140.dll
 0002:000002b0       __imp___std_exception_copy 00000001800282b0     vcruntime:VCRUNTIME140.dll
 0002:000002b8       \177VCRUNTIME140_NULL_THUNK_DATA 00000001800282b8     vcruntime:VCRUNTIME140.dll
 0002:000002c0       __imp_WindowsCreateString  00000001800282c0     runtimeobject:api-ms-win-core-winrt-string-l1-1-0.dll
 0002:000002c8       __imp_WindowsDeleteString  00000001800282c8     runtimeobject:api-ms-win-core-winrt-string-l1-1-0.dll
 0002:000002d0       __imp_WindowsGetStringRawBuffer 00000001800282d0     runtimeobject:api-ms-win-core-winrt-string-l1-1-0.dll
 0002:000002d8       __imp_WindowsDuplicateString 00000001800282d8     runtimeobject:api-ms-win-core-winrt-string-l1-1-0.dll
 0002:000002e0       __imp_WindowsGetStringLen  00000001800282e0     runtimeobject:api-ms-win-core-winrt-string-l1-1-0.dll
 0002:000002e8       \177api-ms-win-core-winrt-string-l1-1-0_NULL_THUNK_DATA 00000001800282e8     runtimeobject:api-ms-win-core-winrt-string-l1-1-0.dll
 0002:000002f0       __imp_free                 00000001800282f0     ucrt:api-ms-win-crt-heap-l1-1-0.dll
 0002:000002f8       __imp__callnewh            00000001800282f8     ucrt:api-ms-win-crt-heap-l1-1-0.dll
 0002:00000300       __imp_malloc               0000000180028300     ucrt:api-ms-win-crt-heap-l1-1-0.dll
 0002:00000308       \177api-ms-win-crt-heap-l1-1-0_NULL_THUNK_DATA 0000000180028308     ucrt:api-ms-win-crt-heap-l1-1-0.dll
 0002:00000310       __imp__seh_filter_dll      0000000180028310     ucrt:api-ms-win-crt-runtime-l1-1-0.dll
 0002:00000318       __imp__configure_narrow_argv 0000000180028318     ucrt:api-ms-win-crt-runtime-l1-1-0.dll
 0002:00000320       __imp__initialize_narrow_environment 0000000180028320     ucrt:api-ms-win-crt-runtime-l1-1-0.dll
 0002:00000328       __imp__initialize_onexit_table 0000000180028328     ucrt:api-ms-win-crt-runtime-l1-1-0.dll
 0002:00000330       __imp__register_onexit_function 0000000180028330     ucrt:api-ms-win-crt-runtime-l1-1-0.dll
 0002:00000338       __imp__execute_onexit_table 0000000180028338     ucrt:api-ms-win-crt-runtime-l1-1-0.dll
 0002:00000340       __imp__invoke_watson       0000000180028340     ucrt:api-ms-win-crt-runtime-l1-1-0.dll
 0002:00000348       __imp__cexit               0000000180028348     ucrt:api-ms-win-crt-runtime-l1-1-0.dll
 0002:00000350       __imp__wassert             0000000180028350     ucrt:api-ms-win-crt-runtime-l1-1-0.dll
 0002:00000358       __imp__initterm            0000000180028358     ucrt:api-ms-win-crt-runtime-l1-1-0.dll
 0002:00000360       __imp__initterm_e          0000000180028360     ucrt:api-ms-win-crt-runtime-l1-1-0.dll
 0002:00000368       __imp__crt_atexit          0000000180028368     ucrt:api-ms-win-crt-runtime-l1-1-0.dll
 0002:00000370       __imp__invalid_parameter_noinfo_noreturn 0000000180028370     ucrt:api-ms-win-crt-runtime-l1-1-0.dll
 0002:00000378       \177api-ms-win-crt-runtime-l1-1-0_NULL_THUNK_DATA 0000000180028378     ucrt:api-ms-win-crt-runtime-l1-1-0.dll
 0002:00000380       __imp__stricmp             0000000180028380     ucrt:api-ms-win-crt-string-l1-1-0.dll
 0002:00000388       __imp_wcslen               0000000180028388     ucrt:api-ms-win-crt-string-l1-1-0.dll
 0002:00000390       __imp__wcsnicmp            0000000180028390     ucrt:api-ms-win-crt-string-l1-1-0.dll
 0002:00000398       \177api-ms-win-crt-string-l1-1-0_NULL_THUNK_DATA 0000000180028398     ucrt:api-ms-win-crt-string-l1-1-0.dll
 0002:000003a0       __imp_CoGetContextToken    00000001800283a0     ole32:ole32.dll
 0002:000003a8       __imp_CoInitializeEx       00000001800283a8     ole32:ole32.dll
 0002:000003b0       __imp_CoCreateFreeThreadedMarshaler 00000001800283b0     ole32:ole32.dll
 0002:000003b8       \177ole32_NULL_THUNK_DATA  00000001800283b8     ole32:ole32.dll
 0002:000003c0       __imp_?Allocate@Heap@Details@Platform@@SAPEAX_K0@Z 00000001800283c0     vccorlib:vccorlib140.DLL
 0002:000003c8       __imp_?Free@Heap@Details@Platform@@SAXPEAX@Z 00000001800283c8     vccorlib:vccorlib140.DLL
 0002:000003d0       __imp_?AlignedFree@Heap@Details@Platform@@SAXPEAX@Z 00000001800283d0     vccorlib:vccorlib140.DLL
 0002:000003d8       __imp_?AllocateException@Heap@Details@Platform@@SAPEAX_K0@Z 00000001800283d8     vccorlib:vccorlib140.DLL
 0002:000003e0       __imp_?GetProxyImpl@Details@Platform@@YAJPEAUIUnknown@@AEBU_GUID@@0PEAPEAU3@@Z 00000001800283e0     vccorlib:vccorlib140.DLL
 0002:000003e8       __imp_?ReleaseTarget@ControlBlock@Details@Platform@@AEAAXXZ 00000001800283e8     vccorlib:vccorlib140.DLL
 0002:000003f0       __imp_?ReCreateException@Exception@Platform@@SAPE$AAV12@H@Z 00000001800283f0     vccorlib:vccorlib140.DLL
 0002:000003f8       __imp_?__abi_WinRTraiseDisconnectedException@@YAXXZ 00000001800283f8     vccorlib:vccorlib140.DLL
 0002:00000400       __imp_?__abi_WinRTraiseFailureException@@YAXXZ 0000000180028400     vccorlib:vccorlib140.DLL
 0002:00000408       __imp_?__abi_WinRTraiseOperationCanceledException@@YAXXZ 0000000180028408     vccorlib:vccorlib140.DLL
 0002:00000410       __imp_?__abi_WinRTraiseAccessDeniedException@@YAXXZ 0000000180028410     vccorlib:vccorlib140.DLL
 0002:00000418       __imp_?__abi_WinRTraiseInvalidArgumentException@@YAXXZ 0000000180028418     vccorlib:vccorlib140.DLL
 0002:00000420       __imp_?__abi_WinRTraiseClassNotRegisteredException@@YAXXZ 0000000180028420     vccorlib:vccorlib140.DLL
 0002:00000428       __imp_?__abi_WinRTraiseCOMException@@YAXJ@Z 0000000180028428     vccorlib:vccorlib140.DLL
 0002:00000430       __imp_?__abi_translateCurrentException@@YAJ_N@Z 0000000180028430     vccorlib:vccorlib140.DLL
 0002:00000438       __imp_?__abi_WinRTraiseNullReferenceException@@YAXXZ 0000000180028438     vccorlib:vccorlib140.DLL
 0002:00000440       __imp_?__abi_WinRTraiseChangedStateException@@YAXXZ 0000000180028440     vccorlib:vccorlib140.DLL
 0002:00000448       __imp_?__abi_WinRTraiseOutOfBoundsException@@YAXXZ 0000000180028448     vccorlib:vccorlib140.DLL
 0002:00000450       __imp_?__abi_WinRTraiseWrongThreadException@@YAXXZ 0000000180028450     vccorlib:vccorlib140.DLL
 0002:00000458       __imp_?ReleaseInContextImpl@Details@Platform@@YAJPEAUIUnknown@@0@Z 0000000180028458     vccorlib:vccorlib140.DLL
 0002:00000460       __imp_?GetObjectContext@Details@Platform@@YAPEAUIUnknown@@XZ 0000000180028460     vccorlib:vccorlib140.DLL
 0002:00000468       __imp_??0NullReferenceException@Platform@@QE$AAA@XZ 0000000180028468     vccorlib:vccorlib140.DLL
 0002:00000470       __imp_??0Object@Platform@@QE$AAA@XZ 0000000180028470     vccorlib:vccorlib140.DLL
 0002:00000478       __imp_??0Delegate@Platform@@QE$AAA@XZ 0000000180028478     vccorlib:vccorlib140.DLL
 0002:00000480       __imp_?__abi_WinRTraiseNotImplementedException@@YAXXZ 0000000180028480     vccorlib:vccorlib140.DLL
 0002:00000488       __imp_?__abi_WinRTraiseInvalidCastException@@YAXXZ 0000000180028488     vccorlib:vccorlib140.DLL
 0002:00000490       __imp_?get@Message@Exception@Platform@@QE$AAAPE$AAVString@3@XZ 0000000180028490     vccorlib:vccorlib140.DLL
 0002:00000498       __imp_?__abi_WinRTraiseOutOfMemoryException@@YAXXZ 0000000180028498     vccorlib:vccorlib140.DLL
 0002:000004a0       __imp_?InitializeData@Details@Platform@@YAJH@Z 00000001800284a0     vccorlib:vccorlib140.DLL
 0002:000004a8       __imp_?UninitializeData@Details@Platform@@YAXH@Z 00000001800284a8     vccorlib:vccorlib140.DLL
 0002:000004b0       __imp_?GetIidsFn@@YAJHPEAKPEBU__s_GUID@@PEAPEAVGuid@Platform@@@Z 00000001800284b0     vccorlib:vccorlib140.DLL
 0002:000004b8       __imp_?GetActivationFactoryByPCWSTR@@YAJPEAXAEAVGuid@Platform@@PEAPEAX@Z 00000001800284b8     vccorlib:vccorlib140.DLL
 0002:000004c0       __imp_?__abi_WinRTraiseObjectDisposedException@@YAXXZ 00000001800284c0     vccorlib:vccorlib140.DLL
 0002:000004c8       \177vccorlib140_NULL_THUNK_DATA 00000001800284c8     vccorlib:vccorlib140.DLL
 0002:000004d0       __guard_check_icall_fptr   00000001800284d0     MSVCRT:guard_support.obj
 0002:000004d8       __guard_dispatch_icall_fptr 00000001800284d8     MSVCRT:guard_support.obj
 0002:000004e0       __xc_a                     00000001800284e0     MSVCRT:initializers.obj
 0002:000004f0       _register_binding_         00000001800284f0     _nodert_generated.obj
 0002:00000538       __xc_z                     0000000180028538     MSVCRT:initializers.obj
 0002:00000540       __xi_a                     0000000180028540     MSVCRT:initializers.obj
 0002:00000550       __abi__initialize          0000000180028550     vccorlib:init.obj
 0002:00000558       __xi_z                     0000000180028558     MSVCRT:initializers.obj
 0002:00000560       __xl_a                     0000000180028560     MSVCRT:tlssup.obj
 0002:00000568       __xl_z                     0000000180028568     MSVCRT:tlssup.obj
 0002:00000570       __xp_a                     0000000180028570     MSVCRT:initializers.obj
 0002:00000578       __xp_z                     0000000180028578     MSVCRT:initializers.obj
 0002:00000580       __xt_a                     0000000180028580     MSVCRT:initializers.obj
 0002:00000588       __xt_z                     0000000180028588     MSVCRT:initializers.obj
 0002:00000590       __sz_node_exe              0000000180028590     node:node.exe
 0002:000005a0       ??_C@_1BK@MGMFAEKH@?$AAk?$AAe?$AAr?$AAn?$AAe?$AAl?$AA3?$AA2?$AA?4?$AAd?$AAl?$AAl?$AA?$AA@ 00000001800285a0     MSVCRT:thread_safe_statics.obj
 0002:000005c0       ??_C@_0BM@HLJJNPAH@InitializeConditionVariable?$AA@ 00000001800285c0     MSVCRT:thread_safe_statics.obj
 0002:000005e0       ??_C@_0BJ@JEBJOJFJ@SleepConditionVariableCS?$AA@ 00000001800285e0     MSVCRT:thread_safe_statics.obj
 0002:00000600       ??_C@_0BJ@PGPPEPCC@WakeAllConditionVariable?$AA@ 0000000180028600     MSVCRT:thread_safe_statics.obj
 0002:00000628       ??_7type_info@@6B@         0000000180028628     MSVCRT:std_type_info_static.obj
 0002:00000640       _pRawDllMain               0000000180028640     MSVCRT:dll_dllmain.obj
 0002:00000640       _pDefaultRawDllMain        0000000180028640     MSVCRT:dll_dllmain.obj
 0002:00000650       ??_7exception@std@@6B@     0000000180028650     MSVCRT:throw_bad_alloc.obj
 0002:00000660       ??_C@_0BC@EOODALEL@Unknown?5exception?$AA@ 0000000180028660     MSVCRT:throw_bad_alloc.obj
 0002:00000680       ??_7bad_alloc@std@@6B@     0000000180028680     MSVCRT:throw_bad_alloc.obj
 0002:00000690       ??_C@_0P@GHFPNOJB@bad?5allocation?$AA@ 0000000180028690     MSVCRT:throw_bad_alloc.obj
 0002:000006a8       ??_7bad_array_new_length@std@@6B@ 00000001800286a8     MSVCRT:throw_bad_alloc.obj
 0002:000006b8       ??_C@_0BF@KINCDENJ@bad?5array?5new?5length?$AA@ 00000001800286b8     MSVCRT:throw_bad_alloc.obj
 0002:000006d0       ??_C@_1BK@DBDEIDLH@?$AAK?$AAE?$AAR?$AAN?$AAE?$AAL?$AA3?$AA2?$AA?4?$AAD?$AAL?$AAL?$AA?$AA@ 00000001800286d0     DelayImp:delayhlp.obj
 0002:000006f0       ??_C@_0BI@OMNLIJDB@AcquireSRWLockExclusive?$AA@ 00000001800286f0     DelayImp:delayhlp.obj
 0002:00000708       ??_C@_0BI@HMIEPCNJ@ReleaseSRWLockExclusive?$AA@ 0000000180028708     DelayImp:delayhlp.obj
 0002:00000720       __pfnDliFailureHook2       0000000180028720     DelayImp:delayhk1.obj
 0002:00000730       _load_config_used          0000000180028730     MSVCRT:loadcfg.obj
 0002:000007c8       ??_C@_0BC@BDKFLDHL@unknown?5exception?$AA@ 00000001800287c8     _nodert_generated.obj
 0002:000007e0       ??_C@_1DG@OKCGPKIB@?$AAp?$AAe?$AAr?$AAs?$AAi?$AAs?$AAt?$AAe?$AAn?$AAt?$AA?$CI?$AA?$CJ?$AA?4?$AAI?$AAs?$AAN?$AAe?$AAa?$AAr?$AAD?$AAe?$AAa?$AAt?$AAh?$AA?$CI?$AA?$CJ?$AA?$AA@ 00000001800287e0     _nodert_generated.obj
 0002:00000818       ??_C@_1CO@EGNPJLKI@?$AAp?$AAe?$AAr?$AAs?$AAi?$AAs?$AAt?$AAe?$AAn?$AAt?$AA?$CI?$AA?$CJ?$AA?4?$AAI?$AAs?$AAE?$AAm?$AAp?$AAt?$AAy?$AA?$CI?$AA?$CJ?$AA?$AA@ 0000000180028818     _nodert_generated.obj
 0002:00000848       ??_C@_1DA@FBGAEOIO@?$AA?$CB?$AAp?$AAe?$AAr?$AAs?$AAi?$AAs?$AAt?$AAe?$AAn?$AAt?$AA?$CI?$AA?$CJ?$AA?4?$AAI?$AAs?$AAE?$AAm?$AAp?$AAt?$AAy?$AA?$CI?$AA?$CJ?$AA?$AA@ 0000000180028848     _nodert_generated.obj
 0002:00000878       ??_C@_1CO@JCKLEFMA@?$AA?$CB?$AAp?$AAe?$AAr?$AAs?$AAi?$AAs?$AAt?$AAe?$AAn?$AAt?$AA?$CI?$AA?$CJ?$AA?4?$AAI?$AAs?$AAW?$AAe?$AAa?$AAk?$AA?$CI?$AA?$CJ?$AA?$AA@ 0000000180028878     _nodert_generated.obj
 0002:000008a8       ??_C@_1BE@GMLLOIPJ@?$AAr?$AAe?$AAf?$AAs?$AA_?$AA?5?$AA?$DO?$AA?5?$AA0?$AA?$AA@ 00000001800288a8     _nodert_generated.obj
 0002:000008c0       ??_C@_1CC@GBFLAAPF@?$AAw?$AAr?$AAa?$AAp?$AA?9?$AA?$DO?$AAr?$AAe?$AAf?$AAs?$AA_?$AA?5?$AA?$DN?$AA?$DN?$AA?5?$AA0?$AA?$AA@ 00000001800288c0     _nodert_generated.obj
 0002:000008f0       ??_C@_1MI@KGGJBHED@?$AAc?$AA?3?$AA?2?$AAu?$AAs?$AAe?$AAr?$AAs?$AA?2?$AAb?$AAi?$AAo?$AAs?$AAe?$AAn?$AAs?$AAi?$AAc?$AAs?$AA?2?$AAd?$AAo?$AAw?$AAn?$AAl?$AAo?$AAa?$AAd?$AAs?$AA?2?$AAn?$AAo@ 00000001800288f0     _nodert_generated.obj
 0002:000009c0       ??_C@_1EC@MGGLMBLC@?$AAo?$AAb?$AAj?$AAe?$AAc?$AAt?$AA?9?$AA?$DO?$AAI?$AAn?$AAt?$AAe?$AAr?$AAn?$AAa?$AAl?$AAF?$AAi?$AAe?$AAl?$AAd?$AAC?$AAo?$AAu?$AAn?$AAt?$AA?$CI?$AA?$CJ?$AA?5?$AA?$DO?$AA?5?$AA0@ 00000001800289c0     _nodert_generated.obj
 0002:00000a08       ??_C@_1DI@ELDBKNAK@?$AAw?$AAr?$AAa?$AAp?$AA?9?$AA?$DO?$AAh?$AAa?$AAn?$AAd?$AAl?$AAe?$AA_?$AA?4?$AAI?$AAs?$AAN?$AAe?$AAa?$AAr?$AAD?$AAe?$AAa?$AAt?$AAh?$AA?$CI?$AA?$CJ?$AA?$AA@ 0000000180028a08     _nodert_generated.obj
 0002:00000a40       ??_C@_07CIFAGBMG@unknown?$AA@ 0000000180028a40     _nodert_generated.obj
 0002:00000a48       ??_C@_0BM@DMDJGFCM@Fail?5to?5schedule?5the?5chore?$CB?$AA@ 0000000180028a48     _nodert_generated.obj
 0002:00000a68       ??_C@_0DN@ELCPICKL@This?5function?5cannot?5be?5called?5o@ 0000000180028a68     _nodert_generated.obj
 0002:00000aa8       ??_C@_0DD@NJEIIHCG@Illegal?5to?5wait?5on?5a?5task?5in?5a?5W@ 0000000180028aa8     _nodert_generated.obj
 0002:00000ae0       ??_C@_0BH@LAEGKBN@__winrtOpaqueWrapper__?$AA@ 0000000180028ae0     _nodert_generated.obj
 0002:00000af8       ??_C@_08PPIJGMPL@callback?$AA@ 0000000180028af8     _nodert_generated.obj
 0002:00000b08       ??_C@_07DEBHDLBL@process?$AA@ 0000000180028b08     _nodert_generated.obj
 0002:00000b10       ??_C@_06LKIIGAOE@domain?$AA@ 0000000180028b10     _nodert_generated.obj
 0002:00000b18       ??_C@_0BJ@LJPDLIMA@__registrationTokenMap__?$AA@ 0000000180028b18     _nodert_generated.obj
 0002:00000b38       ??_C@_0BA@ILNOHKHI@WiFiNetworkKind?$AA@ 0000000180028b38     _nodert_generated.obj
 0002:00000b48       ??_C@_03OBJFJEBA@any?$AA@  0000000180028b48     _nodert_generated.obj
 0002:00000b50       ??_C@_0P@NNCDKKIH@infrastructure?$AA@ 0000000180028b50     _nodert_generated.obj
 0002:00000b60       ??_C@_05BCOODILL@adhoc?$AA@ 0000000180028b60     _nodert_generated.obj
 0002:00000b68       ??_C@_0M@GPLDFGKD@WiFiPhyKind?$AA@ 0000000180028b68     _nodert_generated.obj
 0002:00000b74       ??_C@_04IDJIKJNP@fhss?$AA@ 0000000180028b74     _nodert_generated.obj
 0002:00000b7c       ??_C@_04HOEACKCB@dsss?$AA@ 0000000180028b7c     _nodert_generated.obj
 0002:00000b88       ??_C@_0L@EICMJDOC@iRBaseband?$AA@ 0000000180028b88     _nodert_generated.obj
 0002:00000b94       ??_C@_04KDHPDGLH@ofdm?$AA@ 0000000180028b94     _nodert_generated.obj
 0002:00000b9c       ??_C@_06NLLNKMAK@hrdsss?$AA@ 0000000180028b9c     _nodert_generated.obj
 0002:00000ba4       ??_C@_03KKAJOCBK@erp?$AA@  0000000180028ba4     _nodert_generated.obj
 0002:00000ba8       ??_C@_02JIKNCECF@hT?$AA@   0000000180028ba8     _nodert_generated.obj
 0002:00000bac       ??_C@_03JNHIPJMJ@vht?$AA@  0000000180028bac     _nodert_generated.obj
 0002:00000bb0       ??_C@_03EMOFKE@dmg?$AA@    0000000180028bb0     _nodert_generated.obj
 0002:00000bb8       ??_C@_0BB@MMFCCHMC@WiFiAccessStatus?$AA@ 0000000180028bb8     _nodert_generated.obj
 0002:00000bd0       ??_C@_0M@MFMDLEDN@unspecified?$AA@ 0000000180028bd0     _nodert_generated.obj
 0002:00000be0       ??_C@_07BHLLLGNC@allowed?$AA@ 0000000180028be0     _nodert_generated.obj
 0002:00000be8       ??_C@_0N@MGOAIPKM@deniedByUser?$AA@ 0000000180028be8     _nodert_generated.obj
 0002:00000bf8       ??_C@_0P@OJHKJMDH@deniedBySystem?$AA@ 0000000180028bf8     _nodert_generated.obj
 0002:00000c08       ??_C@_0BF@NJPOPAC@WiFiReconnectionKind?$AA@ 0000000180028c08     _nodert_generated.obj
 0002:00000c20       ??_C@_09DADDGAEC@automatic?$AA@ 0000000180028c20     _nodert_generated.obj
 0002:00000c2c       ??_C@_06LBOEMNGF@manual?$AA@ 0000000180028c2c     _nodert_generated.obj
 0002:00000c38       ??_C@_0BF@NMMKOKGL@WiFiConnectionStatus?$AA@ 0000000180028c38     _nodert_generated.obj
 0002:00000c50       ??_C@_0BD@FNNCCFJ@unspecifiedFailure?$AA@ 0000000180028c50     _nodert_generated.obj
 0002:00000c68       ??_C@_07IPNMCAN@success?$AA@ 0000000180028c68     _nodert_generated.obj
 0002:00000c70       ??_C@_0O@INIOFFCN@accessRevoked?$AA@ 0000000180028c70     _nodert_generated.obj
 0002:00000c80       ??_C@_0BC@BINHKEBH@invalidCredential?$AA@ 0000000180028c80     _nodert_generated.obj
 0002:00000c98       ??_C@_0BE@HPFGDPIP@networkNotAvailable?$AA@ 0000000180028c98     _nodert_generated.obj
 0002:00000cb0       ??_C@_07DDHNKDGP@timeout?$AA@ 0000000180028cb0     _nodert_generated.obj
 0002:00000cb8       ??_C@_0CC@DCNNCGKH@unsupportedAuthenticationProtoco@ 0000000180028cb8     _nodert_generated.obj
 0002:00000ce0       ??_C@_0M@JDMINBHH@WiFiAdapter?$AA@ 0000000180028ce0     _nodert_generated.obj
 0002:00000cf0       ??_C@_0L@KKPFIJOL@disconnect?$AA@ 0000000180028cf0     _nodert_generated.obj
 0002:00000d00       ??_C@_09MDPFPBGA@scanAsync?$AA@ 0000000180028d00     _nodert_generated.obj
 0002:00000d10       ??_C@_0N@OEJHJAGM@connectAsync?$AA@ 0000000180028d10     _nodert_generated.obj
 0002:00000d20       ??_C@_0M@GMNDPMBH@addListener?$AA@ 0000000180028d20     _nodert_generated.obj
 0002:00000d2c       ??_C@_02LIELOMNJ@on?$AA@   0000000180028d2c     _nodert_generated.obj
 0002:00000d30       ??_C@_0P@NPMHMMOM@removeListener?$AA@ 0000000180028d30     _nodert_generated.obj
 0002:00000d40       ??_C@_03MCADLMAF@off?$AA@  0000000180028d40     _nodert_generated.obj
 0002:00000d48       ??_C@_0P@FNNKKFEA@networkAdapter?$AA@ 0000000180028d48     _nodert_generated.obj
 0002:00000d58       ??_C@_0O@JDHBKBEF@networkReport?$AA@ 0000000180028d58     _nodert_generated.obj
 0002:00000d68       ??_C@_08KIDHCPHN@castFrom?$AA@ 0000000180028d68     _nodert_generated.obj
 0002:00000d78       ??_C@_0BC@KIEAEFCG@getDeviceSelector?$AA@ 0000000180028d78     _nodert_generated.obj
 0002:00000d90       ??_C@_0BF@EJNPNOHG@findAllAdaptersAsync?$AA@ 0000000180028d90     _nodert_generated.obj
 0002:00000da8       ??_C@_0M@EBDIOBPK@fromIdAsync?$AA@ 0000000180028da8     _nodert_generated.obj
 0002:00000db8       ??_C@_0BD@CADIHGEO@requestAccessAsync?$AA@ 0000000180028db8     _nodert_generated.obj
 0002:00000dd0       ??_C@_1GC@KBHNNFGK@?$AAI?$AAn?$AAv?$AAa?$AAl?$AAi?$AAd?$AA?5?$AAa?$AAr?$AAg?$AAu?$AAm?$AAe?$AAn?$AAt?$AAs?$AA?0?$AA?5?$AAn?$AAo?$AA?5?$AAs?$AAu?$AAi?$AAt?$AAa?$AAb?$AAl?$AAe?$AA?5?$AAc@ 0000000180028dd0     _nodert_generated.obj
 0002:00000e38       ??_C@_0BC@HNKGPEBE@__winRtInstance__?$AA@ 0000000180028e38     _nodert_generated.obj
 0002:00000e50       ??_C@_1LK@MDDHJJID@?$AAI?$AAn?$AAv?$AAa?$AAl?$AAi?$AAd?$AA?5?$AAa?$AAr?$AAg?$AAu?$AAm?$AAe?$AAn?$AAt?$AAs?$AA?0?$AA?5?$AAn?$AAo?$AA?5?$AAo?$AAb?$AAj?$AAe?$AAc?$AAt?$AA?5?$AAp?$AAr?$AAo@ 0000000180028e50     _nodert_generated.obj
 0002:00000f10       ??_C@_1EK@NFKCAPKC@?$AAB?$AAa?$AAd?$AA?5?$AAa?$AAr?$AAg?$AAu?$AAm?$AAe?$AAn?$AAt?$AAs?$AA?3?$AA?5?$AAN?$AAo?$AA?5?$AAc?$AAa?$AAl?$AAl?$AAb?$AAa?$AAc?$AAk?$AA?5?$AAw?$AAa?$AAs?$AA?5?$AAg@ 0000000180028f10     _nodert_generated.obj
 0002:00000f60       ??_C@_1FE@FAFBJCBD@?$AAB?$AAa?$AAd?$AA?5?$AAa?$AAr?$AAg?$AAu?$AAm?$AAe?$AAn?$AAt?$AAs?$AA?3?$AA?5?$AAn?$AAo?$AA?5?$AAs?$AAu?$AAi?$AAt?$AAa?$AAb?$AAl?$AAe?$AA?5?$AAo?$AAv?$AAe?$AAr?$AAl@ 0000000180028f60     _nodert_generated.obj
 0002:00000fb8       ??_C@_0P@NFBPJLNO@NetworkAdapter?$AA@ 0000000180028fb8     _nodert_generated.obj
 0002:00000fc8       ??_C@_0CA@BGGPKOHD@Windows?4Networking?4Connectivity?$AA@ 0000000180028fc8     _nodert_generated.obj
 0002:00000ff0       ??_C@_1JK@DNJLCGHE@?$AAw?$AAr?$AAo?$AAn?$AAg?$AA?5?$AAa?$AAr?$AAg?$AAu?$AAm?$AAe?$AAn?$AAt?$AAs?$AA?0?$AA?5?$AAe?$AAx?$AAp?$AAe?$AAc?$AAt?$AAe?$AAd?$AA?5?$AAa?$AAr?$AAg?$AAu?$AAm?$AAe@ 0000000180028ff0     _nodert_generated.obj
 0002:00001090       ??_C@_1DC@PNKJFP@?$AAa?$AAv?$AAa?$AAi?$AAl?$AAa?$AAb?$AAl?$AAe?$AAN?$AAe?$AAt?$AAw?$AAo?$AAr?$AAk?$AAs?$AAC?$AAh?$AAa?$AAn?$AAg?$AAe?$AAd?$AA?$AA@ 0000000180029090     _nodert_generated.obj
 0002:000010d0       ??_C@_1LG@DAHPAPIM@?$AAT?$AAh?$AAe?$AA?5?$AAc?$AAa?$AAl?$AAl?$AAe?$AAr?$AA?5?$AAo?$AAf?$AA?5?$AAt?$AAh?$AAi?$AAs?$AA?5?$AAm?$AAe?$AAt?$AAh?$AAo?$AAd?$AA?5?$AAi?$AAs?$AAn?$AA?8?$AAt?$AA?5@ 00000001800290d0     _nodert_generated.obj
 0002:00001190       ??_C@_1EG@KBCEIIBD@?$AAg?$AAi?$AAv?$AAe?$AAn?$AA?5?$AAe?$AAv?$AAe?$AAn?$AAt?$AA?5?$AAn?$AAa?$AAm?$AAe?$AA?5?$AAi?$AAs?$AAn?$AA?8?$AAt?$AA?5?$AAs?$AAu?$AAp?$AAp?$AAo?$AAr?$AAt?$AAe?$AAd@ 0000000180029190     _nodert_generated.obj
 0002:000011e0       ??_C@_1GE@DOIICCMG@?$AAw?$AAr?$AAo?$AAn?$AAg?$AA?5?$AAa?$AAr?$AAg?$AAu?$AAm?$AAe?$AAn?$AAt?$AAs?$AA?0?$AA?5?$AAe?$AAx?$AAp?$AAe?$AAc?$AAt?$AAe?$AAd?$AA?5?$AAa?$AA?5?$AAs?$AAt?$AAr?$AAi@ 00000001800291e0     _nodert_generated.obj
 0002:00001248       ??_C@_0BC@MGEFFHEK@WiFiNetworkReport?$AA@ 0000000180029248     _nodert_generated.obj
 0002:00001260       ??_C@_0BC@DGCDGEBF@availableNetworks?$AA@ 0000000180029260     _nodert_generated.obj
 0002:00001278       ??_C@_09OMDJNLDP@timestamp?$AA@ 0000000180029278     _nodert_generated.obj
 0002:00001288       ??_C@_0BF@IBCMDGMK@WiFiAvailableNetwork?$AA@ 0000000180029288     _nodert_generated.obj
 0002:000012a0       ??_C@_0P@PABEKGGH@beaconInterval?$AA@ 00000001800292a0     _nodert_generated.obj
 0002:000012b0       ??_C@_05IKGODLGM@bssid?$AA@ 00000001800292b0     _nodert_generated.obj
 0002:000012b8       ??_C@_0CC@IAFCABN@channelCenterFrequencyInKilohert@ 00000001800292b8     _nodert_generated.obj
 0002:000012e0       ??_C@_0N@CFPFGOCC@isWiFiDirect?$AA@ 00000001800292e0     _nodert_generated.obj
 0002:000012f0       ??_C@_0M@DFHACCNG@networkKind?$AA@ 00000001800292f0     _nodert_generated.obj
 0002:00001300       ??_C@_0BP@LMOKBKGC@networkRssiInDecibelMilliwatts?$AA@ 0000000180029300     _nodert_generated.obj
 0002:00001320       ??_C@_07IICMHGNF@phyKind?$AA@ 0000000180029320     _nodert_generated.obj
 0002:00001328       ??_C@_0BB@JEMCDPM@securitySettings?$AA@ 0000000180029328     _nodert_generated.obj
 0002:00001340       ??_C@_0L@IDBAIOIL@signalBars?$AA@ 0000000180029340     _nodert_generated.obj
 0002:0000134c       ??_C@_04LILCMDID@ssid?$AA@ 000000018002934c     _nodert_generated.obj
 0002:00001354       ??_C@_06MFBIOLNL@uptime?$AA@ 0000000180029354     _nodert_generated.obj
 0002:00001360       ??_C@_0BI@CGHNOIDC@NetworkSecuritySettings?$AA@ 0000000180029360     _nodert_generated.obj
 0002:00001378       ??_C@_0BF@EMBNJNFO@WiFiConnectionResult?$AA@ 0000000180029378     _nodert_generated.obj
 0002:00001390       ??_C@_0BB@LEMEBPIN@connectionStatus?$AA@ 0000000180029390     _nodert_generated.obj
 0002:000013a8       ??_C@_0BF@MNEDLPLB@Windows?4Devices?4WiFi?$AA@ 00000001800293a8     _nodert_generated.obj
 0002:000013c0       ??_C@_0BJ@CIOFOAKP@?4?4?2_nodert_generated?4cpp?$AA@ 00000001800293c0     _nodert_generated.obj
 0002:000013e0       ??_C@_07GGKKJCAC@binding?$AA@ 00000001800293e0     _nodert_generated.obj
 0002:000013f0       ??_C@_1HG@EMHIMOFK@?$AAC?$AAo?$AAn?$AAc?$AAu?$AAr?$AAr?$AAe?$AAn?$AAc?$AAy?$AA?4?$AAd?$AAe?$AAt?$AAa?$AAi?$AAl?$AAs?$AA?4?$AA_?$AAI?$AAA?$AAs?$AAy?$AAn?$AAc?$AAA?$AAc?$AAt?$AAi?$AAo@ 00000001800293f0     _nodert_generated.obj
 0002:00001470       ??_C@_1KC@HJPDOKGF@?$AAW?$AAi?$AAn?$AAd?$AAo?$AAw?$AAs?$AA?4?$AAF?$AAo?$AAu?$AAn?$AAd?$AAa?$AAt?$AAi?$AAo?$AAn?$AA?4?$AAT?$AAy?$AAp?$AAe?$AAd?$AAE?$AAv?$AAe?$AAn?$AAt?$AAH?$AAa?$AAn@ 0000000180029470     _nodert_generated.obj
 0002:00001520       ??_C@_1EC@LEKLGOAE@?$AAW?$AAi?$AAn?$AAd?$AAo?$AAw?$AAs?$AA?4?$AAD?$AAe?$AAv?$AAi?$AAc?$AAe?$AAs?$AA?4?$AAW?$AAi?$AAF?$AAi?$AA?4?$AAW?$AAi?$AAF?$AAi?$AAA?$AAd?$AAa?$AAp?$AAt?$AAe?$AAr@ 0000000180029520     _nodert_generated.obj
 0002:00001570       ??_C@_1EC@HNHEILEH@?$AAW?$AAi?$AAn?$AAd?$AAo?$AAw?$AAs?$AA?4?$AAF?$AAo?$AAu?$AAn?$AAd?$AAa?$AAt?$AAi?$AAo?$AAn?$AA?4?$AAP?$AAr?$AAo?$AAp?$AAe?$AAr?$AAt?$AAy?$AAV?$AAa?$AAl?$AAu?$AAe@ 0000000180029570     _nodert_generated.obj
 0002:000015c0       ??_C@_1FO@BJPPPDOI@?$AAW?$AAi?$AAn?$AAd?$AAo?$AAw?$AAs?$AA?4?$AAF?$AAo?$AAu?$AAn?$AAd?$AAa?$AAt?$AAi?$AAo?$AAn?$AA?4?$AAA?$AAs?$AAy?$AAn?$AAc?$AAA?$AAc?$AAt?$AAi?$AAo?$AAn?$AAC?$AAo@ 00000001800295c0     _nodert_generated.obj
 0002:00001620       ??_C@_1HG@EOHCBGNB@?$AAW?$AAi?$AAn?$AAd?$AAo?$AAw?$AAs?$AA?4?$AAF?$AAo?$AAu?$AAn?$AAd?$AAa?$AAt?$AAi?$AAo?$AAn?$AA?4?$AAA?$AAs?$AAy?$AAn?$AAc?$AAO?$AAp?$AAe?$AAr?$AAa?$AAt?$AAi?$AAo@ 0000000180029620     _nodert_generated.obj
 0002:00001698       ??_C@_0BN@MNEGDHPD@derived?5class?5must?5implement?$AA@ 0000000180029698     _nodert_generated.obj
 0002:000016b8       ??_C@_0CN@CFDLBABJ@Windows?3?3Foundation?3?3Collections@ 00000001800296b8     _nodert_generated.obj
 0002:000016e8       ??_C@_07JGIDINKK@getMany?$AA@ 00000001800296e8     _nodert_generated.obj
 0002:000016f0       ??_C@_05NEEIPFEN@getAt?$AA@ 00000001800296f0     _nodert_generated.obj
 0002:000016f8       ??_C@_07KKKNJHGA@indexOf?$AA@ 00000001800296f8     _nodert_generated.obj
 0002:00001700       ??_C@_05NIGAKFML@first?$AA@ 0000000180029700     _nodert_generated.obj
 0002:00001708       ??_C@_04IAGNFIBA@size?$AA@ 0000000180029708     _nodert_generated.obj
 0002:00001710       ??_C@_06IJDLPEM@length?$AA@ 0000000180029710     _nodert_generated.obj
 0002:00001718       ??_C@_1CO@CKJHFEP@?$AAM?$AAe?$AAt?$AAh?$AAo?$AAd?$AA?5?$AAi?$AAs?$AAn?$AA?8?$AAt?$AA?5?$AAs?$AAu?$AAp?$AAp?$AAo?$AAr?$AAt?$AAe?$AAd?$AA?$AA@ 0000000180029718     _nodert_generated.obj
 0002:00001748       ??_C@_07GOBOHMJA@boolean?$AA@ 0000000180029748     _nodert_generated.obj
 0002:00001750       ??_C@_05FKHKFDID@index?$AA@ 0000000180029750     _nodert_generated.obj
 0002:00001758       ??_C@_1CA@EIFFEMAD@?$AAN?$AAo?$AAt?$AA?5?$AAi?$AAm?$AAp?$AAl?$AAe?$AAm?$AAe?$AAn?$AAt?$AAe?$AAd?$AA?$AA@ 0000000180029758     _nodert_generated.obj
 0002:00001778       ??_C@_0BD@OLBABOEK@vector?$DMT?$DO?5too?5long?$AA@ 0000000180029778     _nodert_generated.obj
 0002:00001790       ??_C@_0CL@EPAAJAFM@Windows?3?3Foundation?3?3Collections@ 0000000180029790     _nodert_generated.obj
 0002:000017c0       ??_C@_08JABKCAEO@moveNext?$AA@ 00000001800297c0     _nodert_generated.obj
 0002:000017d0       ??_C@_07LKPDDKMO@current?$AA@ 00000001800297d0     _nodert_generated.obj
 0002:000017d8       ??_C@_0L@FADMNBDO@hasCurrent?$AA@ 00000001800297d8     _nodert_generated.obj
 0002:000017e8       ??_C@_1CE@LNAGEONJ@?$AA?$CB?$AAo?$AAb?$AAj?$AAe?$AAc?$AAt?$AA?4?$AAI?$AAs?$AAE?$AAm?$AAp?$AAt?$AAy?$AA?$CI?$AA?$CJ?$AA?$AA@ 00000001800297e8     _nodert_generated.obj
 0002:00001810       ??_C@_1LG@GAKJFNOM@?$AAW?$AAi?$AAn?$AAd?$AAo?$AAw?$AAs?$AA?4?$AAF?$AAo?$AAu?$AAn?$AAd?$AAa?$AAt?$AAi?$AAo?$AAn?$AA?4?$AAA?$AAs?$AAy?$AAn?$AAc?$AAO?$AAp?$AAe?$AAr?$AAa?$AAt?$AAi?$AAo@ 0000000180029810     _nodert_generated.obj
 0002:000018d0       ??_C@_1KM@IMJDKNB@?$AAW?$AAi?$AAn?$AAd?$AAo?$AAw?$AAs?$AA?4?$AAF?$AAo?$AAu?$AAn?$AAd?$AAa?$AAt?$AAi?$AAo?$AAn?$AA?4?$AAA?$AAs?$AAy?$AAn?$AAc?$AAO?$AAp?$AAe?$AAr?$AAa?$AAt?$AAi?$AAo@ 00000001800298d0     _nodert_generated.obj
 0002:00001980       ??_C@_1BAI@JBBHLHGG@?$AAW?$AAi?$AAn?$AAd?$AAo?$AAw?$AAs?$AA?4?$AAF?$AAo?$AAu?$AAn?$AAd?$AAa?$AAt?$AAi?$AAo?$AAn?$AA?4?$AAA?$AAs?$AAy?$AAn?$AAc?$AAO?$AAp?$AAe?$AAr?$AAa?$AAt?$AAi?$AAo@ 0000000180029980     _nodert_generated.obj
 0002:00001a90       ??_C@_1LO@HKLAIGIG@?$AAW?$AAi?$AAn?$AAd?$AAo?$AAw?$AAs?$AA?4?$AAF?$AAo?$AAu?$AAn?$AAd?$AAa?$AAt?$AAi?$AAo?$AAn?$AA?4?$AAA?$AAs?$AAy?$AAn?$AAc?$AAO?$AAp?$AAe?$AAr?$AAa?$AAt?$AAi?$AAo@ 0000000180029a90     _nodert_generated.obj
 0002:00001b50       __uuidof_?AV?$AsyncOperationCompletedHandler@PE$AAVWiFiAdapter@WiFi@Devices@Windows@@@Foundation@Windows@@ 0000000180029b50     _nodert_generated.obj
 0002:00001b60       __uuidof_?AV?$AsyncOperationCompletedHandler@PE$AAU?$IVectorView@PE$AAVWiFiAdapter@WiFi@Devices@Windows@@@Collections@Foundation@Windows@@@Foundation@Windows@@ 0000000180029b60     _nodert_generated.obj
 0002:00001b70       __uuidof_?AU__abi_IDelegate@?$TypedEventHandler@PE$AAVWiFiAdapter@WiFi@Devices@Windows@@PE$AAVObject@Platform@@@Foundation@Windows@@ 0000000180029b70     _nodert_generated.obj
 0002:00001b80       ?REGISTRATION_TOKEN_MAP_PROPERTY_NAME@@3PEBDEB 0000000180029b80     _nodert_generated.obj
 0002:00001b88       __uuidof_?AU?$IVectorView@PE$AAVWiFiAvailableNetwork@WiFi@Devices@Windows@@@Collections@Foundation@Windows@@ 0000000180029b88     _nodert_generated.obj
 0002:00001b98       __uuidof_?AVWiFiAvailableNetwork@WiFi@Devices@Windows@@ 0000000180029b98     _nodert_generated.obj
 0002:00001ba8       _GUID_94ea2b94_e9cc_49e0_c0ff_ee64ca8f5b90 0000000180029ba8     _nodert_generated.obj
 0002:00001ba8       __uuidof_?AUIAgileObject@Details@Platform@@ 0000000180029ba8     _nodert_generated.obj
 0002:00001bb8       __uuidof_?AU__I?$_AsyncInfoImpl@PE$AAUIAsyncAction@Foundation@Windows@@VAsyncActionCompletedHandler@23@EPublicNonVirtuals@details@Concurrency@@ 0000000180029bb8     _nodert_generated.obj
 0002:00001bc8       __uuidof_?AVWiFiConnectionResult@WiFi@Devices@Windows@@ 0000000180029bc8     _nodert_generated.obj
 0002:00001bd8       __uuidof_?AV?$AsyncOperationCompletedHandler@PE$AAVWiFiConnectionResult@WiFi@Devices@Windows@@@Foundation@Windows@@ 0000000180029bd8     _nodert_generated.obj
 0002:00001be8       __uuidof_?AUIWeakReferenceSource@Details@Platform@@ 0000000180029be8     _nodert_generated.obj
 0002:00001bf8       __uuidof_?AU?$IIterable@PE$AAVWiFiAvailableNetwork@WiFi@Devices@Windows@@@Collections@Foundation@Windows@@ 0000000180029bf8     _nodert_generated.obj
 0002:00001c08       __uuidof_?AV?$AsyncOperationCompletedHandler@E@Foundation@Windows@@ 0000000180029c08     _nodert_generated.obj
 0002:00001c18       _GUID_00000000_0000_0000_c000_000000000046 0000000180029c18     _nodert_generated.obj
 0002:00001c28       __uuidof_?AUIAsyncAction@Foundation@Windows@@ 0000000180029c28     _nodert_generated.obj
 0002:00001c38       _GUID_00000003_0000_0000_c000_000000000046 0000000180029c38     _nodert_generated.obj
 0002:00001c48       __uuidof_?AVPasswordCredential@Credentials@Security@Windows@@ 0000000180029c48     _nodert_generated.obj
 0002:00001c58       __uuidof_?AU?$IAsyncOperation@E@Foundation@Windows@@ 0000000180029c58     _nodert_generated.obj
 0002:00001c68       __uuidof_?AUIAsyncInfo@Foundation@Windows@@ 0000000180029c68     _nodert_generated.obj
 0002:00001c78       __uuidof_?AV?$AsyncOperationCompletedHandler@W4WiFiAccessStatus@WiFi@Devices@Windows@@@Foundation@Windows@@ 0000000180029c78     _nodert_generated.obj
 0002:00001c88       __uuidof_?AU?$IIterator@PE$AAVWiFiAvailableNetwork@WiFi@Devices@Windows@@@Collections@Foundation@Windows@@ 0000000180029c88     _nodert_generated.obj
 0002:00001c98       __uuidof_?AVWiFiNetworkReport@WiFi@Devices@Windows@@ 0000000180029c98     _nodert_generated.obj
 0002:00001ca8       __uuidof_?AU?$IIterable@PE$AAVWiFiAdapter@WiFi@Devices@Windows@@@Collections@Foundation@Windows@@ 0000000180029ca8     _nodert_generated.obj
 0002:00001cb8       _GUID_af86e2e0_b12d_4c6a_9c5a_d7aa65101e90 0000000180029cb8     _nodert_generated.obj
 0002:00001cc8       __uuidof_?AU?$IVectorView@PE$AAVWiFiAdapter@WiFi@Devices@Windows@@@Collections@Foundation@Windows@@ 0000000180029cc8     _nodert_generated.obj
 0002:00001cd8       __uuidof_?AVAsyncActionCompletedHandler@Foundation@Windows@@ 0000000180029cd8     _nodert_generated.obj
 0002:00001cd8       __uuidof_?AU__abi_IDelegate@AsyncActionCompletedHandler@Foundation@Windows@@ 0000000180029cd8     _nodert_generated.obj
 0002:00001ce8       __uuidof_?AU__abi_IDelegate@?$AsyncOperationCompletedHandler@PE$AAU?$IVectorView@PE$AAVWiFiAdapter@WiFi@Devices@Windows@@@Collections@Foundation@Windows@@@Foundation@Windows@@ 0000000180029ce8     _nodert_generated.obj
 0002:00001ce8       __uuidof_?AU__abi_IDelegate@?$AsyncOperationCompletedHandler@PE$AAVWiFiAdapter@WiFi@Devices@Windows@@@Foundation@Windows@@ 0000000180029ce8     _nodert_generated.obj
 0002:00001ce8       __uuidof_?AU__abi_IDelegate@?$AsyncOperationCompletedHandler@W4WiFiAccessStatus@WiFi@Devices@Windows@@@Foundation@Windows@@ 0000000180029ce8     _nodert_generated.obj
 0002:00001ce8       __uuidof_?AU__abi_IDelegate@?$AsyncOperationCompletedHandler@PE$AAVWiFiConnectionResult@WiFi@Devices@Windows@@@Foundation@Windows@@ 0000000180029ce8     _nodert_generated.obj
 0002:00001ce8       __uuidof_?AU__abi_IDelegate@?$AsyncOperationCompletedHandler@E@Foundation@Windows@@ 0000000180029ce8     _nodert_generated.obj
 0002:00001cf8       __uuidof_?AU?$IIterator@PE$AAVWiFiAdapter@WiFi@Devices@Windows@@@Collections@Foundation@Windows@@ 0000000180029cf8     _nodert_generated.obj
 0002:00001d08       __uuidof_?AV?$TypedEventHandler@PE$AAVWiFiAdapter@WiFi@Devices@Windows@@PE$AAVObject@Platform@@@Foundation@Windows@@ 0000000180029d08     _nodert_generated.obj
 0002:00001d18       __uuidof_?AVWiFiAdapter@WiFi@Devices@Windows@@ 0000000180029d18     _nodert_generated.obj
 0002:00001d28       __uuidof_?AU__I_IAsyncActionToAsyncOperationConverterPublicNonVirtuals@details@Concurrency@@ 0000000180029d28     _nodert_generated.obj
 0002:00001d38       __uuidof_?AV?$Box@_J@Platform@@ 0000000180029d38     _nodert_generated.obj
 0002:00001d38       __uuidof_?AU?$IBox@_J@Platform@@ 0000000180029d38     _nodert_generated.obj
 0002:00001d48       ??_C@_07KPENDMPA@HRESULT?$AA@ 0000000180029d48     NodeRtUtils.obj
 0002:00001d50       ??_C@_0BE@FOACCDKJ@__winRtNamespaces__?$AA@ 0000000180029d50     NodeRtUtils.obj
 0002:00001d70       ??_C@_1FG@NEAKPMBB@?$AAF?$AAa?$AAi?$AAl?$AAe?$AAd?$AA?5?$AAt?$AAo?$AA?5?$AAo?$AAb?$AAt?$AAa?$AAi?$AAn?$AA?5?$AAe?$AAx?$AAt?$AAe?$AAr?$AAn?$AAa?$AAl?$AA?5?$AAn?$AAa?$AAm?$AAe?$AAs?$AAp@ 0000000180029d70     NodeRtUtils.obj
 0002:00001dc8       ??_C@_0O@CPBGCLBG@OpaqueWrapper?$AA@ 0000000180029dc8     OpaqueWrapper.obj
 0002:00001dd8       ??_C@_08HCOMDCCD@iojs?4exe?$AA@ 0000000180029dd8     win_delay_load_hook.obj
 0002:00001de8       ??_C@_08JDDNMFDB@node?4exe?$AA@ 0000000180029de8     win_delay_load_hook.obj
 0002:00005f20       __real@40c3880000000000    000000018002df20     NodeRtUtils.obj
 0002:00005f28       __real@42a52e616cd00000    000000018002df28     NodeRtUtils.obj
 0002:00006148       _tls_used                  000000018002e148     MSVCRT:tlssup.obj
 0002:00006170       ??_R3ModuleBase@Details@WRL@Microsoft@@8 000000018002e170     vccorlib:init.obj
 0002:00006188       ??_R2ModuleBase@Details@WRL@Microsoft@@8 000000018002e188     vccorlib:init.obj
 0002:00006198       ??_R1A@?0A@EA@ModuleBase@Details@WRL@Microsoft@@8 000000018002e198     vccorlib:init.obj
 0002:000061c0       ??_R4InProcModule@Details@Platform@@6B?$Module@$04VInProcModule@Details@Platform@@@WRL@Microsoft@@@ 000000018002e1c0     vccorlib:init.obj
 0002:000061e8       ??_R3InProcModule@Details@Platform@@8 000000018002e1e8     vccorlib:init.obj
 0002:00006200       ??_R2InProcModule@Details@Platform@@8 000000018002e200     vccorlib:init.obj
 0002:00006230       ??_R1A@?0A@EA@InProcModule@Details@Platform@@8 000000018002e230     vccorlib:init.obj
 0002:00006258       ??_R1A@?0A@EA@?$Module@$04VInProcModule@Details@Platform@@@WRL@Microsoft@@8 000000018002e258     vccorlib:init.obj
 0002:00006280       ??_R3?$Module@$04VInProcModule@Details@Platform@@@WRL@Microsoft@@8 000000018002e280     vccorlib:init.obj
 0002:00006298       ??_R2?$Module@$04VInProcModule@Details@Platform@@@WRL@Microsoft@@8 000000018002e298     vccorlib:init.obj
 0002:000062b8       ??_R1A@?0A@EA@?$Module@$00VInProcModule@Details@Platform@@@WRL@Microsoft@@8 000000018002e2b8     vccorlib:init.obj
 0002:000062e0       ??_R3?$Module@$00VInProcModule@Details@Platform@@@WRL@Microsoft@@8 000000018002e2e0     vccorlib:init.obj
 0002:000062f8       ??_R2?$Module@$00VInProcModule@Details@Platform@@@WRL@Microsoft@@8 000000018002e2f8     vccorlib:init.obj
 0002:00006310       ??_R17?0A@EA@__abi_Module@@8 000000018002e310     vccorlib:init.obj
 0002:00006338       ??_R3__abi_Module@@8       000000018002e338     vccorlib:init.obj
 0002:00006350       ??_R2__abi_Module@@8       000000018002e350     vccorlib:init.obj
 0002:00006360       ??_R1A@?0A@EA@__abi_Module@@8 000000018002e360     vccorlib:init.obj
 0002:00006388       ??_R4InProcModule@Details@Platform@@6B__abi_Module@@@ 000000018002e388     vccorlib:init.obj
 0002:000063b0       ??_R4?$Module@$00VInProcModule@Details@Platform@@@WRL@Microsoft@@6B@ 000000018002e3b0     vccorlib:init.obj
 0002:000063d8       ??_R4type_info@@6B@        000000018002e3d8     MSVCRT:std_type_info_static.obj
 0002:00006400       ??_R3type_info@@8          000000018002e400     MSVCRT:std_type_info_static.obj
 0002:00006418       ??_R2type_info@@8          000000018002e418     MSVCRT:std_type_info_static.obj
 0002:00006428       ??_R1A@?0A@EA@type_info@@8 000000018002e428     MSVCRT:std_type_info_static.obj
 0002:00006450       ??_R4exception@std@@6B@    000000018002e450     MSVCRT:throw_bad_alloc.obj
 0002:00006478       ??_R3exception@std@@8      000000018002e478     MSVCRT:throw_bad_alloc.obj
 0002:00006490       ??_R2exception@std@@8      000000018002e490     MSVCRT:throw_bad_alloc.obj
 0002:000064a0       ??_R1A@?0A@EA@exception@std@@8 000000018002e4a0     MSVCRT:throw_bad_alloc.obj
 0002:000064c8       ??_R4bad_alloc@std@@6B@    000000018002e4c8     MSVCRT:throw_bad_alloc.obj
 0002:000064f0       ??_R3bad_alloc@std@@8      000000018002e4f0     MSVCRT:throw_bad_alloc.obj
 0002:00006508       ??_R2bad_alloc@std@@8      000000018002e508     MSVCRT:throw_bad_alloc.obj
 0002:00006520       ??_R1A@?0A@EA@bad_alloc@std@@8 000000018002e520     MSVCRT:throw_bad_alloc.obj
 0002:00006548       ??_R4bad_array_new_length@std@@6B@ 000000018002e548     MSVCRT:throw_bad_alloc.obj
 0002:00006570       ??_R3bad_array_new_length@std@@8 000000018002e570     MSVCRT:throw_bad_alloc.obj
 0002:00006588       ??_R2bad_array_new_length@std@@8 000000018002e588     MSVCRT:throw_bad_alloc.obj
 0002:000065a8       ??_R1A@?0A@EA@bad_array_new_length@std@@8 000000018002e5a8     MSVCRT:throw_bad_alloc.obj
 0002:00006a80       __rtc_iaa                  000000018002ea80     MSVCRT:_initsect_.obj
 0002:00006a88       __rtc_izz                  000000018002ea88     MSVCRT:_initsect_.obj
 0002:00006a90       __rtc_taa                  000000018002ea90     MSVCRT:_initsect_.obj
 0002:00006a98       __rtc_tzz                  000000018002ea98     MSVCRT:_initsect_.obj
 0002:00011040       _TI2?AVbad_alloc@std@@     0000000180039040     MSVCRT:throw_bad_alloc.obj
 0002:00011060       _CTA2?AVbad_alloc@std@@    0000000180039060     MSVCRT:throw_bad_alloc.obj
 0002:00011078       _CT??_R0?AVbad_alloc@std@@@8??0bad_alloc@std@@QEAA@AEBV01@@Z24 0000000180039078     MSVCRT:throw_bad_alloc.obj
 0002:000110a0       _CT??_R0?AVexception@std@@@8??0exception@std@@QEAA@AEBV01@@Z24 00000001800390a0     MSVCRT:throw_bad_alloc.obj
 0002:000110c8       _TI3?AVbad_array_new_length@std@@ 00000001800390c8     MSVCRT:throw_bad_alloc.obj
 0002:000110e8       _CTA3?AVbad_array_new_length@std@@ 00000001800390e8     MSVCRT:throw_bad_alloc.obj
 0002:00011108       _CT??_R0?AVbad_array_new_length@std@@@8??0bad_array_new_length@std@@QEAA@AEBV01@@Z24 0000000180039108     MSVCRT:throw_bad_alloc.obj
 0002:00011130       _TI9PE$AAVException@Platform@@ 0000000180039130     _nodert_generated.obj
 0002:00011150       _CT??_R0PE$AAUIEquatable@Details@Platform@@@8816 0000000180039150     _nodert_generated.obj
 0002:00011180       _CTA9PE$AAVException@Platform@@ 0000000180039180     _nodert_generated.obj
 0002:000111d0       _CTA11PE$AAVNullReferenceException@Platform@@ 00000001800391d0     _nodert_generated.obj
 0002:00011230       _CT??_R0PE$AAVObject@Platform@@@888 0000000180039230     _nodert_generated.obj
 0002:00011258       _TI11PE$AAVNullReferenceException@Platform@@ 0000000180039258     _nodert_generated.obj
 0002:00011278       _CT??_R0PE$AAVException@Platform@@@88 0000000180039278     _nodert_generated.obj
 0002:000112a0       _TI2?AVruntime_error@std@@ 00000001800392a0     _nodert_generated.obj
 0002:000112c0       _CT??_R0PE$AAUIPrintable@Details@Platform@@@888 00000001800392c0     _nodert_generated.obj
 0002:000112e8       _CT??_R0PE$AAVObject@Platform@@@8816 00000001800392e8     _nodert_generated.obj
 0002:00011310       _CT??_R0PE$AAVNullReferenceException@Platform@@@88 0000000180039310     _nodert_generated.obj
 0002:00011338       _CT??_R0PE$AAVObject@Platform@@@88 0000000180039338     _nodert_generated.obj
 0002:00011360       _CT??_R0PE$AAUIDisposable@Platform@@@8824 0000000180039360     _nodert_generated.obj
 0002:00011388       _CT??_R0PE$AAVCOMException@Platform@@@88 0000000180039388     _nodert_generated.obj
 0002:000113b0       _CTA2?AVruntime_error@std@@ 00000001800393b0     _nodert_generated.obj
 0002:000113c8       _CT??_R0PEAX@88            00000001800393c8     _nodert_generated.obj
 0002:000113f0       _CT??_R0?AVexception@stdext@@@816 00000001800393f0     _nodert_generated.obj
 0002:00011418       _CT??_R0?AVruntime_error@std@@@816 0000000180039418     _nodert_generated.obj
 0002:00011440       _CT??_R0PE$AAVObject@Platform@@@8824 0000000180039440     _nodert_generated.obj
 0002:00011464       __DELAY_IMPORT_DESCRIPTOR_node_exe 0000000180039464     node:node.exe
 0002:00011484       __NULL_DELAY_IMPORT_DESCRIPTOR 0000000180039484     node:node.exe
 0002:00011720       \177node_NULL_THUNK_DATA_DLN 0000000180039720     node:node.exe
 0002:00012c68       \177node_NULL_THUNK_DATA_DLB 000000018003ac68     node:node.exe
 0002:00012f34       __IMPORT_DESCRIPTOR_KERNEL32 000000018003af34     kernel32:KERNEL32.dll
 0002:00012f48       __IMPORT_DESCRIPTOR_ole32  000000018003af48     ole32:ole32.dll
 0002:00012f5c       __IMPORT_DESCRIPTOR_vccorlib140 000000018003af5c     vccorlib:vccorlib140.DLL
 0002:00012f70       __IMPORT_DESCRIPTOR_MSVCP140 000000018003af70     msvcprt:MSVCP140.dll
 0002:00012f84       __IMPORT_DESCRIPTOR_VCRUNTIME140 000000018003af84     vcruntime:VCRUNTIME140.dll
 0002:00012f98       __IMPORT_DESCRIPTOR_api-ms-win-crt-runtime-l1-1-0 000000018003af98     ucrt:api-ms-win-crt-runtime-l1-1-0.dll
 0002:00012fac       __IMPORT_DESCRIPTOR_api-ms-win-crt-string-l1-1-0 000000018003afac     ucrt:api-ms-win-crt-string-l1-1-0.dll
 0002:00012fc0       __IMPORT_DESCRIPTOR_api-ms-win-crt-heap-l1-1-0 000000018003afc0     ucrt:api-ms-win-crt-heap-l1-1-0.dll
 0002:00012fd4       __IMPORT_DESCRIPTOR_api-ms-win-core-winrt-string-l1-1-0 000000018003afd4     runtimeobject:api-ms-win-core-winrt-string-l1-1-0.dll
 0002:00012fe8       __NULL_IMPORT_DESCRIPTOR   000000018003afe8     kernel32:KERNEL32.dll
 0003:00000008       ??_7?$Module@$00VInProcModule@Details@Platform@@@WRL@Microsoft@@6B@ 000000018003d008     vccorlib:init.obj
 0003:00000070       ??_7InProcModule@Details@Platform@@6B?$Module@$04VInProcModule@Details@Platform@@@WRL@Microsoft@@@ 000000018003d070     vccorlib:init.obj
 0003:000000d8       ??_7InProcModule@Details@Platform@@6B__abi_Module@@@ 000000018003d0d8     vccorlib:init.obj
 0003:000000f0       _Init_global_epoch         000000018003d0f0     MSVCRT:thread_safe_statics.obj
 0003:000000f4       __scrt_native_dllmain_reason 000000018003d0f4     MSVCRT:utility.obj
 0003:000000f8       __security_cookie          000000018003d0f8     MSVCRT:gs_cookie.obj
 0003:00000100       __security_cookie_complement 000000018003d100     MSVCRT:gs_cookie.obj
 0003:00000108       __isa_available            000000018003d108     MSVCRT:_cpu_disp_.obj
 0003:0000010c       __isa_enabled              000000018003d10c     MSVCRT:_cpu_disp_.obj
 0003:00000110       __memcpy_nt_iters          000000018003d110     MSVCRT:_cpu_disp_.obj
 0003:00000120       __scrt_ucrt_dll_is_in_use  000000018003d120     MSVCRT:ucrt_stubs.obj
 0003:00000128       ??_7?$_ContinuationTaskHandle@PE$AAU?$IVectorView@PE$AAVWiFiAdapter@WiFi@Devices@Windows@@@Collections@Foundation@Windows@@XV?$function@$$A6AXV?$task@PE$AAU?$IVectorView@PE$AAVWiFiAdapter@WiFi@Devices@Windows@@@Collections@Foundation@Windows@@@Concurrency@@@Z@std@@U?$integral_constant@_N$00@6@U_TypeSelectorNoAsync@details@Concurrency@@@?$task@PE$AAU?$IVectorView@PE$AAVWiFiAdapter@WiFi@Devices@Windows@@@Collections@Foundation@Windows@@@Concurrency@@6B@ 000000018003d128     _nodert_generated.obj
 0003:00000140       ??_7_IAsyncActionToAsyncOperationConverter@details@Concurrency@@6B__abi_IUnknown@@@ 000000018003d140     _nodert_generated.obj
 0003:00000168       ??_7?$AsyncOperationCompletedHandler@E@Foundation@Windows@@6B@ 000000018003d168     _nodert_generated.obj
 0003:00000198       ??_7?$_Task_impl@PE$AAVWiFiConnectionResult@WiFi@Devices@Windows@@@details@Concurrency@@6B@ 000000018003d198     _nodert_generated.obj
 0003:000001a8       ??_7AsyncActionCompletedHandler@Foundation@Windows@@6B__abi_IUnknown@@@ 000000018003d1a8     _nodert_generated.obj
 0003:000001d0       ??_7?$AsyncOperationCompletedHandler@E@Foundation@Windows@@6BObject@Platform@@@ 000000018003d1d0     _nodert_generated.obj
 0003:00000200       ??_7?$AsyncOperationCompletedHandler@PE$AAVWiFiAdapter@WiFi@Devices@Windows@@@Foundation@Windows@@6BObject@Platform@@@ 000000018003d200     _nodert_generated.obj
 0003:00000230       ??_7?$_Func_impl@V<lambda_575df78f75be6e56c3c6d6f2c13351d7>@@V?$allocator@H@std@@XV?$function@$$A6AXHPEAV?$Local@VValue@v8@@@v8@@@Z@3@@std@@6B@ 000000018003d230     _nodert_generated.obj
 0003:00000260       ??_7?$_AsyncInfoImpl@PE$AAUIAsyncAction@Foundation@Windows@@VAsyncActionCompletedHandler@23@E@details@Concurrency@@6BObject@Platform@@?$IAsyncOperation@E@Foundation@Windows@@@ 000000018003d260     _nodert_generated.obj
 0003:000002c0       ??_7?$TypedEventHandler@PE$AAVWiFiAdapter@WiFi@Devices@Windows@@PE$AAVObject@Platform@@@Foundation@Windows@@6B@ 000000018003d2c0     _nodert_generated.obj
 0003:000002f0       ??_7?$_Func_impl@V<lambda_2ebdab9cc8d71a78c6d6e5d0333b6c35>@@V?$allocator@H@std@@EV?$task@PE$AAVWiFiConnectionResult@WiFi@Devices@Windows@@@Concurrency@@@std@@6B@ 000000018003d2f0     _nodert_generated.obj
 0003:00000320       ??_7?$_Func_impl@V<lambda_68efb09af3b7db31efab1776bdb9e493>@@V?$allocator@H@std@@X$$V@std@@6B@ 000000018003d320     _nodert_generated.obj
 0003:00000350       ??_7_DefaultPPLTaskScheduler@details@Concurrency@@6B@ 000000018003d350     _nodert_generated.obj
 0003:00000358       ??_7?$_Func_impl@V<lambda_e04973e34d302f1e2fca91b511fcd8c7>@@V?$allocator@H@std@@XV?$function@$$A6AXHPEAV?$Local@VValue@v8@@@v8@@@Z@3@@std@@6B@ 000000018003d358     _nodert_generated.obj
 0003:00000388       ??_7TokenData@Async@NodeUtils@@6B@ 000000018003d388     _nodert_generated.obj
 0003:00000390       ??_7?$TypedEventHandler@PE$AAVWiFiAdapter@WiFi@Devices@Windows@@PE$AAVObject@Platform@@@Foundation@Windows@@6B__abi_IUnknown@@@ 000000018003d390     _nodert_generated.obj
 0003:000003b8       ??_7?$AsyncOperationCompletedHandler@PE$AAU?$IVectorView@PE$AAVWiFiAdapter@WiFi@Devices@Windows@@@Collections@Foundation@Windows@@@Foundation@Windows@@6BObject@Platform@@@ 000000018003d3b8     _nodert_generated.obj
 0003:000003e8       ??_7?$_Func_impl@V<lambda_20051975644501ca4905d094cad7ca9a>@@V?$allocator@H@std@@X$$V@std@@6B@ 000000018003d3e8     _nodert_generated.obj
 0003:00000418       ??_7?$AsyncOperationCompletedHandler@W4WiFiAccessStatus@WiFi@Devices@Windows@@@Foundation@Windows@@6BObject@Platform@@@ 000000018003d418     _nodert_generated.obj
 0003:00000448       ??_7?$_Task_impl@PE$AAU?$IVectorView@PE$AAVWiFiAdapter@WiFi@Devices@Windows@@@Collections@Foundation@Windows@@@details@Concurrency@@6B@ 000000018003d448     _nodert_generated.obj
 0003:00000458       ??_7?$_PPLTaskHandle@EU?$_ContinuationTaskHandle@PE$AAU?$IVectorView@PE$AAVWiFiAdapter@WiFi@Devices@Windows@@@Collections@Foundation@Windows@@XV?$function@$$A6AXV?$task@PE$AAU?$IVectorView@PE$AAVWiFiAdapter@WiFi@Devices@Windows@@@Collections@Foundation@Windows@@@Concurrency@@@Z@std@@U?$integral_constant@_N$00@6@U_TypeSelectorNoAsync@details@Concurrency@@@?$task@PE$AAU?$IVectorView@PE$AAVWiFiAdapter@WiFi@Devices@Windows@@@Collections@Foundation@Windows@@@Concurrency@@U_ContinuationTaskHandleBase@details@3@@details@Concurrency@@6B@ 000000018003d458     _nodert_generated.obj
 0003:00000470       ??_7?$AsyncOperationCompletedHandler@PE$AAVWiFiConnectionResult@WiFi@Devices@Windows@@@Foundation@Windows@@6B@ 000000018003d470     _nodert_generated.obj
 0003:000004a0       ??_7?$__abi_FunctorCapture@V<lambda_cc9b10b2bfbca148cbf6cbf67ef94e36>@@XPE$AAU?$IAsyncOperation@PE$AAVWiFiAdapter@WiFi@Devices@Windows@@@Foundation@Windows@@W4AsyncStatus@34@@Details@Platform@@6B@ 000000018003d4a0     _nodert_generated.obj
 0003:000004b0       ??_7?$_Func_impl@V<lambda_d0049738c561b5c93f538d8743334b3b>@@V?$allocator@H@std@@V?$Local@VValue@v8@@@v8@@PE$AAVWiFiAvailableNetwork@WiFi@Devices@Windows@@@std@@6B@ 000000018003d4b0     _nodert_generated.obj
 0003:000004e0       ??_7_CancellationTokenRegistration@details@Concurrency@@6B@ 000000018003d4e0     _nodert_generated.obj
 0003:000004f8       ??_7?$_Func_impl@V<lambda_45bc1edc407ccfe1fa050aed513212a8>@@V?$allocator@H@std@@XV?$task@PE$AAU?$IVectorView@PE$AAVWiFiAdapter@WiFi@Devices@Windows@@@Collections@Foundation@Windows@@@Concurrency@@@std@@6B@ 000000018003d4f8     _nodert_generated.obj
 0003:00000528       ??_7?$_Func_impl@V<lambda_d61d618acd042cb6be448c47bd6dda04>@@V?$allocator@H@std@@XV?$function@$$A6AXHPEAV?$Local@VValue@v8@@@v8@@@Z@3@@std@@6B@ 000000018003d528     _nodert_generated.obj
 0003:00000558       ??_7?$_Func_impl@V<lambda_e03a7ec937e836cf062062cbea779d3e>@@V?$allocator@H@std@@XV?$task@PE$AAVWiFiAdapter@WiFi@Devices@Windows@@@Concurrency@@@std@@6B@ 000000018003d558     _nodert_generated.obj
 0003:00000588       ??_7?$_Func_impl@V<lambda_394de31cb1e2557ca7df73bc20a87e56>@@V?$allocator@H@std@@_NV?$Local@VValue@v8@@@v8@@@std@@6B@ 000000018003d588     _nodert_generated.obj
 0003:000005b8       ??_7?$_Ref_count_obj@U?$_Task_impl@PE$AAU?$IVectorView@PE$AAVWiFiAdapter@WiFi@Devices@Windows@@@Collections@Foundation@Windows@@@details@Concurrency@@@std@@6B@ 000000018003d5b8     _nodert_generated.obj
 0003:000005d8       ??_7?$_Ref_count_obj@U_ExceptionHolder@details@Concurrency@@@std@@6B@ 000000018003d5d8     _nodert_generated.obj
 0003:000005f8       ??_7_RefCounter@details@Concurrency@@6B@ 000000018003d5f8     _nodert_generated.obj
 0003:00000608       ??_7?$_PPLTaskHandle@EU?$_ContinuationTaskHandle@PE$AAVWiFiConnectionResult@WiFi@Devices@Windows@@XV?$function@$$A6AXV?$task@PE$AAVWiFiConnectionResult@WiFi@Devices@Windows@@@Concurrency@@@Z@std@@U?$integral_constant@_N$00@6@U_TypeSelectorNoAsync@details@Concurrency@@@?$task@PE$AAVWiFiConnectionResult@WiFi@Devices@Windows@@@Concurrency@@U_ContinuationTaskHandleBase@details@3@@details@Concurrency@@6B@ 000000018003d608     _nodert_generated.obj
 0003:00000620       ??_7?$_Func_impl@V<lambda_196da8969df2293b3f20f1c35ff63462>@@V?$allocator@H@std@@XV?$task@X@Concurrency@@@std@@6B@ 000000018003d620     _nodert_generated.obj
 0003:00000650       ??_7_IAsyncActionToAsyncOperationConverter@details@Concurrency@@6B@ 000000018003d650     _nodert_generated.obj
 0003:00000680       ??_7?$_ContinuationTaskHandle@PE$AAVWiFiAdapter@WiFi@Devices@Windows@@XV?$function@$$A6AXV?$task@PE$AAVWiFiAdapter@WiFi@Devices@Windows@@@Concurrency@@@Z@std@@U?$integral_constant@_N$00@6@U_TypeSelectorNoAsync@details@Concurrency@@@?$task@PE$AAVWiFiAdapter@WiFi@Devices@Windows@@@Concurrency@@6B@ 000000018003d680     _nodert_generated.obj
 0003:00000698       ??_7?$_Func_impl@V<lambda_763529b0c7473cbc215a52d189ac9b18>@@V?$allocator@H@std@@X$$V@std@@6B@ 000000018003d698     _nodert_generated.obj
 0003:000006c8       ??_7?$VectorViewWrapper@PE$AAVWiFiAvailableNetwork@WiFi@Devices@Windows@@@Collections@NodeRT@@6B@ 000000018003d6c8     _nodert_generated.obj
 0003:000006e8       ??_7?$_Task_impl@PE$AAVWiFiAdapter@WiFi@Devices@Windows@@@details@Concurrency@@6B@ 000000018003d6e8     _nodert_generated.obj
 0003:000006f8       ??_7?$_Func_impl@V<lambda_2de1eaeeb1391f2030b03d1ef75d3eb0>@@V?$allocator@H@std@@X$$V@std@@6B@ 000000018003d6f8     _nodert_generated.obj
 0003:00000728       ??_7?$_Func_impl@V<lambda_43dba3b136f953be73dc2826e9f03afb>@@V?$allocator@H@std@@X$$V@std@@6B@ 000000018003d728     _nodert_generated.obj
 0003:00000758       ??_7?$_Func_impl@V<lambda_dbe8bba2fdc06b28517f8829416a6436>@@V?$allocator@H@std@@XV?$task@PE$AAVWiFiConnectionResult@WiFi@Devices@Windows@@@Concurrency@@@std@@6B@ 000000018003d758     _nodert_generated.obj
 0003:00000788       ??_7?$_Func_impl@V<lambda_1af583cf6945007177c61d87505abd8e>@@V?$allocator@H@std@@XHPEAV?$Local@VValue@v8@@@v8@@@std@@6B@ 000000018003d788     _nodert_generated.obj
 0003:000007b8       ??_7?$_Func_base@EV?$task@PE$AAU?$IVectorView@PE$AAVWiFiAdapter@WiFi@Devices@Windows@@@Collections@Foundation@Windows@@@Concurrency@@@std@@6B@ 000000018003d7b8     _nodert_generated.obj
 0003:000007e8       ??_7?$__abi_FunctorCapture@V<lambda_af8508c7722addee579d0ffcec46034b>@@XPE$AAUIAsyncAction@Foundation@Windows@@W4AsyncStatus@34@@Details@Platform@@6B@ 000000018003d7e8     _nodert_generated.obj
 0003:000007f8       ??_7?$IteratorWrapper@PE$AAVWiFiAvailableNetwork@WiFi@Devices@Windows@@@Collections@NodeRT@@6B@ 000000018003d7f8     _nodert_generated.obj
 0003:00000818       ??_7?$_Task_impl@W4WiFiAccessStatus@WiFi@Devices@Windows@@@details@Concurrency@@6B@ 000000018003d818     _nodert_generated.obj
 0003:00000828       ??_7?$_Func_base@PE$AAVWiFiAdapter@WiFi@Devices@Windows@@V?$Local@VValue@v8@@@v8@@@std@@6B@ 000000018003d828     _nodert_generated.obj
 0003:00000858       ??_7?$_Func_base@XV?$task@X@Concurrency@@@std@@6B@ 000000018003d858     _nodert_generated.obj
 0003:00000888       ??_7?$_Func_base@_NV?$Local@VValue@v8@@@v8@@@std@@6B@ 000000018003d888     _nodert_generated.obj
 0003:000008b8       ??_7?$_Func_impl@V<lambda_fcddfbb588d6d178324b6e9cbb1f8253>@@V?$allocator@H@std@@X$$V@std@@6B@ 000000018003d8b8     _nodert_generated.obj
 0003:000008e8       ??_7?$_Func_base@EV?$task@X@Concurrency@@@std@@6B@ 000000018003d8e8     _nodert_generated.obj
 0003:00000918       ??_7?$AsyncOperationCompletedHandler@PE$AAVWiFiConnectionResult@WiFi@Devices@Windows@@@Foundation@Windows@@6B__abi_IUnknown@@@ 000000018003d918     _nodert_generated.obj
 0003:00000940       ??_7WiFiConnectionResult@WiFi@Devices@Windows@NodeRT@@6B@ 000000018003d940     _nodert_generated.obj
 0003:00000960       ??_7?$_Func_impl@V<lambda_334307b97ee5f2466f8dfc680b54dc48>@@V?$allocator@H@std@@X$$V@std@@6B@ 000000018003d960     _nodert_generated.obj
 0003:00000990       ??_7WiFiNetworkReport@WiFi@Devices@Windows@NodeRT@@6B@ 000000018003d990     _nodert_generated.obj
 0003:000009b0       ??_7?$_Func_impl@V<lambda_bae4d4148c38c83d04c701f5e686a80e>@@V?$allocator@H@std@@XV?$function@$$A6AXHPEAV?$Local@VValue@v8@@@v8@@@Z@3@@std@@6B@ 000000018003d9b0     _nodert_generated.obj
 0003:000009e0       ??_7?$_Func_impl@V<lambda_4710f5c52dcf42bd02a362ab04da0053>@@V?$allocator@H@std@@XV?$function@$$A6AXHPEAV?$Local@VValue@v8@@@v8@@@Z@3@@std@@6B@ 000000018003d9e0     _nodert_generated.obj
 0003:00000a10       ??_7?$_Func_impl@V<lambda_bc0731c9a3566f45332d953ae2092d1f>@@V?$allocator@H@std@@XV?$function@$$A6AXHPEAV?$Local@VValue@v8@@@v8@@@Z@3@@std@@6B@ 000000018003da10     _nodert_generated.obj
 0003:00000a40       ??_7?$_Func_impl@V<lambda_fabbb294be36e42af330e23943182f39>@@V?$allocator@H@std@@EV?$task@W4WiFiAccessStatus@WiFi@Devices@Windows@@@Concurrency@@@std@@6B@ 000000018003da40     _nodert_generated.obj
 0003:00000a70       ??_7?$_Ref_count_obj@U?$_Task_impl@PE$AAVWiFiConnectionResult@WiFi@Devices@Windows@@@details@Concurrency@@@std@@6B@ 000000018003da70     _nodert_generated.obj
 0003:00000a90       ??_7_IAsyncActionToAsyncOperationConverter@details@Concurrency@@6BIAsyncInfo@Foundation@Windows@@@ 000000018003da90     _nodert_generated.obj
 0003:00000b10       ??_7WiFiAdapter@WiFi@Devices@Windows@NodeRT@@6B@ 000000018003db10     _nodert_generated.obj
 0003:00000b30       ??_7WiFiAvailableNetwork@WiFi@Devices@Windows@NodeRT@@6B@ 000000018003db30     _nodert_generated.obj
 0003:00000b50       ??_7?$_Func_base@X$$V@std@@6B@ 000000018003db50     _nodert_generated.obj
 0003:00000b80       ??_7_Ref_count_base@std@@6B@ 000000018003db80     _nodert_generated.obj
 0003:00000ba0       ??_7?$_Func_impl@V<lambda_be4c867425d6e703fe2514969f90995f>@@V?$allocator@H@std@@XV?$function@$$A6AXHPEAV?$Local@VValue@v8@@@v8@@@Z@3@@std@@6B@ 000000018003dba0     _nodert_generated.obj
 0003:00000bd0       ??_7?$_ContinuationTaskHandle@W4WiFiAccessStatus@WiFi@Devices@Windows@@XV?$function@$$A6AXV?$task@W4WiFiAccessStatus@WiFi@Devices@Windows@@@Concurrency@@@Z@std@@U?$integral_constant@_N$00@6@U_TypeSelectorNoAsync@details@Concurrency@@@?$task@W4WiFiAccessStatus@WiFi@Devices@Windows@@@Concurrency@@6B@ 000000018003dbd0     _nodert_generated.obj
 0003:00000be8       ??_7?$_Ref_count_obj@U?$_Task_impl@W4WiFiAccessStatus@WiFi@Devices@Windows@@@details@Concurrency@@@std@@6B@ 000000018003dbe8     _nodert_generated.obj
 0003:00000c08       ??_7?$AsyncOperationCompletedHandler@PE$AAVWiFiAdapter@WiFi@Devices@Windows@@@Foundation@Windows@@6B@ 000000018003dc08     _nodert_generated.obj
 0003:00000c38       ??_7exception@stdext@@6B@  000000018003dc38     _nodert_generated.obj
 0003:00000c50       ??_7?$__abi_FunctorCapture@V<lambda_585ed612c2d693254ec4a52eb6b5009a>@@XPE$AAU?$IAsyncOperation@PE$AAU?$IVectorView@PE$AAVWiFiAdapter@WiFi@Devices@Windows@@@Collections@Foundation@Windows@@@Foundation@Windows@@W4AsyncStatus@34@@Details@Platform@@6B@ 000000018003dc50     _nodert_generated.obj
 0003:00000c60       ??_7__abi_CaptureBase@Details@Platform@@6B@ 000000018003dc60     _nodert_generated.obj
 0003:00000c68       ??_7?$_Func_impl@V<lambda_d3aafd0b57b73d2f9a296ee38aa3e67b>@@V?$allocator@H@std@@X$$V@std@@6B@ 000000018003dc68     _nodert_generated.obj
 0003:00000c98       ??_7?$_AsyncInfoImpl@PE$AAUIAsyncAction@Foundation@Windows@@VAsyncActionCompletedHandler@23@E@details@Concurrency@@6BObject@Platform@@@ 000000018003dc98     _nodert_generated.obj
 0003:00000cc8       ??_7?$_Func_base@XV?$task@PE$AAVWiFiAdapter@WiFi@Devices@Windows@@@Concurrency@@@std@@6B@ 000000018003dcc8     _nodert_generated.obj
 0003:00000cf8       ??_7?$_Ref_count_obj@U?$_Task_impl@PE$AAVWiFiAdapter@WiFi@Devices@Windows@@@details@Concurrency@@@std@@6B@ 000000018003dcf8     _nodert_generated.obj
 0003:00000d18       ??_7?$IteratorWrapper@PE$AAVWiFiAdapter@WiFi@Devices@Windows@@@Collections@NodeRT@@6B@ 000000018003dd18     _nodert_generated.obj
 0003:00000d38       ??_7?$__abi_FunctorCapture@V<lambda_db80035d952e9a216ce91aaae9489895>@@XPE$AAU?$IAsyncOperation@E@Foundation@Windows@@W4AsyncStatus@34@@Details@Platform@@6B@ 000000018003dd38     _nodert_generated.obj
 0003:00000d48       ??_7?$AsyncOperationCompletedHandler@PE$AAVWiFiConnectionResult@WiFi@Devices@Windows@@@Foundation@Windows@@6BObject@Platform@@@ 000000018003dd48     _nodert_generated.obj
 0003:00000d78       ??_7?$_Func_base@V?$Local@VValue@v8@@@v8@@PE$AAVWiFiAvailableNetwork@WiFi@Devices@Windows@@@std@@6B@ 000000018003dd78     _nodert_generated.obj
 0003:00000df0       __pfnDliNotifyHook2        000000018003ddf0     win_delay_load_hook.obj
 0003:00000df8       ??_7AsyncActionCompletedHandler@Foundation@Windows@@6B@ 000000018003ddf8     _nodert_generated.obj
 0003:00000e28       ??_7?$_Func_base@EV?$task@PE$AAVWiFiAdapter@WiFi@Devices@Windows@@@Concurrency@@@std@@6B@ 000000018003de28     _nodert_generated.obj
 0003:00000e58       ??_7?$_Func_impl@V<lambda_73d913ce43e6748b5d247a86ca0a72e7>@@V?$allocator@H@std@@X$$V@std@@6B@ 000000018003de58     _nodert_generated.obj
 0003:00000e88       ??_7?$_Func_impl@V<lambda_2ace49f5b77b91174c8cbc8b4e46373d>@@V?$allocator@H@std@@X$$V@std@@6B@ 000000018003de88     _nodert_generated.obj
 0003:00000eb8       ??_7?$_Func_impl@V<lambda_e0f5f8496c987d2738a350a69618b6a8>@@V?$allocator@H@std@@PE$AAVWiFiAvailableNetwork@WiFi@Devices@Windows@@V?$Local@VValue@v8@@@v8@@@std@@6B@ 000000018003deb8     _nodert_generated.obj
 0003:00000ee8       ??_7?$_AsyncInfoImpl@PE$AAUIAsyncAction@Foundation@Windows@@VAsyncActionCompletedHandler@23@E@details@Concurrency@@6BIAsyncInfo@Foundation@Windows@@@ 000000018003dee8     _nodert_generated.obj
 0003:00000f68       ??_7_TaskProcHandle@details@Concurrency@@6B@ 000000018003df68     _nodert_generated.obj
 0003:00000f78       ??_7runtime_error@std@@6B@ 000000018003df78     _nodert_generated.obj
 0003:00000f90       ??_7?$AsyncOperationCompletedHandler@W4WiFiAccessStatus@WiFi@Devices@Windows@@@Foundation@Windows@@6B__abi_IUnknown@@@ 000000018003df90     _nodert_generated.obj
 0003:00000fb8       ??_7_IAsyncActionToAsyncOperationConverter@details@Concurrency@@6BObject@Platform@@?$IAsyncOperation@E@Foundation@Windows@@@ 000000018003dfb8     _nodert_generated.obj
 0003:00001018       ??_7?$VectorViewWrapper@PE$AAVWiFiAdapter@WiFi@Devices@Windows@@@Collections@NodeRT@@6B@ 000000018003e018     _nodert_generated.obj
 0003:00001038       ??_7?$_Func_impl@V<lambda_5bc6d3dfd96b81b557d2ca3987bcfe7e>@@V?$allocator@H@std@@PE$AAVWiFiAdapter@WiFi@Devices@Windows@@V?$Local@VValue@v8@@@v8@@@std@@6B@ 000000018003e038     _nodert_generated.obj
 0003:00001068       ??_7?$_Func_base@PE$AAVWiFiAvailableNetwork@WiFi@Devices@Windows@@V?$Local@VValue@v8@@@v8@@@std@@6B@ 000000018003e068     _nodert_generated.obj
 0003:00001098       ??_7task_canceled@Concurrency@@6B@ 000000018003e098     _nodert_generated.obj
 0003:000010b0       ??_7?$_Func_base@EV?$task@PE$AAVWiFiConnectionResult@WiFi@Devices@Windows@@@Concurrency@@@std@@6B@ 000000018003e0b0     _nodert_generated.obj
 0003:000010e0       ??_7?$__abi_FunctorCapture@V<lambda_6e21da2768ea61b27f3b85c7b781b2f7>@@XPE$AAVWiFiAdapter@WiFi@Devices@Windows@@PE$AAVObject@Platform@@@Details@Platform@@6B@ 000000018003e0e0     _nodert_generated.obj
 0003:000010f0       ??_7?$_Func_impl@V<lambda_85765119efc67a7064e73cc055ab740f>@@V?$allocator@H@std@@EV?$task@PE$AAU?$IVectorView@PE$AAVWiFiAdapter@WiFi@Devices@Windows@@@Collections@Foundation@Windows@@@Concurrency@@@std@@6B@ 000000018003e0f0     _nodert_generated.obj
 0003:00001120       ??_7?$_Func_impl@V<lambda_3da37a473492b4ff9784e4b9d5ec0fb3>@@V?$allocator@H@std@@X$$V@std@@6B@ 000000018003e120     _nodert_generated.obj
 0003:00001150       ??_7?$_Func_impl@V<lambda_7c83662bc24fcfe269da27ef98721e5f>@@V?$allocator@H@std@@XV?$function@$$A6AXHPEAV?$Local@VValue@v8@@@v8@@@Z@3@@std@@6B@ 000000018003e150     _nodert_generated.obj
 0003:00001180       ??_7?$_Func_base@XV?$task@PE$AAU?$IVectorView@PE$AAVWiFiAdapter@WiFi@Devices@Windows@@@Collections@Foundation@Windows@@@Concurrency@@@std@@6B@ 000000018003e180     _nodert_generated.obj
 0003:000011b0       ??_7?$_Func_impl@V<lambda_3c9564ace928a5325045d5dafda92950>@@V?$allocator@H@std@@XV?$function@$$A6AXHPEAV?$Local@VValue@v8@@@v8@@@Z@3@@std@@6B@ 000000018003e1b0     _nodert_generated.obj
 0003:000011e0       ??_7?$_Func_base@XV?$function@$$A6AXHPEAV?$Local@VValue@v8@@@v8@@@Z@std@@@std@@6B@ 000000018003e1e0     _nodert_generated.obj
 0003:00001210       ??_7?$AsyncOperationCompletedHandler@PE$AAU?$IVectorView@PE$AAVWiFiAdapter@WiFi@Devices@Windows@@@Collections@Foundation@Windows@@@Foundation@Windows@@6B__abi_IUnknown@@@ 000000018003e210     _nodert_generated.obj
 0003:00001238       ??_7?$_Func_impl@V<lambda_b35fdbc63eaf6c602f1361040fea34ad>@@V?$allocator@H@std@@XV?$task@W4WiFiAccessStatus@WiFi@Devices@Windows@@@Concurrency@@@std@@6B@ 000000018003e238     _nodert_generated.obj
 0003:00001268       ??_7ObjectWrap@Nan@@6B@    000000018003e268     _nodert_generated.obj
 0003:00001280       ??_7_IAsyncActionToAsyncOperationConverter@details@Concurrency@@6BObject@Platform@@?$_AsyncInfoImpl@PE$AAUIAsyncAction@Foundation@Windows@@VAsyncActionCompletedHandler@23@E@12@@ 000000018003e280     _nodert_generated.obj
 0003:000012b0       ??_7?$AsyncOperationCompletedHandler@PE$AAVWiFiAdapter@WiFi@Devices@Windows@@@Foundation@Windows@@6B__abi_IUnknown@@@ 000000018003e2b0     _nodert_generated.obj
 0003:000012d8       ??_7?$_Func_base@EV?$task@W4WiFiAccessStatus@WiFi@Devices@Windows@@@Concurrency@@@std@@6B@ 000000018003e2d8     _nodert_generated.obj
 0003:00001308       ??_7?$_Func_base@V?$Local@VValue@v8@@@v8@@PE$AAVWiFiAdapter@WiFi@Devices@Windows@@@std@@6B@ 000000018003e308     _nodert_generated.obj
 0003:00001338       ??_7_IAsyncActionToAsyncOperationConverter@details@Concurrency@@6B__I?$_AsyncInfoImpl@PE$AAUIAsyncAction@Foundation@Windows@@VAsyncActionCompletedHandler@23@EPublicNonVirtuals@12@@ 000000018003e338     _nodert_generated.obj
 0003:00001368       ??_7?$_PPLTaskHandle@EU?$_ContinuationTaskHandle@W4WiFiAccessStatus@WiFi@Devices@Windows@@XV?$function@$$A6AXV?$task@W4WiFiAccessStatus@WiFi@Devices@Windows@@@Concurrency@@@Z@std@@U?$integral_constant@_N$00@6@U_TypeSelectorNoAsync@details@Concurrency@@@?$task@W4WiFiAccessStatus@WiFi@Devices@Windows@@@Concurrency@@U_ContinuationTaskHandleBase@details@3@@details@Concurrency@@6B@ 000000018003e368     _nodert_generated.obj
 0003:00001380       ??_7?$_Func_impl@V<lambda_f25c37099038263181b5186a3fa41b37>@@V?$allocator@H@std@@X$$V@std@@6B@ 000000018003e380     _nodert_generated.obj
 0003:000013b0       ??_7?$_Task_impl@E@details@Concurrency@@6B@ 000000018003e3b0     _nodert_generated.obj
 0003:000013c0       ??_7?$_Ref_count_obj@U?$_Task_impl@E@details@Concurrency@@@std@@6B@ 000000018003e3c0     _nodert_generated.obj
 0003:000013e0       ??_7?$_Ref_count_del@V?$Persistent@VObject@v8@@V?$NonCopyablePersistentTraits@VObject@v8@@@2@@Nan@@V<lambda_c02fb238210f14e2fb5013cae9dd75ba>@@@std@@6B@ 000000018003e3e0     _nodert_generated.obj
 0003:00001400       ??_7?$AsyncOperationCompletedHandler@W4WiFiAccessStatus@WiFi@Devices@Windows@@@Foundation@Windows@@6B@ 000000018003e400     _nodert_generated.obj
 0003:00001430       ??_7?$__abi_FunctorCapture@V<lambda_1be61911d0911224a6a5e596bb6a6971>@@XPE$AAU?$IAsyncOperation@PE$AAVWiFiConnectionResult@WiFi@Devices@Windows@@@Foundation@Windows@@W4AsyncStatus@34@@Details@Platform@@6B@ 000000018003e430     _nodert_generated.obj
 0003:00001440       ??_7AsyncActionCompletedHandler@Foundation@Windows@@6BObject@Platform@@@ 000000018003e440     _nodert_generated.obj
 0003:00001470       ??_7?$_Func_impl@V<lambda_d4a8bb1d3b7ec2bea7766c2745f0ce11>@@V?$allocator@H@std@@EV?$task@X@Concurrency@@@std@@6B@ 000000018003e470     _nodert_generated.obj
 0003:000014a0       ??_7?$_Func_impl@V<lambda_83c8a8a13daabe239d2c6058262a98a0>@@V?$allocator@H@std@@_NV?$Local@VValue@v8@@@v8@@@std@@6B@ 000000018003e4a0     _nodert_generated.obj
 0003:000014d0       ??_7?$_Func_impl@V<lambda_e7219b7c2136ee68b6238814f2197cbc>@@V?$allocator@H@std@@X$$V@std@@6B@ 000000018003e4d0     _nodert_generated.obj
 0003:00001500       ??_7?$_Func_base@XV?$task@PE$AAVWiFiConnectionResult@WiFi@Devices@Windows@@@Concurrency@@@std@@6B@ 000000018003e500     _nodert_generated.obj
 0003:00001530       ??_7?$_ContinuationTaskHandle@XXV?$function@$$A6AXV?$task@X@Concurrency@@@Z@std@@U?$integral_constant@_N$00@2@U_TypeSelectorNoAsync@details@Concurrency@@@?$task@E@Concurrency@@6B@ 000000018003e530     _nodert_generated.obj
 0003:00001548       ??_7?$_AsyncInfoImpl@PE$AAUIAsyncAction@Foundation@Windows@@VAsyncActionCompletedHandler@23@E@details@Concurrency@@6B__I?$_AsyncInfoImpl@PE$AAUIAsyncAction@Foundation@Windows@@VAsyncActionCompletedHandler@23@EPublicNonVirtuals@12@@ 000000018003e548     _nodert_generated.obj
 0003:00001578       ??_7?$AsyncOperationCompletedHandler@E@Foundation@Windows@@6B__abi_IUnknown@@@ 000000018003e578     _nodert_generated.obj
 0003:000015a0       ??_7?$_Func_impl@V<lambda_55ddc47e8b1e9c7c6c00a8fa07b02eeb>@@V?$allocator@H@std@@V?$Local@VValue@v8@@@v8@@PE$AAVWiFiAdapter@WiFi@Devices@Windows@@@std@@6B@ 000000018003e5a0     _nodert_generated.obj
 0003:000015d0       ??_7invalid_operation@Concurrency@@6B@ 000000018003e5d0     _nodert_generated.obj
 0003:000015e8       ??_7?$_ContinuationTaskHandle@PE$AAVWiFiConnectionResult@WiFi@Devices@Windows@@XV?$function@$$A6AXV?$task@PE$AAVWiFiConnectionResult@WiFi@Devices@Windows@@@Concurrency@@@Z@std@@U?$integral_constant@_N$00@6@U_TypeSelectorNoAsync@details@Concurrency@@@?$task@PE$AAVWiFiConnectionResult@WiFi@Devices@Windows@@@Concurrency@@6B@ 000000018003e5e8     _nodert_generated.obj
 0003:00001600       ??_7?$_PPLTaskHandle@EU?$_ContinuationTaskHandle@XXV?$function@$$A6AXV?$task@X@Concurrency@@@Z@std@@U?$integral_constant@_N$00@2@U_TypeSelectorNoAsync@details@Concurrency@@@?$task@E@Concurrency@@U_ContinuationTaskHandleBase@details@3@@details@Concurrency@@6B@ 000000018003e600     _nodert_generated.obj
 0003:00001618       ??_7?$TypedEventHandler@PE$AAVWiFiAdapter@WiFi@Devices@Windows@@PE$AAVObject@Platform@@@Foundation@Windows@@6BObject@Platform@@@ 000000018003e618     _nodert_generated.obj
 0003:00001648       ??_7?$_Func_base@XV?$task@W4WiFiAccessStatus@WiFi@Devices@Windows@@@Concurrency@@@std@@6B@ 000000018003e648     _nodert_generated.obj
 0003:00001678       ??_7?$AsyncOperationCompletedHandler@PE$AAU?$IVectorView@PE$AAVWiFiAdapter@WiFi@Devices@Windows@@@Collections@Foundation@Windows@@@Foundation@Windows@@6B@ 000000018003e678     _nodert_generated.obj
 0003:000016a8       ??_7?$_PPLTaskHandle@EU?$_ContinuationTaskHandle@PE$AAVWiFiAdapter@WiFi@Devices@Windows@@XV?$function@$$A6AXV?$task@PE$AAVWiFiAdapter@WiFi@Devices@Windows@@@Concurrency@@@Z@std@@U?$integral_constant@_N$00@6@U_TypeSelectorNoAsync@details@Concurrency@@@?$task@PE$AAVWiFiAdapter@WiFi@Devices@Windows@@@Concurrency@@U_ContinuationTaskHandleBase@details@3@@details@Concurrency@@6B@ 000000018003e6a8     _nodert_generated.obj
 0003:000016c0       ??_7?$_Func_base@XHPEAV?$Local@VValue@v8@@@v8@@@std@@6B@ 000000018003e6c0     _nodert_generated.obj
 0003:000016f0       ??_7?$_Func_impl@V<lambda_ee2800ccd2b011420c5de0c63356449b>@@V?$allocator@H@std@@X$$V@std@@6B@ 000000018003e6f0     _nodert_generated.obj
 0003:00001720       ??_7?$_Func_impl@V<lambda_fc55a96778b695da9907353a9fdacbca>@@V?$allocator@H@std@@X$$V@std@@6B@ 000000018003e720     _nodert_generated.obj
 0003:00001750       ??_7?$_Func_impl@V<lambda_0ce4d83caa0e454a8417afea39cd9595>@@V?$allocator@H@std@@_NV?$Local@VValue@v8@@@v8@@@std@@6B@ 000000018003e750     _nodert_generated.obj
 0003:00001780       ??_7?$__abi_FunctorCapture@V<lambda_bd36e4550c07aa6279a00ca606e5e690>@@XPE$AAU?$IAsyncOperation@W4WiFiAccessStatus@WiFi@Devices@Windows@@@Foundation@Windows@@W4AsyncStatus@34@@Details@Platform@@6B@ 000000018003e780     _nodert_generated.obj
 0003:00001790       ??_7?$_CancellationTokenCallback@V<lambda_be3e5d9dce35d2c8dbfa8485373731d5>@@@details@Concurrency@@6B@ 000000018003e790     _nodert_generated.obj
 0003:000017a8       ??_7_IAsyncActionToAsyncOperationConverter@details@Concurrency@@6BObject@Platform@@IWeakReferenceSource@Details@4@@ 000000018003e7a8     _nodert_generated.obj
 0003:000017d8       ??_7_ContinuationTaskHandleBase@details@Concurrency@@6B@ 000000018003e7d8     _nodert_generated.obj
 0003:000017f0       ??_7?$_Func_impl@V<lambda_6d9be390a0d0310de9e6f9a11a95eeaf>@@V?$allocator@H@std@@EV?$task@PE$AAVWiFiAdapter@WiFi@Devices@Windows@@@Concurrency@@@std@@6B@ 000000018003e7f0     _nodert_generated.obj
 0003:00001820       ??_7?$_Func_impl@V<lambda_4bc90cab6583626e4c84cccfde14d85d>@@V?$allocator@H@std@@XV?$function@$$A6AXHPEAV?$Local@VValue@v8@@@v8@@@Z@3@@std@@6B@ 000000018003e820     _nodert_generated.obj
 0003:00001850       ??_7_Task_impl_base@details@Concurrency@@6B@ 000000018003e850     _nodert_generated.obj
 0003:00001860       ??_7OpaqueWrapper@NodeRT@@6B@ 000000018003e860     OpaqueWrapper.obj
 0003:00001880       _fltused                   000000018003e880     MSVCRT:dllsupp.obj
 0003:00001890       ??_R0?AVModuleBase@Details@WRL@Microsoft@@@8 000000018003e890     vccorlib:init.obj
 0003:000018c8       ??_R0?AVInProcModule@Details@Platform@@@8 000000018003e8c8     vccorlib:init.obj
 0003:00001900       ??_R0?AV?$Module@$04VInProcModule@Details@Platform@@@WRL@Microsoft@@@8 000000018003e900     vccorlib:init.obj
 0003:00001960       ??_R0?AV?$Module@$00VInProcModule@Details@Platform@@@WRL@Microsoft@@@8 000000018003e960     vccorlib:init.obj
 0003:000019b8       ??_R0?AU__abi_Module@@@8   000000018003e9b8     vccorlib:init.obj
 0003:000019e0       ??_R0?AVtype_info@@@8      000000018003e9e0     MSVCRT:std_type_info_static.obj
 0003:00001a00       ??_R0?AVbad_alloc@std@@@8  000000018003ea00     MSVCRT:throw_bad_alloc.obj
 0003:00001a28       ??_R0?AVexception@std@@@8  000000018003ea28     MSVCRT:throw_bad_alloc.obj
 0003:00001a50       ??_R0?AVbad_array_new_length@std@@@8 000000018003ea50     MSVCRT:throw_bad_alloc.obj
 0003:00001a80       ??_R0?AV<lambda_68efb09af3b7db31efab1776bdb9e493>@@@8 000000018003ea80     _nodert_generated.obj
 0003:00001ac0       ??_R0?AV<lambda_3da37a473492b4ff9784e4b9d5ec0fb3>@@@8 000000018003eac0     _nodert_generated.obj
 0003:00001b00       ??_R0?AVruntime_error@std@@@8 000000018003eb00     _nodert_generated.obj
 0003:00001b30       ??_R0?AV<lambda_0ce4d83caa0e454a8417afea39cd9595>@@@8 000000018003eb30     _nodert_generated.obj
 0003:00001b70       ??_R0?AVexception@stdext@@@8 000000018003eb70     _nodert_generated.obj
 0003:00001ba0       ??_R0?AV<lambda_be4c867425d6e703fe2514969f90995f>@@@8 000000018003eba0     _nodert_generated.obj
 0003:00001be0       ??_R0PE$AAUIDisposable@Platform@@@8 000000018003ebe0     _nodert_generated.obj
 0003:00001c10       ??_R0?AV<lambda_4710f5c52dcf42bd02a362ab04da0053>@@@8 000000018003ec10     _nodert_generated.obj
 0003:00001c50       ??_R0?AV<lambda_2de1eaeeb1391f2030b03d1ef75d3eb0>@@@8 000000018003ec50     _nodert_generated.obj
 0003:00001c90       ??_R0PE$AAUIEquatable@Details@Platform@@@8 000000018003ec90     _nodert_generated.obj
 0003:00001cd0       ??_R0?AV<lambda_bc0731c9a3566f45332d953ae2092d1f>@@@8 000000018003ecd0     _nodert_generated.obj
 0003:00001d10       ??_R0?AV<lambda_85765119efc67a7064e73cc055ab740f>@@@8 000000018003ed10     _nodert_generated.obj
 0003:00001d50       ??_R0?AV<lambda_d3aafd0b57b73d2f9a296ee38aa3e67b>@@@8 000000018003ed50     _nodert_generated.obj
 0003:00001d90       ??_R0?AV<lambda_e03a7ec937e836cf062062cbea779d3e>@@@8 000000018003ed90     _nodert_generated.obj
 0003:00001dd0       ??_R0?AV<lambda_5bc6d3dfd96b81b557d2ca3987bcfe7e>@@@8 000000018003edd0     _nodert_generated.obj
 0003:00001e10       ??_R0?AV<lambda_83c8a8a13daabe239d2c6058262a98a0>@@@8 000000018003ee10     _nodert_generated.obj
 0003:00001e50       ??_R0?AV<lambda_fc55a96778b695da9907353a9fdacbca>@@@8 000000018003ee50     _nodert_generated.obj
 0003:00001e90       ??_R0?AV<lambda_334307b97ee5f2466f8dfc680b54dc48>@@@8 000000018003ee90     _nodert_generated.obj
 0003:00001ed0       ??_R0?AV<lambda_73d913ce43e6748b5d247a86ca0a72e7>@@@8 000000018003eed0     _nodert_generated.obj
 0003:00001f10       ??_R0PE$AAVObject@Platform@@@8 000000018003ef10     _nodert_generated.obj
 0003:00001f40       ??_R0?AV<lambda_dbe8bba2fdc06b28517f8829416a6436>@@@8 000000018003ef40     _nodert_generated.obj
 0003:00001f80       ??_R0?AV<lambda_1af583cf6945007177c61d87505abd8e>@@@8 000000018003ef80     _nodert_generated.obj
 0003:00001fc0       ??_R0?AV<lambda_bae4d4148c38c83d04c701f5e686a80e>@@@8 000000018003efc0     _nodert_generated.obj
 0003:00002000       ??_R0?AV<lambda_2ebdab9cc8d71a78c6d6e5d0333b6c35>@@@8 000000018003f000     _nodert_generated.obj
 0003:00002040       ??_R0PE$AAUIPrintable@Details@Platform@@@8 000000018003f040     _nodert_generated.obj
 0003:00002080       ??_R0?AV<lambda_e0f5f8496c987d2738a350a69618b6a8>@@@8 000000018003f080     _nodert_generated.obj
 0003:000020c0       ??_R0?AV<lambda_d4a8bb1d3b7ec2bea7766c2745f0ce11>@@@8 000000018003f0c0     _nodert_generated.obj
 0003:00002100       ??_R0PE$AAVCOMException@Platform@@@8 000000018003f100     _nodert_generated.obj
 0003:00002130       ??_R0?AV<lambda_43dba3b136f953be73dc2826e9f03afb>@@@8 000000018003f130     _nodert_generated.obj
 0003:00002170       ??_R0?AV<lambda_55ddc47e8b1e9c7c6c00a8fa07b02eeb>@@@8 000000018003f170     _nodert_generated.obj
 0003:000021b0       ??_R0?AV<lambda_e7219b7c2136ee68b6238814f2197cbc>@@@8 000000018003f1b0     _nodert_generated.obj
 0003:000021f0       ??_R0?AV<lambda_fcddfbb588d6d178324b6e9cbb1f8253>@@@8 000000018003f1f0     _nodert_generated.obj
 0003:00002230       ??_R0?AV<lambda_45bc1edc407ccfe1fa050aed513212a8>@@@8 000000018003f230     _nodert_generated.obj
 0003:00002270       ??_R0PEAX@8                000000018003f270     _nodert_generated.obj
 0003:00002290       ??_R0?AV<lambda_575df78f75be6e56c3c6d6f2c13351d7>@@@8 000000018003f290     _nodert_generated.obj
 0003:000022d0       ??_R0?AV<lambda_3c9564ace928a5325045d5dafda92950>@@@8 000000018003f2d0     _nodert_generated.obj
 0003:00002310       ??_R0?AV<lambda_b35fdbc63eaf6c602f1361040fea34ad>@@@8 000000018003f310     _nodert_generated.obj
 0003:00002350       ??_R0?AV<lambda_d0049738c561b5c93f538d8743334b3b>@@@8 000000018003f350     _nodert_generated.obj
 0003:00002390       ??_R0?AV<lambda_d61d618acd042cb6be448c47bd6dda04>@@@8 000000018003f390     _nodert_generated.obj
 0003:000023d0       ??_R0?AV<lambda_20051975644501ca4905d094cad7ca9a>@@@8 000000018003f3d0     _nodert_generated.obj
 0003:00002410       ??_R0?AV<lambda_f25c37099038263181b5186a3fa41b37>@@@8 000000018003f410     _nodert_generated.obj
 0003:00002450       ??_R0?AV<lambda_763529b0c7473cbc215a52d189ac9b18>@@@8 000000018003f450     _nodert_generated.obj
 0003:00002490       ??_R0PE$AAVException@Platform@@@8 000000018003f490     _nodert_generated.obj
 0003:000024c0       ??_R0?AV<lambda_2ace49f5b77b91174c8cbc8b4e46373d>@@@8 000000018003f4c0     _nodert_generated.obj
 0003:00002500       ??_R0?AV<lambda_7c83662bc24fcfe269da27ef98721e5f>@@@8 000000018003f500     _nodert_generated.obj
 0003:00002540       ??_R0?AV<lambda_c02fb238210f14e2fb5013cae9dd75ba>@@@8 000000018003f540     _nodert_generated.obj
 0003:00002580       ??_R0?AV<lambda_fabbb294be36e42af330e23943182f39>@@@8 000000018003f580     _nodert_generated.obj
 0003:000025c0       ??_R0PE$AAVNullReferenceException@Platform@@@8 000000018003f5c0     _nodert_generated.obj
 0003:00002600       ??_R0?AV<lambda_4bc90cab6583626e4c84cccfde14d85d>@@@8 000000018003f600     _nodert_generated.obj
 0003:00002640       ??_R0?AV<lambda_196da8969df2293b3f20f1c35ff63462>@@@8 000000018003f640     _nodert_generated.obj
 0003:00002680       ??_R0?AV<lambda_6d9be390a0d0310de9e6f9a11a95eeaf>@@@8 000000018003f680     _nodert_generated.obj
 0003:000026c0       ??_R0?AV<lambda_ee2800ccd2b011420c5de0c63356449b>@@@8 000000018003f6c0     _nodert_generated.obj
 0003:00002700       ??_R0?AV<lambda_e04973e34d302f1e2fca91b511fcd8c7>@@@8 000000018003f700     _nodert_generated.obj
 0003:00002740       ??_R0?AV<lambda_394de31cb1e2557ca7df73bc20a87e56>@@@8 000000018003f740     _nodert_generated.obj
 0003:00002780       __imp_?Global@Context@v8@@QEAA?AV?$Local@VObject@v8@@@2@XZ 000000018003f780     node:node.exe
 0003:00002788       __imp_?Value@External@v8@@QEBAPEAXXZ 000000018003f788     node:node.exe
 0003:00002790       __imp_?New@External@v8@@SA?AV?$Local@VExternal@v8@@@2@PEAVIsolate@2@PEAX@Z 000000018003f790     node:node.exe
 0003:00002798       __imp_?NewFromUnsigned@Integer@v8@@SA?AV?$Local@VInteger@v8@@@2@PEAVIsolate@2@I@Z 000000018003f798     node:node.exe
 0003:000027a0       __imp_?New@Integer@v8@@SA?AV?$Local@VInteger@v8@@@2@PEAVIsolate@2@H@Z 000000018003f7a0     node:node.exe
 0003:000027a8       __imp_?New@Signature@v8@@SA?AV?$Local@VSignature@v8@@@2@PEAVIsolate@2@V?$Local@VFunctionTemplate@v8@@@2@@Z 000000018003f7a8     node:node.exe
 0003:000027b0       __imp_?ThrowException@Isolate@v8@@QEAA?AV?$Local@VValue@v8@@@2@V32@@Z 000000018003f7b0     node:node.exe
 0003:000027b8       __imp_?GetCurrentContext@Isolate@v8@@QEAA?AV?$Local@VContext@v8@@@2@XZ 000000018003f7b8     node:node.exe
 0003:000027c0       __imp_?GetCurrent@Isolate@v8@@SAPEAV12@XZ 000000018003f7c0     node:node.exe
 0003:000027c8       __imp_?CreateHandle@HandleScope@v8@@KAPEAPEAVObject@internal@2@PEAVIsolate@42@PEAV342@@Z 000000018003f7c8     node:node.exe
 0003:000027d0       __imp_?CreateHandle@HandleScope@v8@@CAPEAPEAVObject@internal@2@PEAVHeapObject@42@PEAV342@@Z 000000018003f7d0     node:node.exe
 0003:000027d8       __imp_??1HandleScope@v8@@QEAA@XZ 000000018003f7d8     node:node.exe
 0003:000027e0       __imp_??0HandleScope@v8@@QEAA@PEAVIsolate@1@@Z 000000018003f7e0     node:node.exe
 0003:000027e8       __imp_?Set@Template@v8@@QEAAXV?$Local@VName@v8@@@2@V?$Local@VData@v8@@@2@W4PropertyAttribute@2@@Z 000000018003f7e8     node:node.exe
 0003:000027f0       __imp_?Error@Exception@v8@@SA?AV?$Local@VValue@v8@@@2@V?$Local@VString@v8@@@2@@Z 000000018003f7f0     node:node.exe
 0003:000027f8       __imp_?HasInstance@FunctionTemplate@v8@@QEAA_NV?$Local@VValue@v8@@@2@@Z 000000018003f7f8     node:node.exe
 0003:00002800       __imp_?SetClassName@FunctionTemplate@v8@@QEAAXV?$Local@VString@v8@@@2@@Z 000000018003f800     node:node.exe
 0003:00002808       __imp_?PrototypeTemplate@FunctionTemplate@v8@@QEAA?AV?$Local@VObjectTemplate@v8@@@2@XZ 000000018003f808     node:node.exe
 0003:00002810       __imp_?InstanceTemplate@FunctionTemplate@v8@@QEAA?AV?$Local@VObjectTemplate@v8@@@2@XZ 000000018003f810     node:node.exe
 0003:00002818       __imp_?GetFunction@FunctionTemplate@v8@@QEAA?AV?$MaybeLocal@VFunction@v8@@@2@V?$Local@VContext@v8@@@2@@Z 000000018003f818     node:node.exe
 0003:00002820       __imp_?New@FunctionTemplate@v8@@SA?AV?$Local@VFunctionTemplate@v8@@@2@PEAVIsolate@2@P6AXAEBV?$FunctionCallbackInfo@VValue@v8@@@2@@ZV?$Local@VValue@v8@@@2@V?$Local@VSignature@v8@@@2@H@Z 000000018003f820     node:node.exe
 0003:00002828       __imp_?ToLocalEmpty@V8@v8@@CAXXZ 000000018003f828     node:node.exe
 0003:00002830       __imp_?ClearWeak@V8@v8@@CAPEAXPEAPEAVObject@internal@2@@Z 000000018003f830     node:node.exe
 0003:00002838       __imp_?MakeWeak@V8@v8@@CAXPEAPEAVObject@internal@2@PEAXP6AXAEBV?$WeakCallbackInfo@X@2@@ZW4WeakCallbackType@2@@Z 000000018003f838     node:node.exe
 0003:00002840       __imp_?DisposeGlobal@V8@v8@@CAXPEAPEAVObject@internal@2@@Z 000000018003f840     node:node.exe
 0003:00002848       __imp_?GlobalizeReference@V8@v8@@CAPEAPEAVObject@internal@2@PEAVIsolate@42@PEAPEAV342@@Z 000000018003f848     node:node.exe
 0003:00002850       __imp_?Equals@Value@v8@@QEBA_NV?$Local@VValue@v8@@@2@@Z 000000018003f850     node:node.exe
 0003:00002858       __imp_?Equals@Value@v8@@QEBA?AV?$Maybe@_N@2@V?$Local@VContext@v8@@@2@V?$Local@VValue@v8@@@2@@Z 000000018003f858     node:node.exe
 0003:00002860       __imp_?Int32Value@Value@v8@@QEBA?AV?$Maybe@H@2@V?$Local@VContext@v8@@@2@@Z 000000018003f860     node:node.exe
 0003:00002868       __imp_?Uint32Value@Value@v8@@QEBAIXZ 000000018003f868     node:node.exe
 0003:00002870       __imp_?ToInteger@Value@v8@@QEBA?AV?$MaybeLocal@VInteger@v8@@@2@V?$Local@VContext@v8@@@2@@Z 000000018003f870     node:node.exe
 0003:00002878       __imp_?ToObject@Value@v8@@QEBA?AV?$MaybeLocal@VObject@v8@@@2@V?$Local@VContext@v8@@@2@@Z 000000018003f878     node:node.exe
 0003:00002880       __imp_?ToString@Value@v8@@QEBA?AV?$MaybeLocal@VString@v8@@@2@V?$Local@VContext@v8@@@2@@Z 000000018003f880     node:node.exe
 0003:00002888       __imp_?IsUint32@Value@v8@@QEBA_NXZ 000000018003f888     node:node.exe
 0003:00002890       __imp_?IsInt32@Value@v8@@QEBA_NXZ 000000018003f890     node:node.exe
 0003:00002898       __imp_?IsBoolean@Value@v8@@QEBA_NXZ 000000018003f898     node:node.exe
 0003:000028a0       __imp_?IsObject@Value@v8@@QEBA_NXZ 000000018003f8a0     node:node.exe
 0003:000028a8       __imp_?IsFunction@Value@v8@@QEBA_NXZ 000000018003f8a8     node:node.exe
 0003:000028b0       __imp_?Exception@TryCatch@v8@@QEBA?AV?$Local@VValue@v8@@@2@XZ 000000018003f8b0     node:node.exe
 0003:000028b8       __imp_?HasCaught@TryCatch@v8@@QEBA_NXZ 000000018003f8b8     node:node.exe
 0003:000028c0       __imp_??1TryCatch@v8@@QEAA@XZ 000000018003f8c0     node:node.exe
 0003:000028c8       __imp_??0TryCatch@v8@@QEAA@PEAVIsolate@1@@Z 000000018003f8c8     node:node.exe
 0003:000028d0       __imp_?Escape@EscapableHandleScope@v8@@AEAAPEAPEAVObject@internal@2@PEAPEAV342@@Z 000000018003f8d0     node:node.exe
 0003:000028d8       __imp_??0EscapableHandleScope@v8@@QEAA@PEAVIsolate@1@@Z 000000018003f8d8     node:node.exe
 0003:000028e0       __imp_??1Value@String@v8@@QEAA@XZ 000000018003f8e0     node:node.exe
 0003:000028e8       __imp_??0Value@String@v8@@QEAA@V?$Local@VValue@v8@@@2@@Z 000000018003f8e8     node:node.exe
 0003:000028f0       __imp_?Concat@String@v8@@SA?AV?$Local@VString@v8@@@2@V32@0@Z 000000018003f8f0     node:node.exe
 0003:000028f8       __imp_?NewFromUtf8@String@v8@@SA?AV?$MaybeLocal@VString@v8@@@2@PEAVIsolate@2@PEBDW4NewStringType@2@H@Z 000000018003f8f8     node:node.exe
 0003:00002900       __imp_?New@Number@v8@@SA?AV?$Local@VNumber@v8@@@2@PEAVIsolate@2@N@Z 000000018003f900     node:node.exe
 0003:00002908       __imp_?SlowGetAlignedPointerFromInternalField@Object@v8@@AEAAPEAXH@Z 000000018003f908     node:node.exe
 0003:00002910       __imp_?SlowGetInternalField@Object@v8@@AEAA?AV?$Local@VValue@v8@@@2@H@Z 000000018003f910     node:node.exe
 0003:00002918       __imp_?New@Object@v8@@SA?AV?$Local@VObject@v8@@@2@PEAVIsolate@2@@Z 000000018003f918     node:node.exe
 0003:00002920       __imp_?SetAlignedPointerInInternalField@Object@v8@@QEAAXHPEAX@Z 000000018003f920     node:node.exe
 0003:00002928       __imp_?SetInternalField@Object@v8@@QEAAXHV?$Local@VValue@v8@@@2@@Z 000000018003f928     node:node.exe
 0003:00002930       __imp_?InternalFieldCount@Object@v8@@QEAAHXZ 000000018003f930     node:node.exe
 0003:00002938       __imp_?SetPrototype@Object@v8@@QEAA?AV?$Maybe@_N@2@V?$Local@VContext@v8@@@2@V?$Local@VValue@v8@@@2@@Z 000000018003f938     node:node.exe
 0003:00002940       __imp_?Delete@Object@v8@@QEAA?AV?$Maybe@_N@2@V?$Local@VContext@v8@@@2@V?$Local@VValue@v8@@@2@@Z 000000018003f940     node:node.exe
 0003:00002948       __imp_?Get@Object@v8@@QEAA?AV?$Local@VValue@v8@@@2@V32@@Z 000000018003f948     node:node.exe
 0003:00002950       __imp_?Get@Object@v8@@QEAA?AV?$MaybeLocal@VValue@v8@@@2@V?$Local@VContext@v8@@@2@V?$Local@VValue@v8@@@2@@Z 000000018003f950     node:node.exe
 0003:00002958       __imp_?Set@Object@v8@@QEAA_NV?$Local@VValue@v8@@@2@0@Z 000000018003f958     node:node.exe
 0003:00002960       __imp_?Set@Object@v8@@QEAA?AV?$Maybe@_N@2@V?$Local@VContext@v8@@@2@V?$Local@VValue@v8@@@2@1@Z 000000018003f960     node:node.exe
 0003:00002968       __imp_?NewInstance@Function@v8@@QEBA?AV?$MaybeLocal@VObject@v8@@@2@V?$Local@VContext@v8@@@2@HQEAV?$Local@VValue@v8@@@2@@Z 000000018003f968     node:node.exe
 0003:00002970       __imp_?SetInternalFieldCount@ObjectTemplate@v8@@QEAAXH@Z 000000018003f970     node:node.exe
 0003:00002978       __imp_?SetHandler@ObjectTemplate@v8@@QEAAXAEBUIndexedPropertyHandlerConfiguration@2@@Z 000000018003f978     node:node.exe
 0003:00002980       __imp_?SetAccessor@ObjectTemplate@v8@@QEAAXV?$Local@VName@v8@@@2@P6AX0AEBV?$PropertyCallbackInfo@VValue@v8@@@2@@ZP6AX0V?$Local@VValue@v8@@@2@AEBV?$PropertyCallbackInfo@X@2@@Z3W4AccessControl@2@W4PropertyAttribute@2@V?$Local@VAccessorSignature@v8@@@2@@Z 000000018003f980     node:node.exe
 0003:00002988       __imp_?NewInstance@ObjectTemplate@v8@@QEAA?AV?$MaybeLocal@VObject@v8@@@2@V?$Local@VContext@v8@@@2@@Z 000000018003f988     node:node.exe
 0003:00002990       __imp_?New@ObjectTemplate@v8@@SA?AV?$Local@VObjectTemplate@v8@@@2@PEAVIsolate@2@V?$Local@VFunctionTemplate@v8@@@2@@Z 000000018003f990     node:node.exe
 0003:00002998       __imp_uv_close             000000018003f998     node:node.exe
 0003:000029a0       __imp_node_module_register 000000018003f9a0     node:node.exe
 0003:000029a8       __imp_?MakeCallback@node@@YA?AV?$Local@VValue@v8@@@v8@@PEAVIsolate@3@V?$Local@VObject@v8@@@3@V?$Local@VString@v8@@@3@HPEAV23@@Z 000000018003f9a8     node:node.exe
 0003:000029b0       __imp_uv_async_send        000000018003f9b0     node:node.exe
 0003:000029b8       __imp_uv_async_init        000000018003f9b8     node:node.exe
 0003:000029c0       __imp_uv_default_loop      000000018003f9c0     node:node.exe
 0003:000029c8       __imp_??1EscapableHandleScope@v8@@QEAA@XZ 000000018003f9c8     node:node.exe
 0003:000029d0       __imp_?New@Date@v8@@SA?AV?$MaybeLocal@VValue@v8@@@2@V?$Local@VContext@v8@@@2@N@Z 000000018003f9d0     node:node.exe
 0003:000029d8       __imp_?IsTrue@Value@v8@@QEBA_NXZ 000000018003f9d8     node:node.exe
 0003:000029e0       __imp_?NewFromTwoByte@String@v8@@SA?AV?$MaybeLocal@VString@v8@@@2@PEAVIsolate@2@PEBGW4NewStringType@2@H@Z 000000018003f9e0     node:node.exe
 0003:000029e8       __imp_?Has@Object@v8@@QEAA?AV?$Maybe@_N@2@V?$Local@VContext@v8@@@2@V?$Local@VValue@v8@@@2@@Z 000000018003f9e8     node:node.exe
 0003:000029f0       __imp_?ForceSet@Object@v8@@QEAA?AV?$Maybe@_N@2@V?$Local@VContext@v8@@@2@V?$Local@VValue@v8@@@2@1W4PropertyAttribute@2@@Z 000000018003f9f0     node:node.exe
 0003:000029f8       \177node_NULL_THUNK_DATA_DLA 000000018003f9f8     node:node.exe
 0003:00002a00       __hmod__node_exe           000000018003fa00     node:node.exe
 0003:00002a08       ?__abi___threading_model@@3HA 000000018003fa08     vccorlib:init.obj
 0003:00002a0c       ?bTestedRoReportUnhandledError@@3HA 000000018003fa0c     vccorlib:init.obj
 0003:00002a10       ?RoReportUnhandledErrorFunc@@3P6AJPEAUIRestrictedErrorInfo@@@ZEA 000000018003fa10     vccorlib:init.obj
 0003:00002a18       ?__abi_module@@3PEAU__abi_Module@@EA 000000018003fa18     vccorlib:init.obj
 0003:00002a20       ?module_@Details@Platform@@3AEAVInProcModule@12@EA 000000018003fa20     vccorlib:init.obj
 0003:00002a28       ?moduleLock_@ModuleBase@Details@WRL@Microsoft@@0PEAXEA 000000018003fa28     vccorlib:init.obj
 0003:00002a30       ?objectCount_@ModuleBase@Details@WRL@Microsoft@@1KC 000000018003fa30     vccorlib:init.obj
 0003:00002a38       ?module_@ModuleBase@Details@WRL@Microsoft@@2PEAV1234@EA 000000018003fa38     vccorlib:init.obj
 0003:00002a40       ?module@?1??Create@?$Module@$00VInProcModule@Details@Platform@@@WRL@Microsoft@@SAAEAVInProcModule@Details@Platform@@XZ@4V567@A 000000018003fa40     vccorlib:init.obj
 0003:00002a50       ??_B?1??Create@?$Module@$00VInProcModule@Details@Platform@@@WRL@Microsoft@@SAAEAVInProcModule@Details@Platform@@XZ@51 000000018003fa50     vccorlib:init.obj
 0003:00002aa0       __scrt_current_native_startup_state 000000018003faa0     MSVCRT:utility.obj
 0003:00002aa8       __scrt_native_startup_lock 000000018003faa8     MSVCRT:utility.obj
 0003:00003064       __scrt_debugger_hook_flag  0000000180040064     MSVCRT:utility_desktop.obj
 0003:00003068       _tls_index                 0000000180040068     MSVCRT:tlssup.obj
 0003:0000306c       __favor                    000000018004006c     MSVCRT:_cpu_disp_.obj
 0003:00003070       ?__type_info_root_node@@3U__type_info_node@@A 0000000180040070     MSVCRT:tncleanup.obj
 0003:00003080       ?_OptionsStorage@?1??__local_stdio_printf_options@@9@4_KA 0000000180040080     MSVCRT:default_local_stdio_options.obj
 0003:00003088       ?_OptionsStorage@?1??__local_stdio_scanf_options@@9@4_KA 0000000180040088     MSVCRT:default_local_stdio_options.obj
 0003:00003090       ?DloadKernel32@@3PEAUHINSTANCE__@@EA 0000000180040090     DelayImp:delayhlp.obj
 0003:00003098       ?DloadAcquireSRWLockExclusive@@3P6AXPEA_K@ZEA 0000000180040098     DelayImp:delayhlp.obj
 0003:000030a0       ?DloadReleaseSRWLockExclusive@@3P6AXPEA_K@ZEA 00000001800400a0     DelayImp:delayhlp.obj
 0003:000030a8       ?DloadSrwLock@@3_KA        00000001800400a8     DelayImp:delayhlp.obj
 0003:000030b0       ?DloadSectionLockCount@@3KA 00000001800400b0     DelayImp:delayhlp.obj
 0003:000030b4       ?DloadSectionOldProtection@@3KA 00000001800400b4     DelayImp:delayhlp.obj
 0003:000030b8       ?DloadSectionCommitPermanent@@3KA 00000001800400b8     DelayImp:delayhlp.obj
 0003:000030bc       ?$TSS0@?1??_GetStaticAmbientSchedulerRef@details@Concurrency@@YAAEAV?$shared_ptr@Uscheduler_interface@Concurrency@@@std@@XZ@4HA 00000001800400bc     _nodert_generated.obj
 0003:000030c0       ?_S_scheduler@?1??_GetStaticAmbientSchedulerRef@details@Concurrency@@YAAEAV?$shared_ptr@Uscheduler_interface@Concurrency@@@std@@XZ@4V45@A 00000001800400c0     _nodert_generated.obj
 0003:000030d0       ?s_constructorTemplate@?$IteratorWrapper@PE$AAVWiFiAvailableNetwork@WiFi@Devices@Windows@@@Collections@NodeRT@@0V?$Persistent@VFunctionTemplate@v8@@V?$NonCopyablePersistentTraits@VFunctionTemplate@v8@@@2@@Nan@@A 00000001800400d0     _nodert_generated.obj
 0003:000030d8       ?s_constructorTemplate@?$VectorViewWrapper@PE$AAVWiFiAdapter@WiFi@Devices@Windows@@@Collections@NodeRT@@0V?$Persistent@VFunctionTemplate@v8@@V?$NonCopyablePersistentTraits@VFunctionTemplate@v8@@@2@@Nan@@A 00000001800400d8     _nodert_generated.obj
 0003:000030e0       ?g_keyProp@Collections@NodeRT@@3V?$Persistent@VString@v8@@V?$NonCopyablePersistentTraits@VString@v8@@@2@@Nan@@A 00000001800400e0     _nodert_generated.obj
 0003:000030e8       ?s_constructorTemplate@WiFiAvailableNetwork@WiFi@Devices@Windows@NodeRT@@0V?$Persistent@VFunctionTemplate@v8@@V?$NonCopyablePersistentTraits@VFunctionTemplate@v8@@@2@@Nan@@A 00000001800400e8     _nodert_generated.obj
 0003:000030f0       ?s_constructorTemplate@WiFiConnectionResult@WiFi@Devices@Windows@NodeRT@@0V?$Persistent@VFunctionTemplate@v8@@V?$NonCopyablePersistentTraits@VFunctionTemplate@v8@@@2@@Nan@@A 00000001800400f0     _nodert_generated.obj
 0003:000030f8       ?s_constructorTemplate@WiFiAdapter@WiFi@Devices@Windows@NodeRT@@0V?$Persistent@VFunctionTemplate@v8@@V?$NonCopyablePersistentTraits@VFunctionTemplate@v8@@@2@@Nan@@A 00000001800400f8     _nodert_generated.obj
 0003:00003100       ?g_valueProp@Collections@NodeRT@@3V?$Persistent@VString@v8@@V?$NonCopyablePersistentTraits@VString@v8@@@2@@Nan@@A 0000000180040100     _nodert_generated.obj
 0003:00003108       ?s_constructorTemplate@WiFiNetworkReport@WiFi@Devices@Windows@NodeRT@@0V?$Persistent@VFunctionTemplate@v8@@V?$NonCopyablePersistentTraits@VFunctionTemplate@v8@@@2@@Nan@@A 0000000180040108     _nodert_generated.obj
 0003:00003150       ?s_constructorTemplate@OpaqueWrapper@NodeRT@@0V?$Persistent@VFunctionTemplate@v8@@V?$NonCopyablePersistentTraits@VFunctionTemplate@v8@@@2@@Nan@@A 0000000180040150     OpaqueWrapper.obj
 0003:00003158       ?s_constructorTemplate@?$VectorViewWrapper@PE$AAVWiFiAvailableNetwork@WiFi@Devices@Windows@@@Collections@NodeRT@@0V?$Persistent@VFunctionTemplate@v8@@V?$NonCopyablePersistentTraits@VFunctionTemplate@v8@@@2@@Nan@@A 0000000180040158     _nodert_generated.obj
 0003:00003160       ?s_constructorTemplate@?$IteratorWrapper@PE$AAVWiFiAdapter@WiFi@Devices@Windows@@@Collections@NodeRT@@0V?$Persistent@VFunctionTemplate@v8@@V?$NonCopyablePersistentTraits@VFunctionTemplate@v8@@@2@@Nan@@A 0000000180040160     _nodert_generated.obj
 0003:00003168       __dyn_tls_init_callback    0000000180040168     <common>
 0005:00000000       __pobjectentryfirst        0000000180044000     vccorlib:init.obj
 0005:00000008       __pobjectentrymid          0000000180044008     vccorlib:init.obj
 0005:00000010       __pobjectentrylast         0000000180044010     vccorlib:init.obj
 0007:00000000       _tls_start                 0000000180046000     MSVCRT:tlssup.obj
 0007:00000004       _Init_thread_epoch         0000000180046004     MSVCRT:thread_safe_statics.obj
 0007:00000008       _tls_end                   0000000180046008     MSVCRT:tlssup.obj

 entry point at        0001:0002296c

 Static symbols

 0000:fffb7000       .debug$S                   0000000180000000     node:node.exe
 0000:fffb7000       .debug$S                   0000000180000000     node:node.exe
 0000:fffb7000       .debug$S                   0000000180000000     node:node.exe
 0000:fffb7000       .debug$S                   0000000180000000     node:node.exe
 0000:fffb7000       .debug$S                   0000000180000000     node:node.exe
 0000:fffb7000       .debug$S                   0000000180000000     node:node.exe
 0000:fffb7000       .debug$S                   0000000180000000     node:node.exe
 0000:fffb7000       .debug$S                   0000000180000000     node:node.exe
 0000:fffb7000       .debug$S                   0000000180000000     node:node.exe
 0000:fffb7000       .debug$S                   0000000180000000     node:node.exe
 0000:fffb7000       .debug$S                   0000000180000000     node:node.exe
 0000:fffb7000       .debug$S                   0000000180000000     node:node.exe
 0000:fffb7000       .debug$S                   0000000180000000     node:node.exe
 0000:fffb7000       .debug$S                   0000000180000000     node:node.exe
 0000:fffb7000       .debug$S                   0000000180000000     node:node.exe
 0000:fffb7000       .debug$S                   0000000180000000     node:node.exe
 0000:fffb7000       .debug$S                   0000000180000000     node:node.exe
 0000:fffb7000       .debug$S                   0000000180000000     node:node.exe
 0000:fffb7000       .debug$S                   0000000180000000     node:node.exe
 0000:fffb7000       .debug$S                   0000000180000000     node:node.exe
 0000:fffb7000       .debug$S                   0000000180000000     node:node.exe
 0000:fffb7000       .debug$S                   0000000180000000     node:node.exe
 0000:fffb7000       .debug$S                   0000000180000000     node:node.exe
 0000:fffb7000       .debug$S                   0000000180000000     node:node.exe
 0000:fffb7000       .debug$S                   0000000180000000     node:node.exe
 0000:fffb7000       .debug$S                   0000000180000000     node:node.exe
 0000:fffb7000       .debug$S                   0000000180000000     node:node.exe
 0000:fffb7000       .debug$S                   0000000180000000     node:node.exe
 0000:fffb7000       .debug$S                   0000000180000000     node:node.exe
 0000:fffb7000       .debug$S                   0000000180000000     node:node.exe
 0000:fffb7000       .debug$S                   0000000180000000     node:node.exe
 0000:fffb7000       .debug$S                   0000000180000000     node:node.exe
 0000:fffb7000       .debug$S                   0000000180000000     node:node.exe
 0000:fffb7000       .debug$S                   0000000180000000     node:node.exe
 0000:fffb7000       .debug$S                   0000000180000000     node:node.exe
 0000:fffb7000       .debug$S                   0000000180000000     node:node.exe
 0000:fffb7000       .debug$S                   0000000180000000     node:node.exe
 0000:fffb7000       .debug$S                   0000000180000000     node:node.exe
 0000:fffb7000       .debug$S                   0000000180000000     node:node.exe
 0000:fffb7000       .debug$S                   0000000180000000     node:node.exe
 0000:fffb7000       .debug$S                   0000000180000000     node:node.exe
 0000:fffb7000       .debug$S                   0000000180000000     node:node.exe
 0000:fffb7000       .debug$S                   0000000180000000     node:node.exe
 0000:fffb7000       .debug$S                   0000000180000000     node:node.exe
 0000:fffb7000       .debug$S                   0000000180000000     node:node.exe
 0000:fffb7000       .debug$S                   0000000180000000     node:node.exe
 0000:fffb7000       .debug$S                   0000000180000000     node:node.exe
 0000:fffb7000       .debug$S                   0000000180000000     node:node.exe
 0000:fffb7000       .debug$S                   0000000180000000     node:node.exe
 0000:fffb7000       .debug$S                   0000000180000000     node:node.exe
 0000:fffb7000       .debug$S                   0000000180000000     node:node.exe
 0000:fffb7000       .debug$S                   0000000180000000     node:node.exe
 0000:fffb7000       .debug$S                   0000000180000000     node:node.exe
 0000:fffb7000       .debug$S                   0000000180000000     node:node.exe
 0000:fffb7000       .debug$S                   0000000180000000     node:node.exe
 0000:fffb7000       .debug$S                   0000000180000000     node:node.exe
 0000:fffb7000       .debug$S                   0000000180000000     node:node.exe
 0000:fffb7000       .debug$S                   0000000180000000     node:node.exe
 0000:fffb7000       .debug$S                   0000000180000000     node:node.exe
 0000:fffb7000       .debug$S                   0000000180000000     node:node.exe
 0000:fffb7000       .debug$S                   0000000180000000     node:node.exe
 0000:fffb7000       .debug$S                   0000000180000000     node:node.exe
 0000:fffb7000       .debug$S                   0000000180000000     node:node.exe
 0000:fffb7000       .debug$S                   0000000180000000     node:node.exe
 0000:fffb7000       .debug$S                   0000000180000000     node:node.exe
 0000:fffb7000       .debug$S                   0000000180000000     node:node.exe
 0000:fffb7000       .debug$S                   0000000180000000     node:node.exe
 0000:fffb7000       .debug$S                   0000000180000000     node:node.exe
 0000:fffb7000       .debug$S                   0000000180000000     node:node.exe
 0000:fffb7000       .debug$S                   0000000180000000     node:node.exe
 0000:fffb7000       .debug$S                   0000000180000000     node:node.exe
 0000:fffb7000       .debug$S                   0000000180000000     node:node.exe
 0000:fffb7000       .debug$S                   0000000180000000     node:node.exe
 0000:fffb7000       .debug$S                   0000000180000000     node:node.exe
 0000:fffb7000       .debug$S                   0000000180000000     node:node.exe
 0000:fffb7000       .debug$S                   0000000180000000     node:node.exe
 0000:fffb7000       .debug$S                   0000000180000000     node:node.exe
 0000:fffb7000       .debug$S                   0000000180000000     node:node.exe
 0000:fffb7000       .debug$S                   0000000180000000     node:node.exe
 0000:fffb7000       .debug$S                   0000000180000000     node:node.exe
 0000:fffb7000       .debug$S                   0000000180000000     runtimeobject:api-ms-win-core-winrt-string-l1-1-0.dll
 0000:fffb7000       .debug$S                   0000000180000000     node:node.exe
 0000:fffb7000       .debug$S                   0000000180000000     node:node.exe
 0000:fffb7000       .debug$S                   0000000180000000     runtimeobject:api-ms-win-core-winrt-string-l1-1-0.dll
 0000:fffb7000       .debug$S                   0000000180000000     runtimeobject:api-ms-win-core-winrt-string-l1-1-0.dll
 0000:fffb7000       .debug$S                   0000000180000000     node:node.exe
 0000:fffb7000       .debug$S                   0000000180000000     runtimeobject:api-ms-win-core-winrt-string-l1-1-0.dll
 0000:fffb7000       .debug$S                   0000000180000000     node:node.exe
 0000:fffb7000       .debug$S                   0000000180000000     runtimeobject:api-ms-win-core-winrt-string-l1-1-0.dll
 0000:fffb7000       .debug$S                   0000000180000000     node:node.exe
 0000:fffb7000       .debug$S                   0000000180000000     runtimeobject:api-ms-win-core-winrt-string-l1-1-0.dll
 0000:fffb7000       .debug$S                   0000000180000000     node:node.exe
 0000:fffb7000       .debug$S                   0000000180000000     runtimeobject:api-ms-win-core-winrt-error-l1-1-0.dll
 0000:fffb7000       .debug$S                   0000000180000000     node:node.exe
 0000:fffb7000       .debug$S                   0000000180000000     runtimeobject:api-ms-win-core-winrt-error-l1-1-0.dll
 0000:fffb7000       .debug$S                   0000000180000000     node:node.exe
 0002:fffd8000       .idata$6                   0000000180000000     runtimeobject:api-ms-win-core-winrt-error-l1-1-0.dll
 0000:fffb7000       .debug$S                   0000000180000000     node:node.exe
 0000:fffb7000       .debug$S                   0000000180000000     node:node.exe
 0000:fffb7000       .debug$S                   0000000180000000     node:node.exe
 0000:fffb7000       .debug$S                   0000000180000000     node:node.exe
 0000:fffb7000       .debug$S                   0000000180000000     node:node.exe
 0000:fffb7000       .debug$S                   0000000180000000     node:node.exe
 0000:fffb7000       .debug$S                   0000000180000000     node:node.exe
 0000:fffb7000       .debug$S                   0000000180000000     node:node.exe
 0000:fffb7000       .debug$S                   0000000180000000     vccorlib:vccorlib140.DLL
 0000:fffb7000       .debug$S                   0000000180000000     vccorlib:vccorlib140.DLL
 0000:fffb7000       .debug$S                   0000000180000000     vccorlib:vccorlib140.DLL
 0000:fffb7000       .debug$S                   0000000180000000     vccorlib:vccorlib140.DLL
 0000:fffb7000       .debug$S                   0000000180000000     vccorlib:vccorlib140.DLL
 0000:fffb7000       .debug$S                   0000000180000000     vccorlib:vccorlib140.DLL
 0000:fffb7000       .debug$S                   0000000180000000     vccorlib:vccorlib140.DLL
 0000:fffb7000       .debug$S                   0000000180000000     ole32:ole32.dll
 0000:fffb7000       .debug$S                   0000000180000000     vccorlib:vccorlib140.DLL
 0000:fffb7000       .debug$S                   0000000180000000     vccorlib:vccorlib140.DLL
 0000:fffb7000       .debug$S                   0000000180000000     ole32:ole32.dll
 0000:fffb7000       .debug$S                   0000000180000000     vccorlib:vccorlib140.DLL
 0000:fffb7000       .debug$S                   0000000180000000     vccorlib:vccorlib140.DLL
 0000:fffb7000       .debug$S                   0000000180000000     vccorlib:vccorlib140.DLL
 0000:fffb7000       .debug$S                   0000000180000000     ole32:ole32.dll
 0000:fffb7000       .debug$S                   0000000180000000     vccorlib:vccorlib140.DLL
 0000:fffb7000       .debug$S                   0000000180000000     vccorlib:vccorlib140.DLL
 0000:fffb7000       .debug$S                   0000000180000000     vccorlib:vccorlib140.DLL
 0000:fffb7000       .debug$S                   0000000180000000     ole32:ole32.dll
 0000:fffb7000       .debug$S                   0000000180000000     ole32:ole32.dll
 0000:fffb7000       .debug$S                   0000000180000000     vccorlib:vccorlib140.DLL
 0000:fffb7000       .debug$S                   0000000180000000     vccorlib:vccorlib140.DLL
 0000:fffb7000       .debug$S                   0000000180000000     ole32:ole32.dll
 0000:fffb7000       .debug$S                   0000000180000000     vccorlib:vccorlib140.DLL
 0000:fffb7000       .debug$S                   0000000180000000     vccorlib:vccorlib140.DLL
 0000:fffb7000       .debug$S                   0000000180000000     kernel32:KERNEL32.dll
 0000:fffb7000       .debug$S                   0000000180000000     vccorlib:vccorlib140.DLL
 0000:fffb7000       .debug$S                   0000000180000000     vccorlib:vccorlib140.DLL
 0000:fffb7000       .debug$S                   0000000180000000     kernel32:KERNEL32.dll
 0000:fffb7000       .debug$S                   0000000180000000     vccorlib:vccorlib140.DLL
 0000:fffb7000       .debug$S                   0000000180000000     vccorlib:vccorlib140.DLL
 0000:fffb7000       .debug$S                   0000000180000000     kernel32:KERNEL32.dll
 0000:fffb7000       .debug$S                   0000000180000000     vccorlib:vccorlib140.DLL
 0000:fffb7000       .debug$S                   0000000180000000     vccorlib:vccorlib140.DLL
 0000:fffb7000       .debug$S                   0000000180000000     kernel32:KERNEL32.dll
 0000:fffb7000       .debug$S                   0000000180000000     vccorlib:vccorlib140.DLL
 0000:fffb7000       .debug$S                   0000000180000000     vccorlib:vccorlib140.DLL
 0000:fffb7000       .debug$S                   0000000180000000     vccorlib:vccorlib140.DLL
 0000:fffb7000       .debug$S                   0000000180000000     vccorlib:vccorlib140.DLL
 0000:fffb7000       .debug$S                   0000000180000000     kernel32:KERNEL32.dll
 0000:fffb7000       .debug$S                   0000000180000000     vccorlib:vccorlib140.DLL
 0000:fffb7000       .debug$S                   0000000180000000     vccorlib:vccorlib140.DLL
 0000:fffb7000       .debug$S                   0000000180000000     kernel32:KERNEL32.dll
 0000:fffb7000       .debug$S                   0000000180000000     kernel32:KERNEL32.dll
 0000:fffb7000       .debug$S                   0000000180000000     vccorlib:vccorlib140.DLL
 0000:fffb7000       .debug$S                   0000000180000000     kernel32:KERNEL32.dll
 0000:fffb7000       .debug$S                   0000000180000000     vccorlib:vccorlib140.DLL
 0000:fffb7000       .debug$S                   0000000180000000     kernel32:KERNEL32.dll
 0000:fffb7000       .debug$S                   0000000180000000     kernel32:KERNEL32.dll
 0000:fffb7000       .debug$S                   0000000180000000     vccorlib:vccorlib140.DLL
 0000:fffb7000       .debug$S                   0000000180000000     kernel32:KERNEL32.dll
 0000:fffb7000       .debug$S                   0000000180000000     vccorlib:vccorlib140.DLL
 0000:fffb7000       .debug$S                   0000000180000000     vccorlib:vccorlib140.DLL
 0000:fffb7000       .debug$S                   0000000180000000     vccorlib:vccorlib140.DLL
 0000:fffb7000       .debug$S                   0000000180000000     kernel32:KERNEL32.dll
 0000:fffb7000       .debug$S                   0000000180000000     vccorlib:vccorlib140.DLL
 0000:fffb7000       .debug$S                   0000000180000000     kernel32:KERNEL32.dll
 0000:fffb7000       .debug$S                   0000000180000000     kernel32:KERNEL32.dll
 0000:fffb7000       .debug$S                   0000000180000000     kernel32:KERNEL32.dll
 0000:fffb7000       .debug$S                   0000000180000000     msvcprt:MSVCP140.dll
 0000:fffb7000       .debug$S                   0000000180000000     msvcprt:MSVCP140.dll
 0000:fffb7000       .debug$S                   0000000180000000     kernel32:KERNEL32.dll
 0000:fffb7000       .debug$S                   0000000180000000     msvcprt:MSVCP140.dll
 0000:fffb7000       .debug$S                   0000000180000000     msvcprt:MSVCP140.dll
 0000:fffb7000       .debug$S                   0000000180000000     kernel32:KERNEL32.dll
 0000:fffb7000       .debug$S                   0000000180000000     msvcprt:MSVCP140.dll
 0000:fffb7000       .debug$S                   0000000180000000     msvcprt:MSVCP140.dll
 0000:fffb7000       .debug$S                   0000000180000000     msvcprt:MSVCP140.dll
 0000:fffb7000       .debug$S                   0000000180000000     kernel32:KERNEL32.dll
 0000:fffb7000       .debug$S                   0000000180000000     msvcprt:MSVCP140.dll
 0000:fffb7000       .debug$S                   0000000180000000     kernel32:KERNEL32.dll
 0000:fffb7000       .debug$S                   0000000180000000     msvcprt:MSVCP140.dll
 0000:fffb7000       .debug$S                   0000000180000000     msvcprt:MSVCP140.dll
 0000:fffb7000       .debug$S                   0000000180000000     kernel32:KERNEL32.dll
 0000:fffb7000       .debug$S                   0000000180000000     msvcprt:MSVCP140.dll
 0000:fffb7000       .debug$S                   0000000180000000     kernel32:KERNEL32.dll
 0000:fffb7000       .debug$S                   0000000180000000     msvcprt:MSVCP140.dll
 0000:fffb7000       .debug$S                   0000000180000000     kernel32:KERNEL32.dll
 0000:fffb7000       .debug$S                   0000000180000000     msvcprt:MSVCP140.dll
 0000:fffb7000       .debug$S                   0000000180000000     msvcprt:MSVCP140.dll
 0000:fffb7000       .debug$S                   0000000180000000     msvcprt:MSVCP140.dll
 0000:fffb7000       .debug$S                   0000000180000000     msvcprt:MSVCP140.dll
 0000:fffb7000       .debug$S                   0000000180000000     msvcprt:MSVCP140.dll
 0000:fffb7000       .debug$S                   0000000180000000     msvcprt:MSVCP140.dll
 0000:fffb7000       .debug$S                   0000000180000000     kernel32:KERNEL32.dll
 0000:fffb7000       .debug$S                   0000000180000000     msvcprt:MSVCP140.dll
 0000:fffb7000       .debug$S                   0000000180000000     msvcprt:MSVCP140.dll
 0000:fffb7000       .debug$S                   0000000180000000     kernel32:KERNEL32.dll
 0000:fffb7000       .debug$S                   0000000180000000     msvcprt:MSVCP140.dll
 0000:fffb7000       .debug$S                   0000000180000000     msvcprt:MSVCP140.dll
 0000:fffb7000       .debug$S                   0000000180000000     kernel32:KERNEL32.dll
 0000:fffb7000       .debug$S                   0000000180000000     msvcprt:MSVCP140.dll
 0000:fffb7000       .debug$S                   0000000180000000     msvcprt:MSVCP140.dll
 0000:fffb7000       .debug$S                   0000000180000000     kernel32:KERNEL32.dll
 0000:fffb7000       .debug$S                   0000000180000000     msvcprt:MSVCP140.dll
 0000:fffb7000       .debug$S                   0000000180000000     msvcprt:MSVCP140.dll
 0000:fffb7000       .debug$S                   0000000180000000     kernel32:KERNEL32.dll
 0000:fffb7000       .debug$S                   0000000180000000     msvcprt:MSVCP140.dll
 0000:fffb7000       .debug$S                   0000000180000000     kernel32:KERNEL32.dll
 0000:fffb7000       .debug$S                   0000000180000000     msvcprt:MSVCP140.dll
 0000:fffb7000       .debug$S                   0000000180000000     kernel32:KERNEL32.dll
 0000:fffb7000       .debug$S                   0000000180000000     msvcprt:MSVCP140.dll
 0000:fffb7000       .debug$S                   0000000180000000     msvcprt:MSVCP140.dll
 0000:fffb7000       .debug$S                   0000000180000000     kernel32:KERNEL32.dll
 0000:fffb7000       .debug$S                   0000000180000000     msvcprt:MSVCP140.dll
 0000:fffb7000       .debug$S                   0000000180000000     msvcprt:MSVCP140.dll
 0000:fffb7000       .debug$S                   0000000180000000     msvcprt:MSVCP140.dll
 0000:fffb7000       .debug$S                   0000000180000000     kernel32:KERNEL32.dll
 0000:fffb7000       .debug$S                   0000000180000000     msvcprt:MSVCP140.dll
 0000:fffb7000       .debug$S                   0000000180000000     msvcprt:MSVCP140.dll
 0000:fffb7000       .debug$S                   0000000180000000     kernel32:KERNEL32.dll
 0000:fffb7000       .debug$S                   0000000180000000     msvcprt:MSVCP140.dll
 0000:fffb7000       .debug$S                   0000000180000000     msvcprt:MSVCP140.dll
 0000:fffb7000       .debug$S                   0000000180000000     msvcprt:MSVCP140.dll
 0000:fffb7000       .debug$S                   0000000180000000     kernel32:KERNEL32.dll
 0000:fffb7000       .debug$S                   0000000180000000     kernel32:KERNEL32.dll
 0000:fffb7000       .debug$S                   0000000180000000     kernel32:KERNEL32.dll
 0000:fffb7000       .debug$S                   0000000180000000     kernel32:KERNEL32.dll
 0000:fffb7000       .debug$S                   0000000180000000     kernel32:KERNEL32.dll
 0000:fffb7000       .debug$S                   0000000180000000     kernel32:KERNEL32.dll
 0000:fffb7000       .debug$S                   0000000180000000     binding.exp
 0000:fffb7000       .debug$S                   0000000180000000     vcruntime:VCRUNTIME140.dll
 0000:fffb7000       .debug$S                   0000000180000000     vcruntime:VCRUNTIME140.dll
 0000:fffb7000       .debug$S                   0000000180000000     vcruntime:VCRUNTIME140.dll
 0000:fffb7000       .debug$S                   0000000180000000     vcruntime:VCRUNTIME140.dll
 0000:fffb7000       .debug$S                   0000000180000000     vcruntime:VCRUNTIME140.dll
 0000:fffb7000       .debug$S                   0000000180000000     vcruntime:VCRUNTIME140.dll
 0000:fffb7000       .debug$S                   0000000180000000     vcruntime:VCRUNTIME140.dll
 0000:fffb7000       .debug$S                   0000000180000000     vcruntime:VCRUNTIME140.dll
 0000:fffb7000       .debug$S                   0000000180000000     vcruntime:VCRUNTIME140.dll
 0000:fffb7000       .debug$S                   0000000180000000     vcruntime:VCRUNTIME140.dll
 0000:fffb7000       .debug$S                   0000000180000000     vcruntime:VCRUNTIME140.dll
 0000:fffb7000       .debug$S                   0000000180000000     vcruntime:VCRUNTIME140.dll
 0000:fffb7000       .debug$S                   0000000180000000     ucrt:api-ms-win-crt-string-l1-1-0.dll
 0000:fffb7000       .debug$S                   0000000180000000     ucrt:api-ms-win-crt-string-l1-1-0.dll
 0000:fffb7000       .debug$S                   0000000180000000     ucrt:api-ms-win-crt-string-l1-1-0.dll
 0000:fffb7000       .debug$S                   0000000180000000     ucrt:api-ms-win-crt-runtime-l1-1-0.dll
 0000:fffb7000       .debug$S                   0000000180000000     ucrt:api-ms-win-crt-runtime-l1-1-0.dll
 0000:fffb7000       .debug$S                   0000000180000000     ucrt:api-ms-win-crt-runtime-l1-1-0.dll
 0000:fffb7000       .debug$S                   0000000180000000     ucrt:api-ms-win-crt-runtime-l1-1-0.dll
 0000:fffb7000       .debug$S                   0000000180000000     ucrt:api-ms-win-crt-runtime-l1-1-0.dll
 0000:fffb7000       .debug$S                   0000000180000000     ucrt:api-ms-win-crt-runtime-l1-1-0.dll
 0000:fffb7000       .debug$S                   0000000180000000     ucrt:api-ms-win-crt-runtime-l1-1-0.dll
 0000:fffb7000       .debug$S                   0000000180000000     ucrt:api-ms-win-crt-runtime-l1-1-0.dll
 0000:fffb7000       .debug$S                   0000000180000000     ucrt:api-ms-win-crt-runtime-l1-1-0.dll
 0000:fffb7000       .debug$S                   0000000180000000     ucrt:api-ms-win-crt-runtime-l1-1-0.dll
 0000:fffb7000       .debug$S                   0000000180000000     ucrt:api-ms-win-crt-runtime-l1-1-0.dll
 0000:fffb7000       .debug$S                   0000000180000000     ucrt:api-ms-win-crt-runtime-l1-1-0.dll
 0000:fffb7000       .debug$S                   0000000180000000     ucrt:api-ms-win-crt-runtime-l1-1-0.dll
 0000:fffb7000       .debug$S                   0000000180000000     ucrt:api-ms-win-crt-runtime-l1-1-0.dll
 0000:fffb7000       .debug$S                   0000000180000000     ucrt:api-ms-win-crt-runtime-l1-1-0.dll
 0000:fffb7000       .debug$S                   0000000180000000     ucrt:api-ms-win-crt-heap-l1-1-0.dll
 0000:fffb7000       .debug$S                   0000000180000000     ucrt:api-ms-win-crt-heap-l1-1-0.dll
 0000:fffb7000       .debug$S                   0000000180000000     ucrt:api-ms-win-crt-heap-l1-1-0.dll
 0000:fffb7000       .debug$S                   0000000180000000     node:node.exe
 0001:00000000       ??__Eg_keyProp@Collections@NodeRT@@YAXXZ 0000000180001000 f   _nodert_generated.obj
 0001:00000010       ??__Eg_valueProp@Collections@NodeRT@@YAXXZ 0000000180001010 f   _nodert_generated.obj
 0001:00000020       ??__EcheckStringFunc@Collections@NodeRT@@YAXXZ 0000000180001020 f   _nodert_generated.obj
 0001:00000070       ??__E?s_constructorTemplate@WiFiAdapter@WiFi@Devices@Windows@NodeRT@@0V?$Persistent@VFunctionTemplate@v8@@V?$NonCopyablePersistentTraits@VFunctionTemplate@v8@@@2@@Nan@@A@@YAXXZ 0000000180001070 f   _nodert_generated.obj
 0001:00000080       ??__E?s_constructorTemplate@WiFiNetworkReport@WiFi@Devices@Windows@NodeRT@@0V?$Persistent@VFunctionTemplate@v8@@V?$NonCopyablePersistentTraits@VFunctionTemplate@v8@@@2@@Nan@@A@@YAXXZ 0000000180001080 f   _nodert_generated.obj
 0001:00000090       ??__E?s_constructorTemplate@WiFiAvailableNetwork@WiFi@Devices@Windows@NodeRT@@0V?$Persistent@VFunctionTemplate@v8@@V?$NonCopyablePersistentTraits@VFunctionTemplate@v8@@@2@@Nan@@A@@YAXXZ 0000000180001090 f   _nodert_generated.obj
 0001:000000a0       ??__E?s_constructorTemplate@WiFiConnectionResult@WiFi@Devices@Windows@NodeRT@@0V?$Persistent@VFunctionTemplate@v8@@V?$NonCopyablePersistentTraits@VFunctionTemplate@v8@@@2@@Nan@@A@@YAXXZ 00000001800010a0 f   _nodert_generated.obj
 0001:000000b0       ??__E?s_constructorTemplate@OpaqueWrapper@NodeRT@@0V?$Persistent@VFunctionTemplate@v8@@V?$NonCopyablePersistentTraits@VFunctionTemplate@v8@@@2@@Nan@@A@@YAXXZ 00000001800010b0 f   OpaqueWrapper.obj
 0001:000000bc       ??__Emodule_@Details@Platform@@YAXXZ 00000001800010bc f   vccorlib:init.obj
 0001:000006f0       ?FunctionCallbackWrapper@imp@Nan@@YAXAEBV?$FunctionCallbackInfo@VValue@v8@@@v8@@@Z 00000001800016f0 f   _nodert_generated.obj
 0001:000007a0       ?GetterCallbackWrapper@imp@Nan@@YAXV?$Local@VName@v8@@@v8@@AEBV?$PropertyCallbackInfo@VValue@v8@@@4@@Z 00000001800017a0 f   _nodert_generated.obj
 0001:00000850       ?IndexGetterCallbackWrapper@imp@Nan@@YAXIAEBV?$PropertyCallbackInfo@VValue@v8@@@v8@@@Z 0000000180001850 f   _nodert_generated.obj
 0001:00003290       ??R<lambda_be3e5d9dce35d2c8dbfa8485373731d5>@@QEBAXXZ 0000000180004290 f   _nodert_generated.obj
 0001:00003550       ??R<lambda_ee2800ccd2b011420c5de0c63356449b>@@QEBAXXZ 0000000180004550 f   _nodert_generated.obj
 0001:00003a40       ??1<lambda_be3e5d9dce35d2c8dbfa8485373731d5>@@QEAA@XZ 0000000180004a40 f   _nodert_generated.obj
 0001:000040b0       ??R<lambda_1af583cf6945007177c61d87505abd8e>@@QEBAXHPEAV?$Local@VValue@v8@@@v8@@@Z 00000001800050b0 f   _nodert_generated.obj
 0001:00004170       ??R<lambda_fc55a96778b695da9907353a9fdacbca>@@QEBAXXZ 0000000180005170 f   _nodert_generated.obj
 0001:00004590       ??1<lambda_fc55a96778b695da9907353a9fdacbca>@@QEAA@XZ 0000000180005590 f   _nodert_generated.obj
 0001:00004600       ?InitWiFiNetworkKindEnum@WiFi@Devices@Windows@NodeRT@@YAXV?$Local@VObject@v8@@@v8@@@Z 0000000180005600 f   _nodert_generated.obj
 0001:00004810       ?InitWiFiPhyKindEnum@WiFi@Devices@Windows@NodeRT@@YAXV?$Local@VObject@v8@@@v8@@@Z 0000000180005810 f   _nodert_generated.obj
 0001:00004d80       ?InitWiFiAccessStatusEnum@WiFi@Devices@Windows@NodeRT@@YAXV?$Local@VObject@v8@@@v8@@@Z 0000000180005d80 f   _nodert_generated.obj
 0001:00005010       ?InitWiFiReconnectionKindEnum@WiFi@Devices@Windows@NodeRT@@YAXV?$Local@VObject@v8@@@v8@@@Z 0000000180006010 f   _nodert_generated.obj
 0001:000051a0       ?InitWiFiConnectionStatusEnum@WiFi@Devices@Windows@NodeRT@@YAXV?$Local@VObject@v8@@@v8@@@Z 00000001800061a0 f   _nodert_generated.obj
 0001:000063f0       ??R<lambda_196da8969df2293b3f20f1c35ff63462>@@QEBAXV?$task@X@Concurrency@@@Z 00000001800073f0 f   _nodert_generated.obj
 0001:000064e0       ??R<lambda_575df78f75be6e56c3c6d6f2c13351d7>@@QEBAXV?$function@$$A6AXHPEAV?$Local@VValue@v8@@@v8@@@Z@std@@@Z 00000001800074e0 f   _nodert_generated.obj
 0001:00006560       ??R<lambda_4710f5c52dcf42bd02a362ab04da0053>@@QEBAXV?$function@$$A6AXHPEAV?$Local@VValue@v8@@@v8@@@Z@std@@@Z 0000000180007560 f   _nodert_generated.obj
 0001:00006560       ??R<lambda_e04973e34d302f1e2fca91b511fcd8c7>@@QEBAXV?$function@$$A6AXHPEAV?$Local@VValue@v8@@@v8@@@Z@std@@@Z 0000000180007560 f   _nodert_generated.obj
 0001:00006560       ??R<lambda_4bc90cab6583626e4c84cccfde14d85d>@@QEBAXV?$function@$$A6AXHPEAV?$Local@VValue@v8@@@v8@@@Z@std@@@Z 0000000180007560 f   _nodert_generated.obj
 0001:00006560       ??R<lambda_be4c867425d6e703fe2514969f90995f>@@QEBAXV?$function@$$A6AXHPEAV?$Local@VValue@v8@@@v8@@@Z@std@@@Z 0000000180007560 f   _nodert_generated.obj
 0001:00006560       ??R<lambda_bc0731c9a3566f45332d953ae2092d1f>@@QEBAXV?$function@$$A6AXHPEAV?$Local@VValue@v8@@@v8@@@Z@std@@@Z 0000000180007560 f   _nodert_generated.obj
 0001:00006ed0       ??R<lambda_dbe8bba2fdc06b28517f8829416a6436>@@QEBAXV?$task@PE$AAVWiFiConnectionResult@WiFi@Devices@Windows@@@Concurrency@@@Z 0000000180007ed0 f   _nodert_generated.obj
 0001:00006fe0       ??R<lambda_3c9564ace928a5325045d5dafda92950>@@QEBAXV?$function@$$A6AXHPEAV?$Local@VValue@v8@@@v8@@@Z@std@@@Z 0000000180007fe0 f   _nodert_generated.obj
 0001:000074d0       ??R<lambda_45bc1edc407ccfe1fa050aed513212a8>@@QEBAXV?$task@PE$AAU?$IVectorView@PE$AAVWiFiAdapter@WiFi@Devices@Windows@@@Collections@Foundation@Windows@@@Concurrency@@@Z 00000001800084d0 f   _nodert_generated.obj
 0001:000075e0       ??R<lambda_bae4d4148c38c83d04c701f5e686a80e>@@QEBAXV?$function@$$A6AXHPEAV?$Local@VValue@v8@@@v8@@@Z@std@@@Z 00000001800085e0 f   _nodert_generated.obj
 0001:00007bb0       ??R<lambda_e03a7ec937e836cf062062cbea779d3e>@@QEBAXV?$task@PE$AAVWiFiAdapter@WiFi@Devices@Windows@@@Concurrency@@@Z 0000000180008bb0 f   _nodert_generated.obj
 0001:00007cc0       ??R<lambda_7c83662bc24fcfe269da27ef98721e5f>@@QEBAXV?$function@$$A6AXHPEAV?$Local@VValue@v8@@@v8@@@Z@std@@@Z 0000000180008cc0 f   _nodert_generated.obj
 0001:000080b0       ??R<lambda_b35fdbc63eaf6c602f1361040fea34ad>@@QEBAXV?$task@W4WiFiAccessStatus@WiFi@Devices@Windows@@@Concurrency@@@Z 00000001800090b0 f   _nodert_generated.obj
 0001:000081b0       ??R<lambda_d61d618acd042cb6be448c47bd6dda04>@@QEBAXV?$function@$$A6AXHPEAV?$Local@VValue@v8@@@v8@@@Z@std@@@Z 00000001800091b0 f   _nodert_generated.obj
 0001:00008c90       ??R<lambda_6e21da2768ea61b27f3b85c7b781b2f7>@@QEBAXPE$AAVWiFiAdapter@WiFi@Devices@Windows@@PE$AAVObject@Platform@@@Z 0000000180009c90 f   _nodert_generated.obj
 0001:00008db0       ??R<lambda_2de1eaeeb1391f2030b03d1ef75d3eb0>@@QEBAXXZ 0000000180009db0 f   _nodert_generated.obj
 0001:00009550       ??1<lambda_2de1eaeeb1391f2030b03d1ef75d3eb0>@@QEAA@XZ 000000018000a550 f   _nodert_generated.obj
 0001:000095d0       ??1<lambda_6e21da2768ea61b27f3b85c7b781b2f7>@@QEAA@XZ 000000018000a5d0 f   _nodert_generated.obj
 0001:000095d0       ??1<lambda_585ed612c2d693254ec4a52eb6b5009a>@@QEAA@XZ 000000018000a5d0 f   _nodert_generated.obj
 0001:000095d0       ??1<lambda_cc9b10b2bfbca148cbf6cbf67ef94e36>@@QEAA@XZ 000000018000a5d0 f   _nodert_generated.obj
 0001:000095d0       ??1<lambda_bd36e4550c07aa6279a00ca606e5e690>@@QEAA@XZ 000000018000a5d0 f   _nodert_generated.obj
 0001:000095d0       ??1<lambda_db80035d952e9a216ce91aaae9489895>@@QEAA@XZ 000000018000a5d0 f   _nodert_generated.obj
 0001:000095d0       ??1<lambda_1be61911d0911224a6a5e596bb6a6971>@@QEAA@XZ 000000018000a5d0 f   _nodert_generated.obj
 0001:0000c730       _register_binding          000000018000d730 f   _nodert_generated.obj
 0001:0000ef00       ??1<lambda_af8508c7722addee579d0ffcec46034b>@@QEAA@XZ 000000018000ff00 f   _nodert_generated.obj
 0001:00015170       ??R<lambda_db80035d952e9a216ce91aaae9489895>@@QEAAXPE$AAU?$IAsyncOperation@E@Foundation@Windows@@W4AsyncStatus@23@@Z 0000000180016170 f   _nodert_generated.obj
 0001:0001a000       ??R<lambda_fabbb294be36e42af330e23943182f39>@@QEBAEV?$task@W4WiFiAccessStatus@WiFi@Devices@Windows@@@Concurrency@@@Z 000000018001b000 f   _nodert_generated.obj
 0001:0001a120       ??R<lambda_6d9be390a0d0310de9e6f9a11a95eeaf>@@QEBAEV?$task@PE$AAVWiFiAdapter@WiFi@Devices@Windows@@@Concurrency@@@Z 000000018001b120 f   _nodert_generated.obj
 0001:0001a240       ??R<lambda_85765119efc67a7064e73cc055ab740f>@@QEBAEV?$task@PE$AAU?$IVectorView@PE$AAVWiFiAdapter@WiFi@Devices@Windows@@@Collections@Foundation@Windows@@@Concurrency@@@Z 000000018001b240 f   _nodert_generated.obj
 0001:0001a360       ??R<lambda_2ebdab9cc8d71a78c6d6e5d0333b6c35>@@QEBAEV?$task@PE$AAVWiFiConnectionResult@WiFi@Devices@Windows@@@Concurrency@@@Z 000000018001b360 f   _nodert_generated.obj
 0001:0001a480       ??R<lambda_d4a8bb1d3b7ec2bea7766c2745f0ce11>@@QEBAEV?$task@X@Concurrency@@@Z 000000018001b480 f   _nodert_generated.obj
 0001:0001a520       ??1<lambda_fabbb294be36e42af330e23943182f39>@@QEAA@XZ 000000018001b520 f   _nodert_generated.obj
 0001:0001a580       ??1<lambda_6d9be390a0d0310de9e6f9a11a95eeaf>@@QEAA@XZ 000000018001b580 f   _nodert_generated.obj
 0001:0001a5e0       ??1<lambda_85765119efc67a7064e73cc055ab740f>@@QEAA@XZ 000000018001b5e0 f   _nodert_generated.obj
 0001:0001a640       ??1<lambda_2ebdab9cc8d71a78c6d6e5d0333b6c35>@@QEAA@XZ 000000018001b640 f   _nodert_generated.obj
 0001:0001a6a0       ??1<lambda_d4a8bb1d3b7ec2bea7766c2745f0ce11>@@QEAA@XZ 000000018001b6a0 f   _nodert_generated.obj
 0001:0001c3e0       ??R<lambda_bd36e4550c07aa6279a00ca606e5e690>@@QEAAXPE$AAU?$IAsyncOperation@W4WiFiAccessStatus@WiFi@Devices@Windows@@@Foundation@Windows@@W4AsyncStatus@23@@Z 000000018001d3e0 f   _nodert_generated.obj
 0001:0001c760       ??R<lambda_cc9b10b2bfbca148cbf6cbf67ef94e36>@@QEAAXPE$AAU?$IAsyncOperation@PE$AAVWiFiAdapter@WiFi@Devices@Windows@@@Foundation@Windows@@W4AsyncStatus@23@@Z 000000018001d760 f   _nodert_generated.obj
 0001:0001c760       ??R<lambda_1be61911d0911224a6a5e596bb6a6971>@@QEAAXPE$AAU?$IAsyncOperation@PE$AAVWiFiConnectionResult@WiFi@Devices@Windows@@@Foundation@Windows@@W4AsyncStatus@23@@Z 000000018001d760 f   _nodert_generated.obj
 0001:0001cae0       ??R<lambda_585ed612c2d693254ec4a52eb6b5009a>@@QEAAXPE$AAU?$IAsyncOperation@PE$AAU?$IVectorView@PE$AAVWiFiAdapter@WiFi@Devices@Windows@@@Collections@Foundation@Windows@@@Foundation@Windows@@W4AsyncStatus@23@@Z 000000018001dae0 f   _nodert_generated.obj
 0001:0001f890       ??0<lambda_2de1eaeeb1391f2030b03d1ef75d3eb0>@@QEAA@$$QEAV0@@Z 0000000180020890 f   _nodert_generated.obj
 0001:0001fc90       ??0<lambda_2de1eaeeb1391f2030b03d1ef75d3eb0>@@QEAA@AEBV0@@Z 0000000180020c90 f   _nodert_generated.obj
 0001:0001fd10       ??0<lambda_fc55a96778b695da9907353a9fdacbca>@@QEAA@AEBV0@@Z 0000000180020d10 f   _nodert_generated.obj
 0001:000214e0       ?load_exe_hook@@YAP6A_JXZIPEAUDelayLoadInfo@@@Z 00000001800224e0 f   win_delay_load_hook.obj
 0001:00021d10       $$000000                   0000000180022d10     MSVCRT:_amdsecgs_.obj
 0001:00021d4c       ?__scrt_initialize_thread_safe_statics@@YAHXZ 0000000180022d4c f   MSVCRT:thread_safe_statics.obj
 0001:00021e6c       ?__scrt_uninitialize_thread_safe_statics@@YAXXZ 0000000180022e6c f   MSVCRT:thread_safe_statics.obj
 0001:000225ac       capture_previous_context   00000001800235ac f   MSVCRT:gs_report.obj
 0001:00022620       ?dllmain_crt_dispatch@@YAHQEAUHINSTANCE__@@KQEAX@Z 0000000180023620 f   MSVCRT:dll_dllmain.obj
 0001:00022670       ?dllmain_crt_process_attach@@YAHQEAUHINSTANCE__@@QEAX@Z 0000000180023670 f   MSVCRT:dll_dllmain.obj
 0001:0002279c       ?dllmain_crt_process_detach@@YAH_N@Z 000000018002379c f   MSVCRT:dll_dllmain.obj
 0001:00022820       ?dllmain_dispatch@@YAHQEAUHINSTANCE__@@KQEAX@Z 0000000180023820 f   MSVCRT:dll_dllmain.obj
 0001:00022918       ?dllmain_raw@@YAHQEAUHINSTANCE__@@KQEAX@Z 0000000180023918 f   MSVCRT:dll_dllmain.obj
 0001:000238c0       $$000000                   00000001800248c0     MSVCRT:_guard_dispatch_.obj
 0001:000238e0       ?dtor$0@?0??_Copy_exception@exception_ptr@std@@SA?AV12@PEAXPEBX@Z@4HA 00000001800248e0 f   _nodert_generated.obj
 0001:000238f0       ?dtor$0@?0??convert@?$ToFactory@H@imp@Nan@@SA?AV?$Maybe@H@v8@@V?$Local@VValue@v8@@@5@@Z@4HA 00000001800248f0 f   _nodert_generated.obj
 0001:000238f0       ?dtor$0@?0??Has@Nan@@YA?AV?$Maybe@_N@v8@@V?$Local@VObject@v8@@@3@V?$Local@VString@v8@@@3@@Z@4HA 00000001800248f0 f   NodeRtUtils.obj
 0001:000238f0       ?dtor$0@?0??Equals@Nan@@YA?AV?$Maybe@_N@v8@@V?$Local@VValue@v8@@@3@0@Z@4HA 00000001800248f0 f   _nodert_generated.obj
 0001:000238f0       ?dtor$0@?0??Delete@Nan@@YA?AV?$Maybe@_N@v8@@V?$Local@VObject@v8@@@3@V?$Local@VString@v8@@@3@@Z@4HA 00000001800248f0 f   _nodert_generated.obj
 0001:000238f0       ?dtor$0@?0??SetPrototype@Nan@@YA?AV?$Maybe@_N@v8@@V?$Local@VObject@v8@@@3@V?$Local@VValue@v8@@@3@@Z@4HA 00000001800248f0 f   _nodert_generated.obj
 0001:00023900       ?dtor$0@?0??NewInstance@Nan@@YA?AV?$MaybeLocal@VObject@v8@@@v8@@V?$Local@VFunction@v8@@@3@HQEAV?$Local@VValue@v8@@@3@@Z@4HA 0000000180024900 f   _nodert_generated.obj
 0001:00023910       ?dtor$0@?0??convert@?$ToFactory@VInteger@v8@@@imp@Nan@@SA?AV?$MaybeLocal@VInteger@v8@@@v8@@V?$Local@VValue@v8@@@5@@Z@4HA 0000000180024910 f   _nodert_generated.obj
 0001:00023910       ?dtor$0@?0??NewInstance@Nan@@YA?AV?$MaybeLocal@VObject@v8@@@v8@@V?$Local@VObjectTemplate@v8@@@3@@Z@4HA 0000000180024910 f   _nodert_generated.obj
 0001:00023910       ?dtor$0@?0??convert@?$ToFactory@VObject@v8@@@imp@Nan@@SA?AV?$MaybeLocal@VObject@v8@@@v8@@V?$Local@VValue@v8@@@5@@Z@4HA 0000000180024910 f   _nodert_generated.obj
 0001:00023910       ?dtor$0@?0??Get@Nan@@YA?AV?$MaybeLocal@VValue@v8@@@v8@@V?$Local@VObject@v8@@@3@V?$Local@VValue@v8@@@3@@Z@4HA 0000000180024910 f   _nodert_generated.obj
 0001:00023910       ?dtor$0@?0??convert@?$ToFactory@VString@v8@@@imp@Nan@@SA?AV?$MaybeLocal@VString@v8@@@v8@@V?$Local@VValue@v8@@@5@@Z@4HA 0000000180024910 f   _nodert_generated.obj
 0001:00023910       ?dtor$0@?0??New@?$Factory@VDate@v8@@@imp@Nan@@SA?AV?$MaybeLocal@VDate@v8@@@v8@@N@Z@4HA 0000000180024910 f   NodeRtUtils.obj
 0001:00023910       ?dtor$0@?0??GetFunction@Nan@@YA?AV?$MaybeLocal@VFunction@v8@@@v8@@V?$Local@VFunctionTemplate@v8@@@3@@Z@4HA 0000000180024910 f   _nodert_generated.obj
 0001:00023920       ?dtor$0@?0??ForceSet@Nan@@YA?AV?$Maybe@_N@v8@@V?$Local@VObject@v8@@@3@V?$Local@VValue@v8@@@3@1W4PropertyAttribute@3@@Z@4HA 0000000180024920 f   NodeRtUtils.obj
 0001:00023920       ?dtor$0@?0??Set@Nan@@YA?AV?$Maybe@_N@v8@@V?$Local@VObject@v8@@@3@V?$Local@VValue@v8@@@3@1@Z@4HA 0000000180024920 f   _nodert_generated.obj
 0001:00023930       ?dtor$0@?0??New@?$Factory@VFunctionTemplate@v8@@@imp@Nan@@SA?AV?$Local@VFunctionTemplate@v8@@@v8@@P6AXAEBV?$FunctionCallbackInfo@VValue@v8@@@3@@ZV?$Local@VValue@v8@@@5@V?$Local@VSignature@v8@@@5@@Z@4HA 0000000180024930 f   _nodert_generated.obj
 0001:00023940       ?dtor$0@?0??RegisterNameSpace@Utils@NodeRT@@YAXPEBDV?$Local@VValue@v8@@@v8@@@Z@4HA 0000000180024940 f   NodeRtUtils.obj
 0001:00023940       ?dtor$0@?0???$SetMethod@VObject@v8@@VLocal@2@@Nan@@YAXV?$Local@VObject@v8@@@v8@@PEBDP6AXAEBV?$FunctionCallbackInfo@VValue@v8@@@0@@Z@Z@4HA 0000000180024940 f   _nodert_generated.obj
 0001:00023940       ?dtor$0@?0??SetPrototypeMethod@Nan@@YAXV?$Local@VFunctionTemplate@v8@@@v8@@PEBDP6AXAEBV?$FunctionCallbackInfo@VValue@v8@@@1@@Z@Z@4HA 0000000180024940 f   _nodert_generated.obj
 0001:00023950       ?dtor$0@?0??SetAccessor@Nan@@YAXV?$Local@VObjectTemplate@v8@@@v8@@V?$Local@VString@v8@@@3@P6AX1AEBV?$PropertyCallbackInfo@VValue@v8@@@1@@ZP6AX1V?$Local@VValue@v8@@@3@AEBV?$PropertyCallbackInfo@X@1@@Z4W4AccessControl@3@W4PropertyAttribute@3@V?$Local@VAccessorSignature@v8@@@3@@Z@4HA 0000000180024950 f   _nodert_generated.obj
 0001:00023960       ?dtor$0@?0??WrapWiFiAdapter@WiFi@Devices@Windows@NodeRT@@YA?AV?$Local@VValue@v8@@@v8@@PE$AAVWiFiAdapter@123@@Z@4HA 0000000180024960 f   _nodert_generated.obj
 0001:00023960       ?dtor$0@?0??WrapWiFiAvailableNetwork@WiFi@Devices@Windows@NodeRT@@YA?AV?$Local@VValue@v8@@@v8@@PE$AAVWiFiAvailableNetwork@123@@Z@4HA 0000000180024960 f   _nodert_generated.obj
 0001:00023960       ?dtor$0@?0??WrapWiFiNetworkReport@WiFi@Devices@Windows@NodeRT@@YA?AV?$Local@VValue@v8@@@v8@@PE$AAVWiFiNetworkReport@123@@Z@4HA 0000000180024960 f   _nodert_generated.obj
 0001:00023960       ?dtor$0@?0??WrapWiFiConnectionResult@WiFi@Devices@Windows@NodeRT@@YA?AV?$Local@VValue@v8@@@v8@@PE$AAVWiFiConnectionResult@123@@Z@4HA 0000000180024960 f   _nodert_generated.obj
 0001:00023960       ?dtor$0@?0??SetIndexedPropertyHandler@Nan@@YAXV?$Local@VObjectTemplate@v8@@@v8@@P6AXIAEBV?$PropertyCallbackInfo@VValue@v8@@@1@@ZP6AXIV?$Local@VValue@v8@@@3@1@ZP6AXIAEBV?$PropertyCallbackInfo@VInteger@v8@@@1@@ZP6AXIAEBV?$PropertyCallbackInfo@VBoolean@v8@@@1@@ZP6AXAEBV?$PropertyCallbackInfo@VArray@v8@@@1@@Z3@Z@4HA 0000000180024960 f   _nodert_generated.obj
 0001:00023970       ?dtor$0@?0??_Callback@_PPLTaskChore@_DefaultPPLTaskScheduler@details@Concurrency@@CAXPEAX@Z@4HA 0000000180024970 f   _nodert_generated.obj
 0001:00023980       ?dtor$1@?0??schedule@_DefaultPPLTaskScheduler@details@Concurrency@@UEAAXP6AXPEAX@Z0@Z@4HA 0000000180024980 f   _nodert_generated.obj
 0001:00023980       ?dtor$0@?0??_Wait@_Task_impl_base@details@Concurrency@@QEAA?AW4task_group_status@3@XZ@4HA 0000000180024980 f   _nodert_generated.obj
 0001:00023980       ?dtor$0@?0??_NoCallOnDefaultTask_ErrorImpl@_DefaultTaskHelper@details@Concurrency@@SAXXZ@4HA 0000000180024980 f   _nodert_generated.obj
 0001:00023990       ?dtor$0@?0??_RegisterCallback@_CancellationTokenState@details@Concurrency@@QEAAXPEAV_CancellationTokenRegistration@23@@Z@4HA 0000000180024990 f   _nodert_generated.obj
 0001:000239a0       ?dtor$0@?0??_DeregisterCallback@_CancellationTokenState@details@Concurrency@@QEAAXPEAV_CancellationTokenRegistration@23@@Z@4HA 00000001800249a0 f   _nodert_generated.obj
 0001:000239ac       ?dtor$1@?0??_DeregisterCallback@_CancellationTokenState@details@Concurrency@@QEAAXPEAV_CancellationTokenRegistration@23@@Z@4HA 00000001800249ac f   _nodert_generated.obj
 0001:000239c0       ?dtor$1@?0??_Do_call@?$_Func_impl@V<lambda_f25c37099038263181b5186a3fa41b37>@@V?$allocator@H@std@@X$$V@std@@EEAAXXZ@4HA 00000001800249c0 f   _nodert_generated.obj
 0001:000239c0       ?dtor$0@?0??_RunChoreBridge@_TaskProcHandle@details@Concurrency@@SAXPEAX@Z@4HA 00000001800249c0 f   _nodert_generated.obj
 0001:000239c0       ?dtor$1@?0??_ScheduleTask@_Task_impl_base@details@Concurrency@@QEAAXPEAU_TaskProcHandle@23@W4_TaskInliningMode@23@@Z@4HA 00000001800249c0 f   _nodert_generated.obj
 0001:000239d0       ?dtor$0@?0??WaitUntilStateChangedTo@_TaskCollectionBaseImpl@details@Concurrency@@IEAAXW4_TaskCollectionState@123@@Z@4HA 00000001800249d0 f   _nodert_generated.obj
 0001:000239e0       ?dtor$1@?0??_RunTask@_TaskCollectionBaseImpl@details@Concurrency@@SAXP6AXPEAX@Z0W4_TaskInliningMode@23@@Z@4HA 00000001800249e0 f   _nodert_generated.obj
 0001:000239ec       ?dtor$0@?0??_RunTask@_TaskCollectionBaseImpl@details@Concurrency@@SAXP6AXPEAX@Z0W4_TaskInliningMode@23@@Z@4HA 00000001800249ec f   _nodert_generated.obj
 0001:00023a00       ?dtor$0@?0??_Bridge@_TaskProcThunk@details@Concurrency@@SAXPEAX@Z@4HA 0000000180024a00 f   _nodert_generated.obj
 0001:00023a10       ?dtor$0@?0??_CaptureCurrent@_ContextCallback@details@Concurrency@@SA?AV123@XZ@4HA 0000000180024a10 f   _nodert_generated.obj
 0001:00023a40       ?dtor$0@?0??_CallInContext@_ContextCallback@details@Concurrency@@QEBAXV?$function@$$A6AXXZ@std@@@Z@4HA 0000000180024a40 f   _nodert_generated.obj
 0001:00023a4c       ?dtor$2@?0??_CallInContext@_ContextCallback@details@Concurrency@@QEBAXV?$function@$$A6AXXZ@std@@@Z@4HA 0000000180024a4c f   _nodert_generated.obj
 0001:00023a60       ?dtor$1@?0??_RethrowUserException@_ExceptionHolder@details@Concurrency@@QEAAXXZ@4HA 0000000180024a60 f   _nodert_generated.obj
 0001:00023a70       ?dtor$0@?0??GetResults@?$IAsyncOperation@PE$AAVWiFiConnectionResult@WiFi@Devices@Windows@@@Foundation@Windows@@UE$AAAPE$AAVWiFiConnectionResult@WiFi@Devices@3@XZ@4HA 0000000180024a70 f   _nodert_generated.obj
 0001:00023a70       ?dtor$0@?0???$swap@PE$AAU?$IVectorView@PE$AAVWiFiAdapter@WiFi@Devices@Windows@@@Collections@Foundation@Windows@@X@std@@YAXAEAPE$AAU?$IVectorView@PE$AAVWiFiAdapter@WiFi@Devices@Windows@@@Collections@Foundation@Windows@@0@Z@4HA 0000000180024a70 f   _nodert_generated.obj
 0001:00023a70       ?dtor$0@?0??GetResults@?Q?$IAsyncOperation@E@Foundation@Windows@@_IAsyncActionToAsyncOperationConverter@details@Concurrency@@UE$AAAEXZ@4HA 0000000180024a70 f   _nodert_generated.obj
 0001:00023a70       ?dtor$0@?0??GetAt@?$IVectorView@PE$AAVWiFiAvailableNetwork@WiFi@Devices@Windows@@@Collections@Foundation@Windows@@UE$AAAPE$AAVWiFiAvailableNetwork@WiFi@Devices@4@I@Z@4HA 0000000180024a70 f   _nodert_generated.obj
 0001:00023a70       ?dtor$0@?0??ConnectAsync@IWiFiAdapter@WiFi@Devices@Windows@@UE$AAAPE$AAU?$IAsyncOperation@PE$AAVWiFiConnectionResult@WiFi@Devices@Windows@@@Foundation@4@PE$AAVWiFiAvailableNetwork@234@W4WiFiReconnectionKind@234@@Z@4HA 0000000180024a70 f   _nodert_generated.obj
 0001:00023a70       ?dtor$0@?0??GetWeakReference@?QIWeakReferenceSource@Details@Platform@@_IAsyncActionToAsyncOperationConverter@details@Concurrency@@UE$AAAPE$AAUIWeakReference@23@XZ@4HA 0000000180024a70 f   _nodert_generated.obj
 0001:00023a70       ?dtor$0@?0??GetObjectInstance@Utils@NodeRT@@YAPE$AAVObject@Platform@@V?$Local@VValue@v8@@@v8@@@Z@4HA 0000000180024a70 f   NodeRtUtils.obj
 0001:00023a70       ?dtor$0@?0??First@?$IIterable@PE$AAVWiFiAdapter@WiFi@Devices@Windows@@@Collections@Foundation@Windows@@UE$AAAPE$AAU?$IIterator@PE$AAVWiFiAdapter@WiFi@Devices@Windows@@@234@XZ@4HA 0000000180024a70 f   _nodert_generated.obj
 0001:00023a70       ?dtor$0@?0??GetAt@?$IVectorView@PE$AAVWiFiAdapter@WiFi@Devices@Windows@@@Collections@Foundation@Windows@@UE$AAAPE$AAVWiFiAdapter@WiFi@Devices@4@I@Z@4HA 0000000180024a70 f   _nodert_generated.obj
 0001:00023a70       ?dtor$0@?0??GetResults@?$IAsyncOperation@PE$AAVWiFiAdapter@WiFi@Devices@Windows@@@Foundation@Windows@@UE$AAAPE$AAVWiFiAdapter@WiFi@Devices@3@XZ@4HA 0000000180024a70 f   _nodert_generated.obj
 0001:00023a70       ?dtor$0@?0??First@?$IIterable@PE$AAVWiFiAvailableNetwork@WiFi@Devices@Windows@@@Collections@Foundation@Windows@@UE$AAAPE$AAU?$IIterator@PE$AAVWiFiAvailableNetwork@WiFi@Devices@Windows@@@234@XZ@4HA 0000000180024a70 f   _nodert_generated.obj
 0001:00023a70       ?dtor$0@?0??ScanAsync@IWiFiAdapter@WiFi@Devices@Windows@@UE$AAAPE$AAUIAsyncAction@Foundation@4@XZ@4HA 0000000180024a70 f   _nodert_generated.obj
 0001:00023a70       ?dtor$0@?0??GetResults@?$IAsyncOperation@PE$AAU?$IVectorView@PE$AAVWiFiAdapter@WiFi@Devices@Windows@@@Collections@Foundation@Windows@@@Foundation@Windows@@UE$AAAPE$AAU?$IVectorView@PE$AAVWiFiAdapter@WiFi@Devices@Windows@@@Collections@23@XZ@4HA 0000000180024a70 f   _nodert_generated.obj
 0001:00023a80       ?dtor$1@?0???0task_options@Concurrency@@QEAA@XZ@4HA 0000000180024a80 f   _nodert_generated.obj
 0001:00023a8c       ?dtor$2@?0???0task_options@Concurrency@@QEAA@XZ@4HA 0000000180024a8c f   _nodert_generated.obj
 0001:00023aa0       ?dtor$0@?0???0_ThenImplOptions@details@Concurrency@@QEAA@PEAV_CancellationTokenState@12@PEBVtask_continuation_context@2@Uscheduler_ptr@2@V_TaskCreationCallstack@12@W4_TaskInliningMode@12@@Z@4HA 0000000180024aa0 f   _nodert_generated.obj
 0001:00023aac       ?dtor$1@?0???0_ThenImplOptions@details@Concurrency@@QEAA@PEAV_CancellationTokenState@12@PEBVtask_continuation_context@2@Uscheduler_ptr@2@V_TaskCreationCallstack@12@W4_TaskInliningMode@12@@Z@4HA 0000000180024aac f   _nodert_generated.obj
 0001:00023ab8       ?dtor$2@?0???0_ThenImplOptions@details@Concurrency@@QEAA@PEAV_CancellationTokenState@12@PEBVtask_continuation_context@2@Uscheduler_ptr@2@V_TaskCreationCallstack@12@W4_TaskInliningMode@12@@Z@4HA 0000000180024ab8 f   _nodert_generated.obj
 0001:00023ad0       ?dtor$3@?0??_CreateOptions@_ThenImplOptions@details@Concurrency@@SA?AU123@AEBVtask_options@3@AEBVtask_continuation_context@3@AEBUscheduler_ptr@3@@Z@4HA 0000000180024ad0 f   _nodert_generated.obj
 0001:00023adc       ?dtor$5@?0??_CreateOptions@_ThenImplOptions@details@Concurrency@@SA?AU123@AEBVtask_options@3@AEBVtask_continuation_context@3@AEBUscheduler_ptr@3@@Z@4HA 0000000180024adc f   _nodert_generated.obj
 0001:00023ae8       ?dtor$8@?0??_CreateOptions@_ThenImplOptions@details@Concurrency@@SA?AU123@AEBVtask_options@3@AEBVtask_continuation_context@3@AEBUscheduler_ptr@3@@Z@4HA 0000000180024ae8 f   _nodert_generated.obj
 0001:00023b00       ?dtor$0@?0??_CancelWithException@_Task_impl_base@details@Concurrency@@QEAA_NAEBVexception_ptr@std@@@Z@4HA 0000000180024b00 f   _nodert_generated.obj
 0001:00023b0c       ?dtor$1@?0??_CancelWithException@_Task_impl_base@details@Concurrency@@QEAA_NAEBVexception_ptr@std@@@Z@4HA 0000000180024b0c f   _nodert_generated.obj
 0001:00023b20       ?dtor$0@?0??_RegisterCancellation@_Task_impl_base@details@Concurrency@@QEAAXV?$weak_ptr@U_Task_impl_base@details@Concurrency@@@std@@@Z@4HA 0000000180024b20 f   _nodert_generated.obj
 0001:00023b2c       ?dtor$1@?0??_RegisterCancellation@_Task_impl_base@details@Concurrency@@QEAAXV?$weak_ptr@U_Task_impl_base@details@Concurrency@@@std@@@Z@4HA 0000000180024b2c f   _nodert_generated.obj
 0001:00023b40       ?dtor$0@?0??_RunTaskContinuations@_Task_impl_base@details@Concurrency@@QEAAXXZ@4HA 0000000180024b40 f   _nodert_generated.obj
 0001:00023b40       ?dtor$0@?0???R<lambda_be3e5d9dce35d2c8dbfa8485373731d5>@@QEBAXXZ@4HA 0000000180024b40 f   _nodert_generated.obj
 0001:00023b50       ?dtor$0@?0??_ScheduleContinuationTask@_Task_impl_base@details@Concurrency@@QEAAXPEAU_ContinuationTaskHandleBase@23@@Z@4HA 0000000180024b50 f   _nodert_generated.obj
 0001:00023b5c       ?dtor$2@?0??_ScheduleContinuationTask@_Task_impl_base@details@Concurrency@@QEAAXPEAU_ContinuationTaskHandleBase@23@@Z@4HA 0000000180024b5c f   _nodert_generated.obj
 0001:00023b79       ?dtor$4@?0??_ScheduleContinuationTask@_Task_impl_base@details@Concurrency@@QEAAXPEAU_ContinuationTaskHandleBase@23@@Z@4HA 0000000180024b79 f   _nodert_generated.obj
 0001:00023b90       ?dtor$0@?0???R<lambda_ee2800ccd2b011420c5de0c63356449b>@@QEBAXXZ@4HA 0000000180024b90 f   _nodert_generated.obj
 0001:00023b9c       ?dtor$7@?0???R<lambda_ee2800ccd2b011420c5de0c63356449b>@@QEBAXXZ@4HA 0000000180024b9c f   _nodert_generated.obj
 0001:00023bb0       ?dtor$1@?0??_ScheduleContinuation@_Task_impl_base@details@Concurrency@@QEAAXPEAU_ContinuationTaskHandleBase@23@@Z@4HA 0000000180024bb0 f   _nodert_generated.obj
 0001:00023bbc       ?dtor$2@?0??_ScheduleContinuation@_Task_impl_base@details@Concurrency@@QEAAXPEAU_ContinuationTaskHandleBase@23@@Z@4HA 0000000180024bbc f   _nodert_generated.obj
 0001:00023bc8       ?dtor$3@?0??_ScheduleContinuation@_Task_impl_base@details@Concurrency@@QEAAXPEAU_ContinuationTaskHandleBase@23@@Z@4HA 0000000180024bc8 f   _nodert_generated.obj
 0001:00023be0       ?dtor$0@?0??_CreateImpl@?$task@X@Concurrency@@QEAAXPEAV_CancellationTokenState@details@2@Uscheduler_ptr@2@@Z@4HA 0000000180024be0 f   _nodert_generated.obj
 0001:00023bf0       ?dtor$0@?0??RunOnMain@Async@NodeUtils@@SAXV?$function@$$A6AXXZ@std@@@Z@4HA 0000000180024bf0 f   _nodert_generated.obj
 0001:00023bfc       ?dtor$3@?0??RunOnMain@Async@NodeUtils@@SAXV?$function@$$A6AXXZ@std@@@Z@4HA 0000000180024bfc f   _nodert_generated.obj
 0001:00023c08       ?dtor$4@?0??RunOnMain@Async@NodeUtils@@SAXV?$function@$$A6AXXZ@std@@@Z@4HA 0000000180024c08 f   _nodert_generated.obj
 0001:00023c20       ?dtor$0@?0??RunCallbackOnMain@Async@NodeUtils@@SAXPEAUuv_async_s@@V?$function@$$A6AXV?$function@$$A6AXHPEAV?$Local@VValue@v8@@@v8@@@Z@std@@@Z@std@@@Z@4HA 0000000180024c20 f   _nodert_generated.obj
 0001:00023c2c       ?dtor$1@?0??RunCallbackOnMain@Async@NodeUtils@@SAXPEAUuv_async_s@@V?$function@$$A6AXV?$function@$$A6AXHPEAV?$Local@VValue@v8@@@v8@@@Z@std@@@Z@std@@@Z@4HA 0000000180024c2c f   _nodert_generated.obj
 0001:00023c38       ?dtor$8@?0??RunCallbackOnMain@Async@NodeUtils@@SAXPEAUuv_async_s@@V?$function@$$A6AXV?$function@$$A6AXHPEAV?$Local@VValue@v8@@@v8@@@Z@std@@@Z@std@@@Z@4HA 0000000180024c38 f   _nodert_generated.obj
 0001:00023c44       ?dtor$10@?0??RunCallbackOnMain@Async@NodeUtils@@SAXPEAUuv_async_s@@V?$function@$$A6AXV?$function@$$A6AXHPEAV?$Local@VValue@v8@@@v8@@@Z@std@@@Z@std@@@Z@4HA 0000000180024c44 f   _nodert_generated.obj
 0001:00023c50       ?dtor$11@?0??RunCallbackOnMain@Async@NodeUtils@@SAXPEAUuv_async_s@@V?$function@$$A6AXV?$function@$$A6AXHPEAV?$Local@VValue@v8@@@v8@@@Z@std@@@Z@std@@@Z@4HA 0000000180024c50 f   _nodert_generated.obj
 0001:00023c5c       ?dtor$12@?0??RunCallbackOnMain@Async@NodeUtils@@SAXPEAUuv_async_s@@V?$function@$$A6AXV?$function@$$A6AXHPEAV?$Local@VValue@v8@@@v8@@@Z@std@@@Z@std@@@Z@4HA 0000000180024c5c f   _nodert_generated.obj
 0001:00023c78       ?dtor$13@?0??RunCallbackOnMain@Async@NodeUtils@@SAXPEAUuv_async_s@@V?$function@$$A6AXV?$function@$$A6AXHPEAV?$Local@VValue@v8@@@v8@@@Z@std@@@Z@std@@@Z@4HA 0000000180024c78 f   _nodert_generated.obj
 0001:00023c84       ?dtor$3@?0??RunCallbackOnMain@Async@NodeUtils@@SAXPEAUuv_async_s@@V?$function@$$A6AXV?$function@$$A6AXHPEAV?$Local@VValue@v8@@@v8@@@Z@std@@@Z@std@@@Z@4HA 0000000180024c84 f   _nodert_generated.obj
 0001:00023c90       ?dtor$19@?0??RunCallbackOnMain@Async@NodeUtils@@SAXPEAUuv_async_s@@V?$function@$$A6AXV?$function@$$A6AXHPEAV?$Local@VValue@v8@@@v8@@@Z@std@@@Z@std@@@Z@4HA 0000000180024c90 f   _nodert_generated.obj
 0001:00023c9c       ?dtor$20@?0??RunCallbackOnMain@Async@NodeUtils@@SAXPEAUuv_async_s@@V?$function@$$A6AXV?$function@$$A6AXHPEAV?$Local@VValue@v8@@@v8@@@Z@std@@@Z@std@@@Z@4HA 0000000180024c9c f   _nodert_generated.obj
 0001:00023cb0       ?dtor$0@?0???R<lambda_fc55a96778b695da9907353a9fdacbca>@@QEBAXXZ@4HA 0000000180024cb0 f   _nodert_generated.obj
 0001:00023cbc       ?dtor$4@?0???R<lambda_fc55a96778b695da9907353a9fdacbca>@@QEBAXXZ@4HA 0000000180024cbc f   _nodert_generated.obj
 0001:00023cd0       ?dtor$0@?0??CreateExternalWinRTObject@Utils@NodeRT@@YA?AV?$Local@VValue@v8@@@v8@@PEBD0PE$AAVObject@Platform@@@Z@4HA 0000000180024cd0 f   NodeRtUtils.obj
 0001:00023cd0       ?dtor$0@?0??CreateCallbackData@Async@NodeUtils@@CA?AV?$Local@VObject@v8@@@v8@@V?$Local@VFunction@v8@@@4@V?$Local@VValue@v8@@@4@@Z@4HA 0000000180024cd0 f   _nodert_generated.obj
 0001:00023ce0       ?dtor$0@?0??InitWiFiConnectionStatusEnum@WiFi@Devices@Windows@NodeRT@@YAXV?$Local@VObject@v8@@@v8@@@Z@4HA 0000000180024ce0 f   _nodert_generated.obj
 0001:00023ce0       ?dtor$0@?0??InitWiFiAccessStatusEnum@WiFi@Devices@Windows@NodeRT@@YAXV?$Local@VObject@v8@@@v8@@@Z@4HA 0000000180024ce0 f   _nodert_generated.obj
 0001:00023ce0       ?dtor$0@?0??InitWiFiReconnectionKindEnum@WiFi@Devices@Windows@NodeRT@@YAXV?$Local@VObject@v8@@@v8@@@Z@4HA 0000000180024ce0 f   _nodert_generated.obj
 0001:00023ce0       ?dtor$0@?0??Init@?$VectorViewWrapper@PE$AAVWiFiAvailableNetwork@WiFi@Devices@Windows@@@Collections@NodeRT@@SAXXZ@4HA 0000000180024ce0 f   _nodert_generated.obj
 0001:00023ce0       ?dtor$0@?0??Init@WiFiAvailableNetwork@WiFi@Devices@Windows@NodeRT@@SAXV?$Local@VObject@v8@@@v8@@@Z@4HA 0000000180024ce0 f   _nodert_generated.obj
 0001:00023ce0       ?dtor$0@?0??WinRtExceptionToJsError@Utils@NodeRT@@YA?AV?$Local@VValue@v8@@@v8@@PE$AAVException@Platform@@@Z@4HA 0000000180024ce0 f   NodeRtUtils.obj
 0001:00023ce0       ?dtor$0@?0??InitWiFiNetworkKindEnum@WiFi@Devices@Windows@NodeRT@@YAXV?$Local@VObject@v8@@@v8@@@Z@4HA 0000000180024ce0 f   _nodert_generated.obj
 0001:00023ce0       ?dtor$0@?0??InitWiFiPhyKindEnum@WiFi@Devices@Windows@NodeRT@@YAXV?$Local@VObject@v8@@@v8@@@Z@4HA 0000000180024ce0 f   _nodert_generated.obj
 0001:00023ce0       ?dtor$0@?0??Init@WiFiNetworkReport@WiFi@Devices@Windows@NodeRT@@SAXV?$Local@VObject@v8@@@v8@@@Z@4HA 0000000180024ce0 f   _nodert_generated.obj
 0001:00023ce0       ?dtor$0@?0??Init@WiFiConnectionResult@WiFi@Devices@Windows@NodeRT@@SAXV?$Local@VObject@v8@@@v8@@@Z@4HA 0000000180024ce0 f   _nodert_generated.obj
 0001:00023ce0       ?dtor$0@?0??Init@WiFiAdapter@WiFi@Devices@Windows@NodeRT@@SAXV?$Local@VObject@v8@@@v8@@@Z@4HA 0000000180024ce0 f   _nodert_generated.obj
 0001:00023ce0       ?dtor$0@?0??Init@?$VectorViewWrapper@PE$AAVWiFiAdapter@WiFi@Devices@Windows@@@Collections@NodeRT@@SAXXZ@4HA 0000000180024ce0 f   _nodert_generated.obj
 0001:00023ce0       ?dtor$0@?0??Init@?$IteratorWrapper@PE$AAVWiFiAdapter@WiFi@Devices@Windows@@@Collections@NodeRT@@SAXXZ@4HA 0000000180024ce0 f   _nodert_generated.obj
 0001:00023ce0       ?dtor$0@?0??Init@?$IteratorWrapper@PE$AAVWiFiAvailableNetwork@WiFi@Devices@Windows@@@Collections@NodeRT@@SAXXZ@4HA 0000000180024ce0 f   _nodert_generated.obj
 0001:00023cf0       ?dtor$0@?0??New@WiFiAdapter@WiFi@Devices@Windows@NodeRT@@CAXAEBV?$FunctionCallbackInfo@VValue@v8@@@Nan@@@Z@4HA 0000000180024cf0 f   _nodert_generated.obj
 0001:00023cfc       ?dtor$2@?0??New@WiFiAdapter@WiFi@Devices@Windows@NodeRT@@CAXAEBV?$FunctionCallbackInfo@VValue@v8@@@Nan@@@Z@4HA 0000000180024cfc f   _nodert_generated.obj
 0001:00023d08       ?dtor$3@?0??New@WiFiAdapter@WiFi@Devices@Windows@NodeRT@@CAXAEBV?$FunctionCallbackInfo@VValue@v8@@@Nan@@@Z@4HA 0000000180024d08 f   _nodert_generated.obj
 0001:00023d14       ?dtor$4@?0??New@WiFiAdapter@WiFi@Devices@Windows@NodeRT@@CAXAEBV?$FunctionCallbackInfo@VValue@v8@@@Nan@@@Z@4HA 0000000180024d14 f   _nodert_generated.obj
 0001:00023d20       ?dtor$5@?0??New@WiFiAdapter@WiFi@Devices@Windows@NodeRT@@CAXAEBV?$FunctionCallbackInfo@VValue@v8@@@Nan@@@Z@4HA 0000000180024d20 f   _nodert_generated.obj
 0001:00023d2c       ?catch$22@?0??New@WiFiAdapter@WiFi@Devices@Windows@NodeRT@@CAXAEBV?$FunctionCallbackInfo@VValue@v8@@@Nan@@@Z@4HA 0000000180024d2c f   _nodert_generated.obj
 0001:00023d39       __catch$?New@WiFiAdapter@WiFi@Devices@Windows@NodeRT@@CAXAEBV?$FunctionCallbackInfo@VValue@v8@@@Nan@@@Z$0 0000000180024d39 f   _nodert_generated.obj
 0001:00023d51       ?dtor$6@?0??New@WiFiAdapter@WiFi@Devices@Windows@NodeRT@@CAXAEBV?$FunctionCallbackInfo@VValue@v8@@@Nan@@@Z@4HA 0000000180024d51 f   _nodert_generated.obj
 0001:00023d71       ?dtor$19@?0??New@WiFiAdapter@WiFi@Devices@Windows@NodeRT@@CAXAEBV?$FunctionCallbackInfo@VValue@v8@@@Nan@@@Z@4HA 0000000180024d71 f   _nodert_generated.obj
 0001:00023d7d       ?dtor$20@?0??New@WiFiAdapter@WiFi@Devices@Windows@NodeRT@@CAXAEBV?$FunctionCallbackInfo@VValue@v8@@@Nan@@@Z@4HA 0000000180024d7d f   _nodert_generated.obj
 0001:00023d90       ?dtor$0@?0??CastFrom@WiFiAdapter@WiFi@Devices@Windows@NodeRT@@CAXAEBV?$FunctionCallbackInfo@VValue@v8@@@Nan@@@Z@4HA 0000000180024d90 f   _nodert_generated.obj
 0001:00023d9c       ?dtor$1@?0??CastFrom@WiFiAdapter@WiFi@Devices@Windows@NodeRT@@CAXAEBV?$FunctionCallbackInfo@VValue@v8@@@Nan@@@Z@4HA 0000000180024d9c f   _nodert_generated.obj
 0001:00023da8       ?dtor$2@?0??CastFrom@WiFiAdapter@WiFi@Devices@Windows@NodeRT@@CAXAEBV?$FunctionCallbackInfo@VValue@v8@@@Nan@@@Z@4HA 0000000180024da8 f   _nodert_generated.obj
 0001:00023db4       ?dtor$3@?0??CastFrom@WiFiAdapter@WiFi@Devices@Windows@NodeRT@@CAXAEBV?$FunctionCallbackInfo@VValue@v8@@@Nan@@@Z@4HA 0000000180024db4 f   _nodert_generated.obj
 0001:00023dc0       ?catch$8@?0??CastFrom@WiFiAdapter@WiFi@Devices@Windows@NodeRT@@CAXAEBV?$FunctionCallbackInfo@VValue@v8@@@Nan@@@Z@4HA 0000000180024dc0 f   _nodert_generated.obj
 0001:00023dcd       __catch$?CastFrom@WiFiAdapter@WiFi@Devices@Windows@NodeRT@@CAXAEBV?$FunctionCallbackInfo@VValue@v8@@@Nan@@@Z$0 0000000180024dcd f   _nodert_generated.obj
 0001:00023df0       ?dtor$0@?0??ScanAsync@WiFiAdapter@WiFi@Devices@Windows@NodeRT@@CAXAEBV?$FunctionCallbackInfo@VValue@v8@@@Nan@@@Z@4HA 0000000180024df0 f   _nodert_generated.obj
 0001:00023dfc       ?dtor$1@?0??ScanAsync@WiFiAdapter@WiFi@Devices@Windows@NodeRT@@CAXAEBV?$FunctionCallbackInfo@VValue@v8@@@Nan@@@Z@4HA 0000000180024dfc f   _nodert_generated.obj
 0001:00023e08       ?dtor$2@?0??ScanAsync@WiFiAdapter@WiFi@Devices@Windows@NodeRT@@CAXAEBV?$FunctionCallbackInfo@VValue@v8@@@Nan@@@Z@4HA 0000000180024e08 f   _nodert_generated.obj
 0001:00023e14       ?catch$17@?0??ScanAsync@WiFiAdapter@WiFi@Devices@Windows@NodeRT@@CAXAEBV?$FunctionCallbackInfo@VValue@v8@@@Nan@@@Z@4HA 0000000180024e14 f   _nodert_generated.obj
 0001:00023e21       __catch$?ScanAsync@WiFiAdapter@WiFi@Devices@Windows@NodeRT@@CAXAEBV?$FunctionCallbackInfo@VValue@v8@@@Nan@@@Z$0 0000000180024e21 f   _nodert_generated.obj
 0001:00023e39       ?dtor$4@?0??ScanAsync@WiFiAdapter@WiFi@Devices@Windows@NodeRT@@CAXAEBV?$FunctionCallbackInfo@VValue@v8@@@Nan@@@Z@4HA 0000000180024e39 f   _nodert_generated.obj
 0001:00023e50       ?dtor$0@?0???R<lambda_196da8969df2293b3f20f1c35ff63462>@@QEBAXV?$task@X@Concurrency@@@Z@4HA 0000000180024e50 f   _nodert_generated.obj
 0001:00023e5c       ?dtor$4@?0???R<lambda_196da8969df2293b3f20f1c35ff63462>@@QEBAXV?$task@X@Concurrency@@@Z@4HA 0000000180024e5c f   _nodert_generated.obj
 0001:00023e68       ?catch$13@?0???R<lambda_196da8969df2293b3f20f1c35ff63462>@@QEBAXV?$task@X@Concurrency@@@Z@4HA 0000000180024e68 f   _nodert_generated.obj
 0001:00023e76       __catch$??R<lambda_196da8969df2293b3f20f1c35ff63462>@@QEBAXV?$task@X@Concurrency@@@Z$0 0000000180024e76 f   _nodert_generated.obj
 0001:00023ef0       ?dtor$0@?0???R<lambda_be4c867425d6e703fe2514969f90995f>@@QEBAXV?$function@$$A6AXHPEAV?$Local@VValue@v8@@@v8@@@Z@std@@@Z@4HA 0000000180024ef0 f   _nodert_generated.obj
 0001:00023ef0       ?dtor$0@?0???R<lambda_575df78f75be6e56c3c6d6f2c13351d7>@@QEBAXV?$function@$$A6AXHPEAV?$Local@VValue@v8@@@v8@@@Z@std@@@Z@4HA 0000000180024ef0 f   _nodert_generated.obj
 0001:00023ef0       ?dtor$0@?0???R<lambda_bc0731c9a3566f45332d953ae2092d1f>@@QEBAXV?$function@$$A6AXHPEAV?$Local@VValue@v8@@@v8@@@Z@std@@@Z@4HA 0000000180024ef0 f   _nodert_generated.obj
 0001:00023ef0       ?dtor$0@?0???R<lambda_4bc90cab6583626e4c84cccfde14d85d>@@QEBAXV?$function@$$A6AXHPEAV?$Local@VValue@v8@@@v8@@@Z@std@@@Z@4HA 0000000180024ef0 f   _nodert_generated.obj
 0001:00023ef0       ?dtor$0@?0???R<lambda_e04973e34d302f1e2fca91b511fcd8c7>@@QEBAXV?$function@$$A6AXHPEAV?$Local@VValue@v8@@@v8@@@Z@std@@@Z@4HA 0000000180024ef0 f   _nodert_generated.obj
 0001:00023ef0       ?dtor$0@?0???R<lambda_4710f5c52dcf42bd02a362ab04da0053>@@QEBAXV?$function@$$A6AXHPEAV?$Local@VValue@v8@@@v8@@@Z@std@@@Z@4HA 0000000180024ef0 f   _nodert_generated.obj
 0001:00023f00       ?dtor$0@?0??ConnectAsync@WiFiAdapter@WiFi@Devices@Windows@NodeRT@@CAXAEBV?$FunctionCallbackInfo@VValue@v8@@@Nan@@@Z@4HA 0000000180024f00 f   _nodert_generated.obj
 0001:00023f0c       ?dtor$1@?0??ConnectAsync@WiFiAdapter@WiFi@Devices@Windows@NodeRT@@CAXAEBV?$FunctionCallbackInfo@VValue@v8@@@Nan@@@Z@4HA 0000000180024f0c f   _nodert_generated.obj
 0001:00023f18       ?dtor$2@?0??ConnectAsync@WiFiAdapter@WiFi@Devices@Windows@NodeRT@@CAXAEBV?$FunctionCallbackInfo@VValue@v8@@@Nan@@@Z@4HA 0000000180024f18 f   _nodert_generated.obj
 0001:00023f24       ?dtor$3@?0??ConnectAsync@WiFiAdapter@WiFi@Devices@Windows@NodeRT@@CAXAEBV?$FunctionCallbackInfo@VValue@v8@@@Nan@@@Z@4HA 0000000180024f24 f   _nodert_generated.obj
 0001:00023f30       ?dtor$4@?0??ConnectAsync@WiFiAdapter@WiFi@Devices@Windows@NodeRT@@CAXAEBV?$FunctionCallbackInfo@VValue@v8@@@Nan@@@Z@4HA 0000000180024f30 f   _nodert_generated.obj
 0001:00023f3c       ?catch$38@?0??ConnectAsync@WiFiAdapter@WiFi@Devices@Windows@NodeRT@@CAXAEBV?$FunctionCallbackInfo@VValue@v8@@@Nan@@@Z@4HA 0000000180024f3c f   _nodert_generated.obj
 0001:00023f49       __catch$?ConnectAsync@WiFiAdapter@WiFi@Devices@Windows@NodeRT@@CAXAEBV?$FunctionCallbackInfo@VValue@v8@@@Nan@@@Z$0 0000000180024f49 f   _nodert_generated.obj
 0001:00023f64       ?dtor$5@?0??ConnectAsync@WiFiAdapter@WiFi@Devices@Windows@NodeRT@@CAXAEBV?$FunctionCallbackInfo@VValue@v8@@@Nan@@@Z@4HA 0000000180024f64 f   _nodert_generated.obj
 0001:00023f70       ?dtor$6@?0??ConnectAsync@WiFiAdapter@WiFi@Devices@Windows@NodeRT@@CAXAEBV?$FunctionCallbackInfo@VValue@v8@@@Nan@@@Z@4HA 0000000180024f70 f   _nodert_generated.obj
 0001:00023f7c       ?dtor$7@?0??ConnectAsync@WiFiAdapter@WiFi@Devices@Windows@NodeRT@@CAXAEBV?$FunctionCallbackInfo@VValue@v8@@@Nan@@@Z@4HA 0000000180024f7c f   _nodert_generated.obj
 0001:00023f88       ?dtor$8@?0??ConnectAsync@WiFiAdapter@WiFi@Devices@Windows@NodeRT@@CAXAEBV?$FunctionCallbackInfo@VValue@v8@@@Nan@@@Z@4HA 0000000180024f88 f   _nodert_generated.obj
 0001:00023f94       ?dtor$9@?0??ConnectAsync@WiFiAdapter@WiFi@Devices@Windows@NodeRT@@CAXAEBV?$FunctionCallbackInfo@VValue@v8@@@Nan@@@Z@4HA 0000000180024f94 f   _nodert_generated.obj
 0001:00023fa0       ?dtor$10@?0??ConnectAsync@WiFiAdapter@WiFi@Devices@Windows@NodeRT@@CAXAEBV?$FunctionCallbackInfo@VValue@v8@@@Nan@@@Z@4HA 0000000180024fa0 f   _nodert_generated.obj
 0001:00023fac       ?catch$39@?0??ConnectAsync@WiFiAdapter@WiFi@Devices@Windows@NodeRT@@CAXAEBV?$FunctionCallbackInfo@VValue@v8@@@Nan@@@Z@4HA 0000000180024fac f   _nodert_generated.obj
 0001:00023fb9       __catch$?ConnectAsync@WiFiAdapter@WiFi@Devices@Windows@NodeRT@@CAXAEBV?$FunctionCallbackInfo@VValue@v8@@@Nan@@@Z$2 0000000180024fb9 f   _nodert_generated.obj
 0001:00023fd4       ?dtor$11@?0??ConnectAsync@WiFiAdapter@WiFi@Devices@Windows@NodeRT@@CAXAEBV?$FunctionCallbackInfo@VValue@v8@@@Nan@@@Z@4HA 0000000180024fd4 f   _nodert_generated.obj
 0001:00023fe0       ?dtor$12@?0??ConnectAsync@WiFiAdapter@WiFi@Devices@Windows@NodeRT@@CAXAEBV?$FunctionCallbackInfo@VValue@v8@@@Nan@@@Z@4HA 0000000180024fe0 f   _nodert_generated.obj
 0001:00023fec       ?dtor$13@?0??ConnectAsync@WiFiAdapter@WiFi@Devices@Windows@NodeRT@@CAXAEBV?$FunctionCallbackInfo@VValue@v8@@@Nan@@@Z@4HA 0000000180024fec f   _nodert_generated.obj
 0001:00023ff8       ?dtor$14@?0??ConnectAsync@WiFiAdapter@WiFi@Devices@Windows@NodeRT@@CAXAEBV?$FunctionCallbackInfo@VValue@v8@@@Nan@@@Z@4HA 0000000180024ff8 f   _nodert_generated.obj
 0001:00024004       ?dtor$15@?0??ConnectAsync@WiFiAdapter@WiFi@Devices@Windows@NodeRT@@CAXAEBV?$FunctionCallbackInfo@VValue@v8@@@Nan@@@Z@4HA 0000000180025004 f   _nodert_generated.obj
 0001:00024010       ?dtor$16@?0??ConnectAsync@WiFiAdapter@WiFi@Devices@Windows@NodeRT@@CAXAEBV?$FunctionCallbackInfo@VValue@v8@@@Nan@@@Z@4HA 0000000180025010 f   _nodert_generated.obj
 0001:00024030       ?dtor$17@?0??ConnectAsync@WiFiAdapter@WiFi@Devices@Windows@NodeRT@@CAXAEBV?$FunctionCallbackInfo@VValue@v8@@@Nan@@@Z@4HA 0000000180025030 f   _nodert_generated.obj
 0001:0002403e       ?dtor$18@?0??ConnectAsync@WiFiAdapter@WiFi@Devices@Windows@NodeRT@@CAXAEBV?$FunctionCallbackInfo@VValue@v8@@@Nan@@@Z@4HA 000000018002503e f   _nodert_generated.obj
 0001:0002404a       ?dtor$19@?0??ConnectAsync@WiFiAdapter@WiFi@Devices@Windows@NodeRT@@CAXAEBV?$FunctionCallbackInfo@VValue@v8@@@Nan@@@Z@4HA 000000018002504a f   _nodert_generated.obj
 0001:00024056       ?dtor$20@?0??ConnectAsync@WiFiAdapter@WiFi@Devices@Windows@NodeRT@@CAXAEBV?$FunctionCallbackInfo@VValue@v8@@@Nan@@@Z@4HA 0000000180025056 f   _nodert_generated.obj
 0001:00024062       ?catch$40@?0??ConnectAsync@WiFiAdapter@WiFi@Devices@Windows@NodeRT@@CAXAEBV?$FunctionCallbackInfo@VValue@v8@@@Nan@@@Z@4HA 0000000180025062 f   _nodert_generated.obj
 0001:0002406f       __catch$?ConnectAsync@WiFiAdapter@WiFi@Devices@Windows@NodeRT@@CAXAEBV?$FunctionCallbackInfo@VValue@v8@@@Nan@@@Z$4 000000018002506f f   _nodert_generated.obj
 0001:0002408a       ?dtor$22@?0??ConnectAsync@WiFiAdapter@WiFi@Devices@Windows@NodeRT@@CAXAEBV?$FunctionCallbackInfo@VValue@v8@@@Nan@@@Z@4HA 000000018002508a f   _nodert_generated.obj
 0001:000240a0       ?dtor$0@?0???R<lambda_dbe8bba2fdc06b28517f8829416a6436>@@QEBAXV?$task@PE$AAVWiFiConnectionResult@WiFi@Devices@Windows@@@Concurrency@@@Z@4HA 00000001800250a0 f   _nodert_generated.obj
 0001:000240ac       ?dtor$1@?0???R<lambda_dbe8bba2fdc06b28517f8829416a6436>@@QEBAXV?$task@PE$AAVWiFiConnectionResult@WiFi@Devices@Windows@@@Concurrency@@@Z@4HA 00000001800250ac f   _nodert_generated.obj
 0001:000240b8       ?dtor$2@?0???R<lambda_dbe8bba2fdc06b28517f8829416a6436>@@QEBAXV?$task@PE$AAVWiFiConnectionResult@WiFi@Devices@Windows@@@Concurrency@@@Z@4HA 00000001800250b8 f   _nodert_generated.obj
 0001:000240c4       ?catch$16@?0???R<lambda_dbe8bba2fdc06b28517f8829416a6436>@@QEBAXV?$task@PE$AAVWiFiConnectionResult@WiFi@Devices@Windows@@@Concurrency@@@Z@4HA 00000001800250c4 f   _nodert_generated.obj
 0001:000240d2       __catch$??R<lambda_dbe8bba2fdc06b28517f8829416a6436>@@QEBAXV?$task@PE$AAVWiFiConnectionResult@WiFi@Devices@Windows@@@Concurrency@@@Z$0 00000001800250d2 f   _nodert_generated.obj
 0001:00024150       ?dtor$0@?0???R<lambda_d61d618acd042cb6be448c47bd6dda04>@@QEBAXV?$function@$$A6AXHPEAV?$Local@VValue@v8@@@v8@@@Z@std@@@Z@4HA 0000000180025150 f   _nodert_generated.obj
 0001:00024150       ?dtor$0@?0???R<lambda_3c9564ace928a5325045d5dafda92950>@@QEBAXV?$function@$$A6AXHPEAV?$Local@VValue@v8@@@v8@@@Z@std@@@Z@4HA 0000000180025150 f   _nodert_generated.obj
 0001:00024150       ?dtor$0@?0???R<lambda_7c83662bc24fcfe269da27ef98721e5f>@@QEBAXV?$function@$$A6AXHPEAV?$Local@VValue@v8@@@v8@@@Z@std@@@Z@4HA 0000000180025150 f   _nodert_generated.obj
 0001:0002415c       ?dtor$1@?0???R<lambda_3c9564ace928a5325045d5dafda92950>@@QEBAXV?$function@$$A6AXHPEAV?$Local@VValue@v8@@@v8@@@Z@std@@@Z@4HA 000000018002515c f   _nodert_generated.obj
 0001:0002415c       ?dtor$1@?0???R<lambda_7c83662bc24fcfe269da27ef98721e5f>@@QEBAXV?$function@$$A6AXHPEAV?$Local@VValue@v8@@@v8@@@Z@std@@@Z@4HA 000000018002515c f   _nodert_generated.obj
 0001:0002415c       ?dtor$1@?0???R<lambda_d61d618acd042cb6be448c47bd6dda04>@@QEBAXV?$function@$$A6AXHPEAV?$Local@VValue@v8@@@v8@@@Z@std@@@Z@4HA 000000018002515c f   _nodert_generated.obj
 0001:00024170       ?dtor$0@?0??Disconnect@WiFiAdapter@WiFi@Devices@Windows@NodeRT@@CAXAEBV?$FunctionCallbackInfo@VValue@v8@@@Nan@@@Z@4HA 0000000180025170 f   _nodert_generated.obj
 0001:0002417c       ?catch$7@?0??Disconnect@WiFiAdapter@WiFi@Devices@Windows@NodeRT@@CAXAEBV?$FunctionCallbackInfo@VValue@v8@@@Nan@@@Z@4HA 000000018002517c f   _nodert_generated.obj
 0001:00024189       __catch$?Disconnect@WiFiAdapter@WiFi@Devices@Windows@NodeRT@@CAXAEBV?$FunctionCallbackInfo@VValue@v8@@@Nan@@@Z$0 0000000180025189 f   _nodert_generated.obj
 0001:000241b0       ?dtor$0@?0??FindAllAdaptersAsync@WiFiAdapter@WiFi@Devices@Windows@NodeRT@@CAXAEBV?$FunctionCallbackInfo@VValue@v8@@@Nan@@@Z@4HA 00000001800251b0 f   _nodert_generated.obj
 0001:000241bc       ?dtor$1@?0??FindAllAdaptersAsync@WiFiAdapter@WiFi@Devices@Windows@NodeRT@@CAXAEBV?$FunctionCallbackInfo@VValue@v8@@@Nan@@@Z@4HA 00000001800251bc f   _nodert_generated.obj
 0001:000241c8       ?dtor$2@?0??FindAllAdaptersAsync@WiFiAdapter@WiFi@Devices@Windows@NodeRT@@CAXAEBV?$FunctionCallbackInfo@VValue@v8@@@Nan@@@Z@4HA 00000001800251c8 f   _nodert_generated.obj
 0001:000241d4       ?catch$14@?0??FindAllAdaptersAsync@WiFiAdapter@WiFi@Devices@Windows@NodeRT@@CAXAEBV?$FunctionCallbackInfo@VValue@v8@@@Nan@@@Z@4HA 00000001800251d4 f   _nodert_generated.obj
 0001:000241e1       __catch$?FindAllAdaptersAsync@WiFiAdapter@WiFi@Devices@Windows@NodeRT@@CAXAEBV?$FunctionCallbackInfo@VValue@v8@@@Nan@@@Z$0 00000001800251e1 f   _nodert_generated.obj
 0001:000241f9       ?dtor$4@?0??FindAllAdaptersAsync@WiFiAdapter@WiFi@Devices@Windows@NodeRT@@CAXAEBV?$FunctionCallbackInfo@VValue@v8@@@Nan@@@Z@4HA 00000001800251f9 f   _nodert_generated.obj
 0001:00024210       ?dtor$0@?0???R<lambda_45bc1edc407ccfe1fa050aed513212a8>@@QEBAXV?$task@PE$AAU?$IVectorView@PE$AAVWiFiAdapter@WiFi@Devices@Windows@@@Collections@Foundation@Windows@@@Concurrency@@@Z@4HA 0000000180025210 f   _nodert_generated.obj
 0001:0002421c       ?dtor$1@?0???R<lambda_45bc1edc407ccfe1fa050aed513212a8>@@QEBAXV?$task@PE$AAU?$IVectorView@PE$AAVWiFiAdapter@WiFi@Devices@Windows@@@Collections@Foundation@Windows@@@Concurrency@@@Z@4HA 000000018002521c f   _nodert_generated.obj
 0001:00024228       ?dtor$2@?0???R<lambda_45bc1edc407ccfe1fa050aed513212a8>@@QEBAXV?$task@PE$AAU?$IVectorView@PE$AAVWiFiAdapter@WiFi@Devices@Windows@@@Collections@Foundation@Windows@@@Concurrency@@@Z@4HA 0000000180025228 f   _nodert_generated.obj
 0001:00024234       ?catch$16@?0???R<lambda_45bc1edc407ccfe1fa050aed513212a8>@@QEBAXV?$task@PE$AAU?$IVectorView@PE$AAVWiFiAdapter@WiFi@Devices@Windows@@@Collections@Foundation@Windows@@@Concurrency@@@Z@4HA 0000000180025234 f   _nodert_generated.obj
 0001:00024242       __catch$??R<lambda_45bc1edc407ccfe1fa050aed513212a8>@@QEBAXV?$task@PE$AAU?$IVectorView@PE$AAVWiFiAdapter@WiFi@Devices@Windows@@@Collections@Foundation@Windows@@@Concurrency@@@Z$0 0000000180025242 f   _nodert_generated.obj
 0001:000242c0       ?dtor$0@?0???R<lambda_bae4d4148c38c83d04c701f5e686a80e>@@QEBAXV?$function@$$A6AXHPEAV?$Local@VValue@v8@@@v8@@@Z@std@@@Z@4HA 00000001800252c0 f   _nodert_generated.obj
 0001:000242cc       ?dtor$1@?0???R<lambda_bae4d4148c38c83d04c701f5e686a80e>@@QEBAXV?$function@$$A6AXHPEAV?$Local@VValue@v8@@@v8@@@Z@std@@@Z@4HA 00000001800252cc f   _nodert_generated.obj
 0001:000242d8       ?dtor$2@?0???R<lambda_bae4d4148c38c83d04c701f5e686a80e>@@QEBAXV?$function@$$A6AXHPEAV?$Local@VValue@v8@@@v8@@@Z@std@@@Z@4HA 00000001800252d8 f   _nodert_generated.obj
 0001:000242e4       ?dtor$3@?0???R<lambda_bae4d4148c38c83d04c701f5e686a80e>@@QEBAXV?$function@$$A6AXHPEAV?$Local@VValue@v8@@@v8@@@Z@std@@@Z@4HA 00000001800252e4 f   _nodert_generated.obj
 0001:000242f0       ?dtor$4@?0???R<lambda_bae4d4148c38c83d04c701f5e686a80e>@@QEBAXV?$function@$$A6AXHPEAV?$Local@VValue@v8@@@v8@@@Z@std@@@Z@4HA 00000001800252f0 f   _nodert_generated.obj
 0001:00024300       ?dtor$0@?0??FromIdAsync@WiFiAdapter@WiFi@Devices@Windows@NodeRT@@CAXAEBV?$FunctionCallbackInfo@VValue@v8@@@Nan@@@Z@4HA 0000000180025300 f   _nodert_generated.obj
 0001:0002430c       ?dtor$1@?0??FromIdAsync@WiFiAdapter@WiFi@Devices@Windows@NodeRT@@CAXAEBV?$FunctionCallbackInfo@VValue@v8@@@Nan@@@Z@4HA 000000018002530c f   _nodert_generated.obj
 0001:00024318       ?dtor$2@?0??FromIdAsync@WiFiAdapter@WiFi@Devices@Windows@NodeRT@@CAXAEBV?$FunctionCallbackInfo@VValue@v8@@@Nan@@@Z@4HA 0000000180025318 f   _nodert_generated.obj
 0001:0002433b       ?dtor$3@?0??FromIdAsync@WiFiAdapter@WiFi@Devices@Windows@NodeRT@@CAXAEBV?$FunctionCallbackInfo@VValue@v8@@@Nan@@@Z@4HA 000000018002533b f   _nodert_generated.obj
 0001:00024349       ?dtor$4@?0??FromIdAsync@WiFiAdapter@WiFi@Devices@Windows@NodeRT@@CAXAEBV?$FunctionCallbackInfo@VValue@v8@@@Nan@@@Z@4HA 0000000180025349 f   _nodert_generated.obj
 0001:00024355       ?dtor$5@?0??FromIdAsync@WiFiAdapter@WiFi@Devices@Windows@NodeRT@@CAXAEBV?$FunctionCallbackInfo@VValue@v8@@@Nan@@@Z@4HA 0000000180025355 f   _nodert_generated.obj
 0001:00024361       ?dtor$6@?0??FromIdAsync@WiFiAdapter@WiFi@Devices@Windows@NodeRT@@CAXAEBV?$FunctionCallbackInfo@VValue@v8@@@Nan@@@Z@4HA 0000000180025361 f   _nodert_generated.obj
 0001:0002436d       ?catch$18@?0??FromIdAsync@WiFiAdapter@WiFi@Devices@Windows@NodeRT@@CAXAEBV?$FunctionCallbackInfo@VValue@v8@@@Nan@@@Z@4HA 000000018002536d f   _nodert_generated.obj
 0001:0002437a       __catch$?FromIdAsync@WiFiAdapter@WiFi@Devices@Windows@NodeRT@@CAXAEBV?$FunctionCallbackInfo@VValue@v8@@@Nan@@@Z$0 000000018002537a f   _nodert_generated.obj
 0001:00024392       ?dtor$8@?0??FromIdAsync@WiFiAdapter@WiFi@Devices@Windows@NodeRT@@CAXAEBV?$FunctionCallbackInfo@VValue@v8@@@Nan@@@Z@4HA 0000000180025392 f   _nodert_generated.obj
 0001:000243a0       ?dtor$0@?0???R<lambda_e03a7ec937e836cf062062cbea779d3e>@@QEBAXV?$task@PE$AAVWiFiAdapter@WiFi@Devices@Windows@@@Concurrency@@@Z@4HA 00000001800253a0 f   _nodert_generated.obj
 0001:000243ac       ?dtor$1@?0???R<lambda_e03a7ec937e836cf062062cbea779d3e>@@QEBAXV?$task@PE$AAVWiFiAdapter@WiFi@Devices@Windows@@@Concurrency@@@Z@4HA 00000001800253ac f   _nodert_generated.obj
 0001:000243b8       ?dtor$2@?0???R<lambda_e03a7ec937e836cf062062cbea779d3e>@@QEBAXV?$task@PE$AAVWiFiAdapter@WiFi@Devices@Windows@@@Concurrency@@@Z@4HA 00000001800253b8 f   _nodert_generated.obj
 0001:000243c4       ?catch$16@?0???R<lambda_e03a7ec937e836cf062062cbea779d3e>@@QEBAXV?$task@PE$AAVWiFiAdapter@WiFi@Devices@Windows@@@Concurrency@@@Z@4HA 00000001800253c4 f   _nodert_generated.obj
 0001:000243d2       __catch$??R<lambda_e03a7ec937e836cf062062cbea779d3e>@@QEBAXV?$task@PE$AAVWiFiAdapter@WiFi@Devices@Windows@@@Concurrency@@@Z$0 00000001800253d2 f   _nodert_generated.obj
 0001:00024450       ?dtor$0@?0??RequestAccessAsync@WiFiAdapter@WiFi@Devices@Windows@NodeRT@@CAXAEBV?$FunctionCallbackInfo@VValue@v8@@@Nan@@@Z@4HA 0000000180025450 f   _nodert_generated.obj
 0001:0002445c       ?dtor$1@?0??RequestAccessAsync@WiFiAdapter@WiFi@Devices@Windows@NodeRT@@CAXAEBV?$FunctionCallbackInfo@VValue@v8@@@Nan@@@Z@4HA 000000018002545c f   _nodert_generated.obj
 0001:00024468       ?dtor$2@?0??RequestAccessAsync@WiFiAdapter@WiFi@Devices@Windows@NodeRT@@CAXAEBV?$FunctionCallbackInfo@VValue@v8@@@Nan@@@Z@4HA 0000000180025468 f   _nodert_generated.obj
 0001:00024474       ?catch$14@?0??RequestAccessAsync@WiFiAdapter@WiFi@Devices@Windows@NodeRT@@CAXAEBV?$FunctionCallbackInfo@VValue@v8@@@Nan@@@Z@4HA 0000000180025474 f   _nodert_generated.obj
 0001:00024481       __catch$?RequestAccessAsync@WiFiAdapter@WiFi@Devices@Windows@NodeRT@@CAXAEBV?$FunctionCallbackInfo@VValue@v8@@@Nan@@@Z$0 0000000180025481 f   _nodert_generated.obj
 0001:00024499       ?dtor$4@?0??RequestAccessAsync@WiFiAdapter@WiFi@Devices@Windows@NodeRT@@CAXAEBV?$FunctionCallbackInfo@VValue@v8@@@Nan@@@Z@4HA 0000000180025499 f   _nodert_generated.obj
 0001:000244b0       ?dtor$0@?0???R<lambda_b35fdbc63eaf6c602f1361040fea34ad>@@QEBAXV?$task@W4WiFiAccessStatus@WiFi@Devices@Windows@@@Concurrency@@@Z@4HA 00000001800254b0 f   _nodert_generated.obj
 0001:000244bc       ?dtor$4@?0???R<lambda_b35fdbc63eaf6c602f1361040fea34ad>@@QEBAXV?$task@W4WiFiAccessStatus@WiFi@Devices@Windows@@@Concurrency@@@Z@4HA 00000001800254bc f   _nodert_generated.obj
 0001:000244c8       ?catch$12@?0???R<lambda_b35fdbc63eaf6c602f1361040fea34ad>@@QEBAXV?$task@W4WiFiAccessStatus@WiFi@Devices@Windows@@@Concurrency@@@Z@4HA 00000001800254c8 f   _nodert_generated.obj
 0001:000244d6       __catch$??R<lambda_b35fdbc63eaf6c602f1361040fea34ad>@@QEBAXV?$task@W4WiFiAccessStatus@WiFi@Devices@Windows@@@Concurrency@@@Z$0 00000001800254d6 f   _nodert_generated.obj
 0001:00024550       ?dtor$0@?0??GetDeviceSelector@WiFiAdapter@WiFi@Devices@Windows@NodeRT@@CAXAEBV?$FunctionCallbackInfo@VValue@v8@@@Nan@@@Z@4HA 0000000180025550 f   _nodert_generated.obj
 0001:0002455c       ?dtor$1@?0??GetDeviceSelector@WiFiAdapter@WiFi@Devices@Windows@NodeRT@@CAXAEBV?$FunctionCallbackInfo@VValue@v8@@@Nan@@@Z@4HA 000000018002555c f   _nodert_generated.obj
 0001:00024568       ?dtor$2@?0??GetDeviceSelector@WiFiAdapter@WiFi@Devices@Windows@NodeRT@@CAXAEBV?$FunctionCallbackInfo@VValue@v8@@@Nan@@@Z@4HA 0000000180025568 f   _nodert_generated.obj
 0001:00024574       ?catch$8@?0??GetDeviceSelector@WiFiAdapter@WiFi@Devices@Windows@NodeRT@@CAXAEBV?$FunctionCallbackInfo@VValue@v8@@@Nan@@@Z@4HA 0000000180025574 f   _nodert_generated.obj
 0001:00024581       __catch$?GetDeviceSelector@WiFiAdapter@WiFi@Devices@Windows@NodeRT@@CAXAEBV?$FunctionCallbackInfo@VValue@v8@@@Nan@@@Z$0 0000000180025581 f   _nodert_generated.obj
 0001:000245a0       ?dtor$0@?0??NetworkAdapterGetter@WiFiAdapter@WiFi@Devices@Windows@NodeRT@@CAXV?$Local@VString@v8@@@v8@@AEBV?$PropertyCallbackInfo@VValue@v8@@@Nan@@@Z@4HA 00000001800255a0 f   _nodert_generated.obj
 0001:000245ac       ?dtor$5@?0??NetworkAdapterGetter@WiFiAdapter@WiFi@Devices@Windows@NodeRT@@CAXV?$Local@VString@v8@@@v8@@AEBV?$PropertyCallbackInfo@VValue@v8@@@Nan@@@Z@4HA 00000001800255ac f   _nodert_generated.obj
 0001:000245b8       ?dtor$1@?0??NetworkAdapterGetter@WiFiAdapter@WiFi@Devices@Windows@NodeRT@@CAXV?$Local@VString@v8@@@v8@@AEBV?$PropertyCallbackInfo@VValue@v8@@@Nan@@@Z@4HA 00000001800255b8 f   _nodert_generated.obj
 0001:000245c4       ?dtor$2@?0??NetworkAdapterGetter@WiFiAdapter@WiFi@Devices@Windows@NodeRT@@CAXV?$Local@VString@v8@@@v8@@AEBV?$PropertyCallbackInfo@VValue@v8@@@Nan@@@Z@4HA 00000001800255c4 f   _nodert_generated.obj
 0001:000245d0       ?catch$9@?0??NetworkAdapterGetter@WiFiAdapter@WiFi@Devices@Windows@NodeRT@@CAXV?$Local@VString@v8@@@v8@@AEBV?$PropertyCallbackInfo@VValue@v8@@@Nan@@@Z@4HA 00000001800255d0 f   _nodert_generated.obj
 0001:000245dd       __catch$?NetworkAdapterGetter@WiFiAdapter@WiFi@Devices@Windows@NodeRT@@CAXV?$Local@VString@v8@@@v8@@AEBV?$PropertyCallbackInfo@VValue@v8@@@Nan@@@Z$0 00000001800255dd f   _nodert_generated.obj
 0001:00024600       ?dtor$0@?0??NetworkReportGetter@WiFiAdapter@WiFi@Devices@Windows@NodeRT@@CAXV?$Local@VString@v8@@@v8@@AEBV?$PropertyCallbackInfo@VValue@v8@@@Nan@@@Z@4HA 0000000180025600 f   _nodert_generated.obj
 0001:0002460c       ?dtor$5@?0??NetworkReportGetter@WiFiAdapter@WiFi@Devices@Windows@NodeRT@@CAXV?$Local@VString@v8@@@v8@@AEBV?$PropertyCallbackInfo@VValue@v8@@@Nan@@@Z@4HA 000000018002560c f   _nodert_generated.obj
 0001:00024618       ?dtor$1@?0??NetworkReportGetter@WiFiAdapter@WiFi@Devices@Windows@NodeRT@@CAXV?$Local@VString@v8@@@v8@@AEBV?$PropertyCallbackInfo@VValue@v8@@@Nan@@@Z@4HA 0000000180025618 f   _nodert_generated.obj
 0001:00024624       ?dtor$2@?0??NetworkReportGetter@WiFiAdapter@WiFi@Devices@Windows@NodeRT@@CAXV?$Local@VString@v8@@@v8@@AEBV?$PropertyCallbackInfo@VValue@v8@@@Nan@@@Z@4HA 0000000180025624 f   _nodert_generated.obj
 0001:00024630       ?catch$9@?0??NetworkReportGetter@WiFiAdapter@WiFi@Devices@Windows@NodeRT@@CAXV?$Local@VString@v8@@@v8@@AEBV?$PropertyCallbackInfo@VValue@v8@@@Nan@@@Z@4HA 0000000180025630 f   _nodert_generated.obj
 0001:0002463d       __catch$?NetworkReportGetter@WiFiAdapter@WiFi@Devices@Windows@NodeRT@@CAXV?$Local@VString@v8@@@v8@@AEBV?$PropertyCallbackInfo@VValue@v8@@@Nan@@@Z$0 000000018002563d f   _nodert_generated.obj
 0001:00024660       ?dtor$0@?0??AddListener@WiFiAdapter@WiFi@Devices@Windows@NodeRT@@CAXAEBV?$FunctionCallbackInfo@VValue@v8@@@Nan@@@Z@4HA 0000000180025660 f   _nodert_generated.obj
 0001:0002466c       ?dtor$1@?0??AddListener@WiFiAdapter@WiFi@Devices@Windows@NodeRT@@CAXAEBV?$FunctionCallbackInfo@VValue@v8@@@Nan@@@Z@4HA 000000018002566c f   _nodert_generated.obj
 0001:0002467a       ?dtor$3@?0??AddListener@WiFiAdapter@WiFi@Devices@Windows@NodeRT@@CAXAEBV?$FunctionCallbackInfo@VValue@v8@@@Nan@@@Z@4HA 000000018002567a f   _nodert_generated.obj
 0001:00024686       ?dtor$4@?0??AddListener@WiFiAdapter@WiFi@Devices@Windows@NodeRT@@CAXAEBV?$FunctionCallbackInfo@VValue@v8@@@Nan@@@Z@4HA 0000000180025686 f   _nodert_generated.obj
 0001:000246a6       ?dtor$6@?0??AddListener@WiFiAdapter@WiFi@Devices@Windows@NodeRT@@CAXAEBV?$FunctionCallbackInfo@VValue@v8@@@Nan@@@Z@4HA 00000001800256a6 f   _nodert_generated.obj
 0001:000246b2       ?catch$20@?0??AddListener@WiFiAdapter@WiFi@Devices@Windows@NodeRT@@CAXAEBV?$FunctionCallbackInfo@VValue@v8@@@Nan@@@Z@4HA 00000001800256b2 f   _nodert_generated.obj
 0001:000246bf       __catch$?AddListener@WiFiAdapter@WiFi@Devices@Windows@NodeRT@@CAXAEBV?$FunctionCallbackInfo@VValue@v8@@@Nan@@@Z$0 00000001800256bf f   _nodert_generated.obj
 0001:000246da       ?dtor$7@?0??AddListener@WiFiAdapter@WiFi@Devices@Windows@NodeRT@@CAXAEBV?$FunctionCallbackInfo@VValue@v8@@@Nan@@@Z@4HA 00000001800256da f   _nodert_generated.obj
 0001:000246f0       ?dtor$0@?0???R<lambda_6e21da2768ea61b27f3b85c7b781b2f7>@@QEBAXPE$AAVWiFiAdapter@WiFi@Devices@Windows@@PE$AAVObject@Platform@@@Z@4HA 00000001800256f0 f   _nodert_generated.obj
 0001:000246fc       ?dtor$1@?0???R<lambda_6e21da2768ea61b27f3b85c7b781b2f7>@@QEBAXPE$AAVWiFiAdapter@WiFi@Devices@Windows@@PE$AAVObject@Platform@@@Z@4HA 00000001800256fc f   _nodert_generated.obj
 0001:00024708       ?dtor$4@?0???R<lambda_6e21da2768ea61b27f3b85c7b781b2f7>@@QEBAXPE$AAVWiFiAdapter@WiFi@Devices@Windows@@PE$AAVObject@Platform@@@Z@4HA 0000000180025708 f   _nodert_generated.obj
 0001:00024714       ?dtor$5@?0???R<lambda_6e21da2768ea61b27f3b85c7b781b2f7>@@QEBAXPE$AAVWiFiAdapter@WiFi@Devices@Windows@@PE$AAVObject@Platform@@@Z@4HA 0000000180025714 f   _nodert_generated.obj
 0001:00024730       ?dtor$0@?0???R<lambda_2de1eaeeb1391f2030b03d1ef75d3eb0>@@QEBAXXZ@4HA 0000000180025730 f   _nodert_generated.obj
 0001:0002473c       ?dtor$1@?0???R<lambda_2de1eaeeb1391f2030b03d1ef75d3eb0>@@QEBAXXZ@4HA 000000018002573c f   _nodert_generated.obj
 0001:00024750       ?dtor$0@?0??RemoveListener@WiFiAdapter@WiFi@Devices@Windows@NodeRT@@CAXAEBV?$FunctionCallbackInfo@VValue@v8@@@Nan@@@Z@4HA 0000000180025750 f   _nodert_generated.obj
 0001:0002475c       ?dtor$1@?0??RemoveListener@WiFiAdapter@WiFi@Devices@Windows@NodeRT@@CAXAEBV?$FunctionCallbackInfo@VValue@v8@@@Nan@@@Z@4HA 000000018002575c f   _nodert_generated.obj
 0001:0002476a       ?dtor$2@?0??RemoveListener@WiFiAdapter@WiFi@Devices@Windows@NodeRT@@CAXAEBV?$FunctionCallbackInfo@VValue@v8@@@Nan@@@Z@4HA 000000018002576a f   _nodert_generated.obj
 0001:00024776       ?dtor$10@?0??RemoveListener@WiFiAdapter@WiFi@Devices@Windows@NodeRT@@CAXAEBV?$FunctionCallbackInfo@VValue@v8@@@Nan@@@Z@4HA 0000000180025776 f   _nodert_generated.obj
 0001:00024782       ?catch$16@?0??RemoveListener@WiFiAdapter@WiFi@Devices@Windows@NodeRT@@CAXAEBV?$FunctionCallbackInfo@VValue@v8@@@Nan@@@Z@4HA 0000000180025782 f   _nodert_generated.obj
 0001:0002478f       __catch$?RemoveListener@WiFiAdapter@WiFi@Devices@Windows@NodeRT@@CAXAEBV?$FunctionCallbackInfo@VValue@v8@@@Nan@@@Z$0 000000018002578f f   _nodert_generated.obj
 0001:000247b0       ?dtor$0@?0??New@WiFiNetworkReport@WiFi@Devices@Windows@NodeRT@@CAXAEBV?$FunctionCallbackInfo@VValue@v8@@@Nan@@@Z@4HA 00000001800257b0 f   _nodert_generated.obj
 0001:000247bc       ?dtor$2@?0??New@WiFiNetworkReport@WiFi@Devices@Windows@NodeRT@@CAXAEBV?$FunctionCallbackInfo@VValue@v8@@@Nan@@@Z@4HA 00000001800257bc f   _nodert_generated.obj
 0001:000247c8       ?dtor$3@?0??New@WiFiNetworkReport@WiFi@Devices@Windows@NodeRT@@CAXAEBV?$FunctionCallbackInfo@VValue@v8@@@Nan@@@Z@4HA 00000001800257c8 f   _nodert_generated.obj
 0001:000247d4       ?dtor$4@?0??New@WiFiNetworkReport@WiFi@Devices@Windows@NodeRT@@CAXAEBV?$FunctionCallbackInfo@VValue@v8@@@Nan@@@Z@4HA 00000001800257d4 f   _nodert_generated.obj
 0001:000247e0       ?dtor$5@?0??New@WiFiNetworkReport@WiFi@Devices@Windows@NodeRT@@CAXAEBV?$FunctionCallbackInfo@VValue@v8@@@Nan@@@Z@4HA 00000001800257e0 f   _nodert_generated.obj
 0001:000247ec       ?catch$22@?0??New@WiFiNetworkReport@WiFi@Devices@Windows@NodeRT@@CAXAEBV?$FunctionCallbackInfo@VValue@v8@@@Nan@@@Z@4HA 00000001800257ec f   _nodert_generated.obj
 0001:000247f9       __catch$?New@WiFiNetworkReport@WiFi@Devices@Windows@NodeRT@@CAXAEBV?$FunctionCallbackInfo@VValue@v8@@@Nan@@@Z$0 00000001800257f9 f   _nodert_generated.obj
 0001:00024811       ?dtor$6@?0??New@WiFiNetworkReport@WiFi@Devices@Windows@NodeRT@@CAXAEBV?$FunctionCallbackInfo@VValue@v8@@@Nan@@@Z@4HA 0000000180025811 f   _nodert_generated.obj
 0001:00024831       ?dtor$19@?0??New@WiFiNetworkReport@WiFi@Devices@Windows@NodeRT@@CAXAEBV?$FunctionCallbackInfo@VValue@v8@@@Nan@@@Z@4HA 0000000180025831 f   _nodert_generated.obj
 0001:0002483d       ?dtor$20@?0??New@WiFiNetworkReport@WiFi@Devices@Windows@NodeRT@@CAXAEBV?$FunctionCallbackInfo@VValue@v8@@@Nan@@@Z@4HA 000000018002583d f   _nodert_generated.obj
 0001:00024850       ?dtor$0@?0??CastFrom@WiFiNetworkReport@WiFi@Devices@Windows@NodeRT@@CAXAEBV?$FunctionCallbackInfo@VValue@v8@@@Nan@@@Z@4HA 0000000180025850 f   _nodert_generated.obj
 0001:0002485c       ?dtor$1@?0??CastFrom@WiFiNetworkReport@WiFi@Devices@Windows@NodeRT@@CAXAEBV?$FunctionCallbackInfo@VValue@v8@@@Nan@@@Z@4HA 000000018002585c f   _nodert_generated.obj
 0001:00024868       ?dtor$2@?0??CastFrom@WiFiNetworkReport@WiFi@Devices@Windows@NodeRT@@CAXAEBV?$FunctionCallbackInfo@VValue@v8@@@Nan@@@Z@4HA 0000000180025868 f   _nodert_generated.obj
 0001:00024874       ?dtor$3@?0??CastFrom@WiFiNetworkReport@WiFi@Devices@Windows@NodeRT@@CAXAEBV?$FunctionCallbackInfo@VValue@v8@@@Nan@@@Z@4HA 0000000180025874 f   _nodert_generated.obj
 0001:00024880       ?catch$8@?0??CastFrom@WiFiNetworkReport@WiFi@Devices@Windows@NodeRT@@CAXAEBV?$FunctionCallbackInfo@VValue@v8@@@Nan@@@Z@4HA 0000000180025880 f   _nodert_generated.obj
 0001:0002488d       __catch$?CastFrom@WiFiNetworkReport@WiFi@Devices@Windows@NodeRT@@CAXAEBV?$FunctionCallbackInfo@VValue@v8@@@Nan@@@Z$0 000000018002588d f   _nodert_generated.obj
 0001:000248b0       ?dtor$0@?0??AvailableNetworksGetter@WiFiNetworkReport@WiFi@Devices@Windows@NodeRT@@CAXV?$Local@VString@v8@@@v8@@AEBV?$PropertyCallbackInfo@VValue@v8@@@Nan@@@Z@4HA 00000001800258b0 f   _nodert_generated.obj
 0001:000248bc       ?dtor$8@?0??AvailableNetworksGetter@WiFiNetworkReport@WiFi@Devices@Windows@NodeRT@@CAXV?$Local@VString@v8@@@v8@@AEBV?$PropertyCallbackInfo@VValue@v8@@@Nan@@@Z@4HA 00000001800258bc f   _nodert_generated.obj
 0001:000248c8       ?dtor$1@?0??AvailableNetworksGetter@WiFiNetworkReport@WiFi@Devices@Windows@NodeRT@@CAXV?$Local@VString@v8@@@v8@@AEBV?$PropertyCallbackInfo@VValue@v8@@@Nan@@@Z@4HA 00000001800258c8 f   _nodert_generated.obj
 0001:000248d4       ?dtor$2@?0??AvailableNetworksGetter@WiFiNetworkReport@WiFi@Devices@Windows@NodeRT@@CAXV?$Local@VString@v8@@@v8@@AEBV?$PropertyCallbackInfo@VValue@v8@@@Nan@@@Z@4HA 00000001800258d4 f   _nodert_generated.obj
 0001:000248e0       ?dtor$3@?0??AvailableNetworksGetter@WiFiNetworkReport@WiFi@Devices@Windows@NodeRT@@CAXV?$Local@VString@v8@@@v8@@AEBV?$PropertyCallbackInfo@VValue@v8@@@Nan@@@Z@4HA 00000001800258e0 f   _nodert_generated.obj
 0001:000248ec       ?dtor$4@?0??AvailableNetworksGetter@WiFiNetworkReport@WiFi@Devices@Windows@NodeRT@@CAXV?$Local@VString@v8@@@v8@@AEBV?$PropertyCallbackInfo@VValue@v8@@@Nan@@@Z@4HA 00000001800258ec f   _nodert_generated.obj
 0001:000248f8       ?dtor$5@?0??AvailableNetworksGetter@WiFiNetworkReport@WiFi@Devices@Windows@NodeRT@@CAXV?$Local@VString@v8@@@v8@@AEBV?$PropertyCallbackInfo@VValue@v8@@@Nan@@@Z@4HA 00000001800258f8 f   _nodert_generated.obj
 0001:00024904       ?catch$15@?0??AvailableNetworksGetter@WiFiNetworkReport@WiFi@Devices@Windows@NodeRT@@CAXV?$Local@VString@v8@@@v8@@AEBV?$PropertyCallbackInfo@VValue@v8@@@Nan@@@Z@4HA 0000000180025904 f   _nodert_generated.obj
 0001:00024911       __catch$?AvailableNetworksGetter@WiFiNetworkReport@WiFi@Devices@Windows@NodeRT@@CAXV?$Local@VString@v8@@@v8@@AEBV?$PropertyCallbackInfo@VValue@v8@@@Nan@@@Z$0 0000000180025911 f   _nodert_generated.obj
 0001:00024930       ?dtor$0@?0??TimestampGetter@WiFiNetworkReport@WiFi@Devices@Windows@NodeRT@@CAXV?$Local@VString@v8@@@v8@@AEBV?$PropertyCallbackInfo@VValue@v8@@@Nan@@@Z@4HA 0000000180025930 f   _nodert_generated.obj
 0001:0002493c       ?catch$7@?0??TimestampGetter@WiFiNetworkReport@WiFi@Devices@Windows@NodeRT@@CAXV?$Local@VString@v8@@@v8@@AEBV?$PropertyCallbackInfo@VValue@v8@@@Nan@@@Z@4HA 000000018002593c f   _nodert_generated.obj
 0001:00024949       __catch$?TimestampGetter@WiFiNetworkReport@WiFi@Devices@Windows@NodeRT@@CAXV?$Local@VString@v8@@@v8@@AEBV?$PropertyCallbackInfo@VValue@v8@@@Nan@@@Z$0 0000000180025949 f   _nodert_generated.obj
 0001:00024970       ?dtor$0@?0??New@WiFiAvailableNetwork@WiFi@Devices@Windows@NodeRT@@CAXAEBV?$FunctionCallbackInfo@VValue@v8@@@Nan@@@Z@4HA 0000000180025970 f   _nodert_generated.obj
 0001:0002497c       ?dtor$2@?0??New@WiFiAvailableNetwork@WiFi@Devices@Windows@NodeRT@@CAXAEBV?$FunctionCallbackInfo@VValue@v8@@@Nan@@@Z@4HA 000000018002597c f   _nodert_generated.obj
 0001:00024988       ?dtor$3@?0??New@WiFiAvailableNetwork@WiFi@Devices@Windows@NodeRT@@CAXAEBV?$FunctionCallbackInfo@VValue@v8@@@Nan@@@Z@4HA 0000000180025988 f   _nodert_generated.obj
 0001:00024994       ?dtor$4@?0??New@WiFiAvailableNetwork@WiFi@Devices@Windows@NodeRT@@CAXAEBV?$FunctionCallbackInfo@VValue@v8@@@Nan@@@Z@4HA 0000000180025994 f   _nodert_generated.obj
 0001:000249a0       ?dtor$5@?0??New@WiFiAvailableNetwork@WiFi@Devices@Windows@NodeRT@@CAXAEBV?$FunctionCallbackInfo@VValue@v8@@@Nan@@@Z@4HA 00000001800259a0 f   _nodert_generated.obj
 0001:000249ac       ?catch$22@?0??New@WiFiAvailableNetwork@WiFi@Devices@Windows@NodeRT@@CAXAEBV?$FunctionCallbackInfo@VValue@v8@@@Nan@@@Z@4HA 00000001800259ac f   _nodert_generated.obj
 0001:000249b9       __catch$?New@WiFiAvailableNetwork@WiFi@Devices@Windows@NodeRT@@CAXAEBV?$FunctionCallbackInfo@VValue@v8@@@Nan@@@Z$0 00000001800259b9 f   _nodert_generated.obj
 0001:000249d1       ?dtor$6@?0??New@WiFiAvailableNetwork@WiFi@Devices@Windows@NodeRT@@CAXAEBV?$FunctionCallbackInfo@VValue@v8@@@Nan@@@Z@4HA 00000001800259d1 f   _nodert_generated.obj
 0001:000249f1       ?dtor$19@?0??New@WiFiAvailableNetwork@WiFi@Devices@Windows@NodeRT@@CAXAEBV?$FunctionCallbackInfo@VValue@v8@@@Nan@@@Z@4HA 00000001800259f1 f   _nodert_generated.obj
 0001:000249fd       ?dtor$20@?0??New@WiFiAvailableNetwork@WiFi@Devices@Windows@NodeRT@@CAXAEBV?$FunctionCallbackInfo@VValue@v8@@@Nan@@@Z@4HA 00000001800259fd f   _nodert_generated.obj
 0001:00024a10       ?dtor$0@?0??CastFrom@WiFiAvailableNetwork@WiFi@Devices@Windows@NodeRT@@CAXAEBV?$FunctionCallbackInfo@VValue@v8@@@Nan@@@Z@4HA 0000000180025a10 f   _nodert_generated.obj
 0001:00024a1c       ?dtor$1@?0??CastFrom@WiFiAvailableNetwork@WiFi@Devices@Windows@NodeRT@@CAXAEBV?$FunctionCallbackInfo@VValue@v8@@@Nan@@@Z@4HA 0000000180025a1c f   _nodert_generated.obj
 0001:00024a28       ?dtor$2@?0??CastFrom@WiFiAvailableNetwork@WiFi@Devices@Windows@NodeRT@@CAXAEBV?$FunctionCallbackInfo@VValue@v8@@@Nan@@@Z@4HA 0000000180025a28 f   _nodert_generated.obj
 0001:00024a34       ?dtor$3@?0??CastFrom@WiFiAvailableNetwork@WiFi@Devices@Windows@NodeRT@@CAXAEBV?$FunctionCallbackInfo@VValue@v8@@@Nan@@@Z@4HA 0000000180025a34 f   _nodert_generated.obj
 0001:00024a40       ?catch$8@?0??CastFrom@WiFiAvailableNetwork@WiFi@Devices@Windows@NodeRT@@CAXAEBV?$FunctionCallbackInfo@VValue@v8@@@Nan@@@Z@4HA 0000000180025a40 f   _nodert_generated.obj
 0001:00024a4d       __catch$?CastFrom@WiFiAvailableNetwork@WiFi@Devices@Windows@NodeRT@@CAXAEBV?$FunctionCallbackInfo@VValue@v8@@@Nan@@@Z$0 0000000180025a4d f   _nodert_generated.obj
 0001:00024a70       ?dtor$0@?0??BeaconIntervalGetter@WiFiAvailableNetwork@WiFi@Devices@Windows@NodeRT@@CAXV?$Local@VString@v8@@@v8@@AEBV?$PropertyCallbackInfo@VValue@v8@@@Nan@@@Z@4HA 0000000180025a70 f   _nodert_generated.obj
 0001:00024a7c       ?catch$6@?0??BeaconIntervalGetter@WiFiAvailableNetwork@WiFi@Devices@Windows@NodeRT@@CAXV?$Local@VString@v8@@@v8@@AEBV?$PropertyCallbackInfo@VValue@v8@@@Nan@@@Z@4HA 0000000180025a7c f   _nodert_generated.obj
 0001:00024a89       __catch$?BeaconIntervalGetter@WiFiAvailableNetwork@WiFi@Devices@Windows@NodeRT@@CAXV?$Local@VString@v8@@@v8@@AEBV?$PropertyCallbackInfo@VValue@v8@@@Nan@@@Z$0 0000000180025a89 f   _nodert_generated.obj
 0001:00024ab0       ?dtor$0@?0??BssidGetter@WiFiAvailableNetwork@WiFi@Devices@Windows@NodeRT@@CAXV?$Local@VString@v8@@@v8@@AEBV?$PropertyCallbackInfo@VValue@v8@@@Nan@@@Z@4HA 0000000180025ab0 f   _nodert_generated.obj
 0001:00024abc       ?dtor$1@?0??BssidGetter@WiFiAvailableNetwork@WiFi@Devices@Windows@NodeRT@@CAXV?$Local@VString@v8@@@v8@@AEBV?$PropertyCallbackInfo@VValue@v8@@@Nan@@@Z@4HA 0000000180025abc f   _nodert_generated.obj
 0001:00024ac8       ?dtor$2@?0??BssidGetter@WiFiAvailableNetwork@WiFi@Devices@Windows@NodeRT@@CAXV?$Local@VString@v8@@@v8@@AEBV?$PropertyCallbackInfo@VValue@v8@@@Nan@@@Z@4HA 0000000180025ac8 f   _nodert_generated.obj
 0001:00024ad4       ?catch$8@?0??BssidGetter@WiFiAvailableNetwork@WiFi@Devices@Windows@NodeRT@@CAXV?$Local@VString@v8@@@v8@@AEBV?$PropertyCallbackInfo@VValue@v8@@@Nan@@@Z@4HA 0000000180025ad4 f   _nodert_generated.obj
 0001:00024ae1       __catch$?BssidGetter@WiFiAvailableNetwork@WiFi@Devices@Windows@NodeRT@@CAXV?$Local@VString@v8@@@v8@@AEBV?$PropertyCallbackInfo@VValue@v8@@@Nan@@@Z$0 0000000180025ae1 f   _nodert_generated.obj
 0001:00024b00       ?dtor$0@?0??ChannelCenterFrequencyInKilohertzGetter@WiFiAvailableNetwork@WiFi@Devices@Windows@NodeRT@@CAXV?$Local@VString@v8@@@v8@@AEBV?$PropertyCallbackInfo@VValue@v8@@@Nan@@@Z@4HA 0000000180025b00 f   _nodert_generated.obj
 0001:00024b0c       ?catch$7@?0??ChannelCenterFrequencyInKilohertzGetter@WiFiAvailableNetwork@WiFi@Devices@Windows@NodeRT@@CAXV?$Local@VString@v8@@@v8@@AEBV?$PropertyCallbackInfo@VValue@v8@@@Nan@@@Z@4HA 0000000180025b0c f   _nodert_generated.obj
 0001:00024b19       __catch$?ChannelCenterFrequencyInKilohertzGetter@WiFiAvailableNetwork@WiFi@Devices@Windows@NodeRT@@CAXV?$Local@VString@v8@@@v8@@AEBV?$PropertyCallbackInfo@VValue@v8@@@Nan@@@Z$0 0000000180025b19 f   _nodert_generated.obj
 0001:00024b40       ?dtor$0@?0??IsWiFiDirectGetter@WiFiAvailableNetwork@WiFi@Devices@Windows@NodeRT@@CAXV?$Local@VString@v8@@@v8@@AEBV?$PropertyCallbackInfo@VValue@v8@@@Nan@@@Z@4HA 0000000180025b40 f   _nodert_generated.obj
 0001:00024b4c       ?catch$6@?0??IsWiFiDirectGetter@WiFiAvailableNetwork@WiFi@Devices@Windows@NodeRT@@CAXV?$Local@VString@v8@@@v8@@AEBV?$PropertyCallbackInfo@VValue@v8@@@Nan@@@Z@4HA 0000000180025b4c f   _nodert_generated.obj
 0001:00024b59       __catch$?IsWiFiDirectGetter@WiFiAvailableNetwork@WiFi@Devices@Windows@NodeRT@@CAXV?$Local@VString@v8@@@v8@@AEBV?$PropertyCallbackInfo@VValue@v8@@@Nan@@@Z$0 0000000180025b59 f   _nodert_generated.obj
 0001:00024b80       ?dtor$0@?0??NetworkKindGetter@WiFiAvailableNetwork@WiFi@Devices@Windows@NodeRT@@CAXV?$Local@VString@v8@@@v8@@AEBV?$PropertyCallbackInfo@VValue@v8@@@Nan@@@Z@4HA 0000000180025b80 f   _nodert_generated.obj
 0001:00024b8c       ?catch$7@?0??NetworkKindGetter@WiFiAvailableNetwork@WiFi@Devices@Windows@NodeRT@@CAXV?$Local@VString@v8@@@v8@@AEBV?$PropertyCallbackInfo@VValue@v8@@@Nan@@@Z@4HA 0000000180025b8c f   _nodert_generated.obj
 0001:00024b99       __catch$?NetworkKindGetter@WiFiAvailableNetwork@WiFi@Devices@Windows@NodeRT@@CAXV?$Local@VString@v8@@@v8@@AEBV?$PropertyCallbackInfo@VValue@v8@@@Nan@@@Z$0 0000000180025b99 f   _nodert_generated.obj
 0001:00024bc0       ?dtor$0@?0??NetworkRssiInDecibelMilliwattsGetter@WiFiAvailableNetwork@WiFi@Devices@Windows@NodeRT@@CAXV?$Local@VString@v8@@@v8@@AEBV?$PropertyCallbackInfo@VValue@v8@@@Nan@@@Z@4HA 0000000180025bc0 f   _nodert_generated.obj
 0001:00024bcc       ?catch$6@?0??NetworkRssiInDecibelMilliwattsGetter@WiFiAvailableNetwork@WiFi@Devices@Windows@NodeRT@@CAXV?$Local@VString@v8@@@v8@@AEBV?$PropertyCallbackInfo@VValue@v8@@@Nan@@@Z@4HA 0000000180025bcc f   _nodert_generated.obj
 0001:00024bd9       __catch$?NetworkRssiInDecibelMilliwattsGetter@WiFiAvailableNetwork@WiFi@Devices@Windows@NodeRT@@CAXV?$Local@VString@v8@@@v8@@AEBV?$PropertyCallbackInfo@VValue@v8@@@Nan@@@Z$0 0000000180025bd9 f   _nodert_generated.obj
 0001:00024c00       ?dtor$0@?0??PhyKindGetter@WiFiAvailableNetwork@WiFi@Devices@Windows@NodeRT@@CAXV?$Local@VString@v8@@@v8@@AEBV?$PropertyCallbackInfo@VValue@v8@@@Nan@@@Z@4HA 0000000180025c00 f   _nodert_generated.obj
 0001:00024c0c       ?catch$7@?0??PhyKindGetter@WiFiAvailableNetwork@WiFi@Devices@Windows@NodeRT@@CAXV?$Local@VString@v8@@@v8@@AEBV?$PropertyCallbackInfo@VValue@v8@@@Nan@@@Z@4HA 0000000180025c0c f   _nodert_generated.obj
 0001:00024c19       __catch$?PhyKindGetter@WiFiAvailableNetwork@WiFi@Devices@Windows@NodeRT@@CAXV?$Local@VString@v8@@@v8@@AEBV?$PropertyCallbackInfo@VValue@v8@@@Nan@@@Z$0 0000000180025c19 f   _nodert_generated.obj
 0001:00024c40       ?dtor$0@?0??SecuritySettingsGetter@WiFiAvailableNetwork@WiFi@Devices@Windows@NodeRT@@CAXV?$Local@VString@v8@@@v8@@AEBV?$PropertyCallbackInfo@VValue@v8@@@Nan@@@Z@4HA 0000000180025c40 f   _nodert_generated.obj
 0001:00024c4c       ?dtor$5@?0??SecuritySettingsGetter@WiFiAvailableNetwork@WiFi@Devices@Windows@NodeRT@@CAXV?$Local@VString@v8@@@v8@@AEBV?$PropertyCallbackInfo@VValue@v8@@@Nan@@@Z@4HA 0000000180025c4c f   _nodert_generated.obj
 0001:00024c58       ?dtor$1@?0??SecuritySettingsGetter@WiFiAvailableNetwork@WiFi@Devices@Windows@NodeRT@@CAXV?$Local@VString@v8@@@v8@@AEBV?$PropertyCallbackInfo@VValue@v8@@@Nan@@@Z@4HA 0000000180025c58 f   _nodert_generated.obj
 0001:00024c64       ?dtor$2@?0??SecuritySettingsGetter@WiFiAvailableNetwork@WiFi@Devices@Windows@NodeRT@@CAXV?$Local@VString@v8@@@v8@@AEBV?$PropertyCallbackInfo@VValue@v8@@@Nan@@@Z@4HA 0000000180025c64 f   _nodert_generated.obj
 0001:00024c70       ?catch$9@?0??SecuritySettingsGetter@WiFiAvailableNetwork@WiFi@Devices@Windows@NodeRT@@CAXV?$Local@VString@v8@@@v8@@AEBV?$PropertyCallbackInfo@VValue@v8@@@Nan@@@Z@4HA 0000000180025c70 f   _nodert_generated.obj
 0001:00024c7d       __catch$?SecuritySettingsGetter@WiFiAvailableNetwork@WiFi@Devices@Windows@NodeRT@@CAXV?$Local@VString@v8@@@v8@@AEBV?$PropertyCallbackInfo@VValue@v8@@@Nan@@@Z$0 0000000180025c7d f   _nodert_generated.obj
 0001:00024ca0       ?dtor$0@?0??SignalBarsGetter@WiFiAvailableNetwork@WiFi@Devices@Windows@NodeRT@@CAXV?$Local@VString@v8@@@v8@@AEBV?$PropertyCallbackInfo@VValue@v8@@@Nan@@@Z@4HA 0000000180025ca0 f   _nodert_generated.obj
 0001:00024cac       ?catch$7@?0??SignalBarsGetter@WiFiAvailableNetwork@WiFi@Devices@Windows@NodeRT@@CAXV?$Local@VString@v8@@@v8@@AEBV?$PropertyCallbackInfo@VValue@v8@@@Nan@@@Z@4HA 0000000180025cac f   _nodert_generated.obj
 0001:00024cb9       __catch$?SignalBarsGetter@WiFiAvailableNetwork@WiFi@Devices@Windows@NodeRT@@CAXV?$Local@VString@v8@@@v8@@AEBV?$PropertyCallbackInfo@VValue@v8@@@Nan@@@Z$0 0000000180025cb9 f   _nodert_generated.obj
 0001:00024ce0       ?dtor$0@?0??SsidGetter@WiFiAvailableNetwork@WiFi@Devices@Windows@NodeRT@@CAXV?$Local@VString@v8@@@v8@@AEBV?$PropertyCallbackInfo@VValue@v8@@@Nan@@@Z@4HA 0000000180025ce0 f   _nodert_generated.obj
 0001:00024cec       ?dtor$1@?0??SsidGetter@WiFiAvailableNetwork@WiFi@Devices@Windows@NodeRT@@CAXV?$Local@VString@v8@@@v8@@AEBV?$PropertyCallbackInfo@VValue@v8@@@Nan@@@Z@4HA 0000000180025cec f   _nodert_generated.obj
 0001:00024cf8       ?dtor$2@?0??SsidGetter@WiFiAvailableNetwork@WiFi@Devices@Windows@NodeRT@@CAXV?$Local@VString@v8@@@v8@@AEBV?$PropertyCallbackInfo@VValue@v8@@@Nan@@@Z@4HA 0000000180025cf8 f   _nodert_generated.obj
 0001:00024d04       ?catch$8@?0??SsidGetter@WiFiAvailableNetwork@WiFi@Devices@Windows@NodeRT@@CAXV?$Local@VString@v8@@@v8@@AEBV?$PropertyCallbackInfo@VValue@v8@@@Nan@@@Z@4HA 0000000180025d04 f   _nodert_generated.obj
 0001:00024d11       __catch$?SsidGetter@WiFiAvailableNetwork@WiFi@Devices@Windows@NodeRT@@CAXV?$Local@VString@v8@@@v8@@AEBV?$PropertyCallbackInfo@VValue@v8@@@Nan@@@Z$0 0000000180025d11 f   _nodert_generated.obj
 0001:00024d30       ?dtor$0@?0??UptimeGetter@WiFiAvailableNetwork@WiFi@Devices@Windows@NodeRT@@CAXV?$Local@VString@v8@@@v8@@AEBV?$PropertyCallbackInfo@VValue@v8@@@Nan@@@Z@4HA 0000000180025d30 f   _nodert_generated.obj
 0001:00024d3c       ?catch$6@?0??UptimeGetter@WiFiAvailableNetwork@WiFi@Devices@Windows@NodeRT@@CAXV?$Local@VString@v8@@@v8@@AEBV?$PropertyCallbackInfo@VValue@v8@@@Nan@@@Z@4HA 0000000180025d3c f   _nodert_generated.obj
 0001:00024d49       __catch$?UptimeGetter@WiFiAvailableNetwork@WiFi@Devices@Windows@NodeRT@@CAXV?$Local@VString@v8@@@v8@@AEBV?$PropertyCallbackInfo@VValue@v8@@@Nan@@@Z$0 0000000180025d49 f   _nodert_generated.obj
 0001:00024d70       ?dtor$0@?0??New@WiFiConnectionResult@WiFi@Devices@Windows@NodeRT@@CAXAEBV?$FunctionCallbackInfo@VValue@v8@@@Nan@@@Z@4HA 0000000180025d70 f   _nodert_generated.obj
 0001:00024d7c       ?dtor$2@?0??New@WiFiConnectionResult@WiFi@Devices@Windows@NodeRT@@CAXAEBV?$FunctionCallbackInfo@VValue@v8@@@Nan@@@Z@4HA 0000000180025d7c f   _nodert_generated.obj
 0001:00024d88       ?dtor$3@?0??New@WiFiConnectionResult@WiFi@Devices@Windows@NodeRT@@CAXAEBV?$FunctionCallbackInfo@VValue@v8@@@Nan@@@Z@4HA 0000000180025d88 f   _nodert_generated.obj
 0001:00024d94       ?dtor$4@?0??New@WiFiConnectionResult@WiFi@Devices@Windows@NodeRT@@CAXAEBV?$FunctionCallbackInfo@VValue@v8@@@Nan@@@Z@4HA 0000000180025d94 f   _nodert_generated.obj
 0001:00024da0       ?dtor$5@?0??New@WiFiConnectionResult@WiFi@Devices@Windows@NodeRT@@CAXAEBV?$FunctionCallbackInfo@VValue@v8@@@Nan@@@Z@4HA 0000000180025da0 f   _nodert_generated.obj
 0001:00024dac       ?catch$22@?0??New@WiFiConnectionResult@WiFi@Devices@Windows@NodeRT@@CAXAEBV?$FunctionCallbackInfo@VValue@v8@@@Nan@@@Z@4HA 0000000180025dac f   _nodert_generated.obj
 0001:00024db9       __catch$?New@WiFiConnectionResult@WiFi@Devices@Windows@NodeRT@@CAXAEBV?$FunctionCallbackInfo@VValue@v8@@@Nan@@@Z$0 0000000180025db9 f   _nodert_generated.obj
 0001:00024dd1       ?dtor$6@?0??New@WiFiConnectionResult@WiFi@Devices@Windows@NodeRT@@CAXAEBV?$FunctionCallbackInfo@VValue@v8@@@Nan@@@Z@4HA 0000000180025dd1 f   _nodert_generated.obj
 0001:00024df1       ?dtor$19@?0??New@WiFiConnectionResult@WiFi@Devices@Windows@NodeRT@@CAXAEBV?$FunctionCallbackInfo@VValue@v8@@@Nan@@@Z@4HA 0000000180025df1 f   _nodert_generated.obj
