 binding

 Timestamp is 599f325d (Thu Aug 24 16:09:01 2017)

 Preferred load address is 0000000180000000

 Start         Length     Name                   Class
 0001:00000000 00000150H .text$di                CODE
 0001:00000150 00032be0H .text$mn                CODE
 0001:00032d30 00000020H .text$mn$00             CODE
 0001:00032d50 00005ab0H .text$x                 CODE
 0001:00038800 0000028aH .text$yd                CODE
 0002:00000000 000004d0H .idata$5                DATA
 0002:000004d0 00000010H .00cfg                  DATA
 0002:000004e0 00000008H .CRT$XCA                DATA
 0002:000004e8 00000008H .CRT$XCL                DATA
 0002:000004f0 00000080H .CRT$XCU                DATA
 0002:00000570 00000008H .CRT$XCZ                DATA
 0002:00000578 00000008H .CRT$XIA                DATA
 0002:00000580 00000008H .CRT$XIC                DATA
 0002:00000588 00000008H .CRT$XIYB               DATA
 0002:00000590 00000008H .CRT$XIZ                DATA
 0002:00000598 00000008H .CRT$XLA                DATA
 0002:000005a0 00000008H .CRT$XLZ                DATA
 0002:000005a8 00000008H .CRT$XPA                DATA
 0002:000005b0 00000008H .CRT$XPZ                DATA
 0002:000005b8 00000008H .CRT$XTA                DATA
 0002:000005c0 00000010H .CRT$XTZ                DATA
 0002:000005d0 00007bd8H .rdata                  DATA
 0002:000081a8 00000028H .rdata$T                DATA
 0002:000081d0 0000045cH .rdata$r                DATA
 0002:0000862c 000004bcH .rdata$zzzdbg           DATA
 0002:00008ae8 00000008H .rtc$IAA                DATA
 0002:00008af0 00000008H .rtc$IZZ                DATA
 0002:00008af8 00000008H .rtc$TAA                DATA
 0002:00008b00 00000010H .rtc$TZZ                DATA
 0002:00008b10 00010cc0H .xdata                  DATA
 0002:000197d0 00000424H .xdata$x                DATA
 0002:00019bf4 00000020H .didat$2                DATA
 0002:00019c14 00000024H .didat$3                DATA
 0002:00019c38 00000270H .didat$4                DATA
 0002:00019ea8 000014a8H .didat$6                DATA
 0002:0001b350 00000270H .didat$7                DATA
 0002:0001b5c0 00000054H .edata                  DATA
 0002:0001b614 000000b4H .idata$2                DATA
 0002:0001b6c8 00000018H .idata$3                DATA
 0002:0001b6e0 000004d0H .idata$4                DATA
 0002:0001bbb0 0000144eH .idata$6                DATA
 0003:00000000 000021a0H .data                   DATA
 0003:000021a0 000016b0H .data$r                 DATA
 0003:00003850 00000270H .didat$5                DATA
 0003:00003ac0 000007d0H .bss                    DATA
 0004:00000000 000037c8H .pdata                  DATA
 0005:00000000 00000008H minATL$__a              DATA
 0005:00000008 00000008H minATL$__m              DATA
 0005:00000010 00000008H minATL$__z              DATA
 0006:00000000 000000acH .gfids$y                DATA
 0007:00000000 00000004H .tls                    DATA
 0007:00000004 00000004H .tls$                   DATA
 0007:00000008 00000001H .tls$ZZZ                DATA
 0008:00000000 00000060H .rsrc$01                DATA
 0008:00000060 00000180H .rsrc$02                DATA

  Address         Publics by Value              Rva+Base               Lib:Object

 0000:00000000       __guard_iat_table          0000000000000000     <absolute>
 0000:00000000       __dynamic_value_reloc_table 0000000000000000     <absolute>
 0000:00000000       __guard_iat_count          0000000000000000     <absolute>
 0000:00000000       __guard_longjmp_table      0000000000000000     <absolute>
 0000:00000000       __guard_longjmp_count      0000000000000000     <absolute>
 0000:00000000       __guard_fids_count         0000000000000000     <absolute>
 0000:00000000       ___safe_se_handler_table   0000000000000000     <absolute>
 0000:00000000       ___safe_se_handler_count   0000000000000000     <absolute>
 0000:00000000       __guard_fids_table         0000000000000000     <absolute>
 0000:00000100       __guard_flags              0000000000000100     <absolute>
 0000:00000000       __ImageBase                0000000180000000     <linker-defined>
 0001:00000150       ??$__abi_winrt_ptrto_delegate_dtor@V?$AsyncOperationCompletedHandler@PE$AAUIRandomAccessStream@Streams@Storage@Windows@@@Foundation@Windows@@@@YAXPE$ADV?$AsyncOperationCompletedHandler@PE$AAUIRandomAccessStream@Streams@Storage@Windows@@@Foundation@Windows@@@Z 0000000180001150 f i _nodert_generated.obj
 0001:00000150       ??$__abi_winrt_ptrto_delegate_dtor@V?$AsyncOperationCompletedHandler@PE$AAVKeyCredentialRetrievalResult@Credentials@Security@Windows@@@Foundation@Windows@@@@YAXPE$ADV?$AsyncOperationCompletedHandler@PE$AAVKeyCredentialRetrievalResult@Credentials@Security@Windows@@@Foundation@Windows@@@Z 0000000180001150 f i _nodert_generated.obj
 0001:00000150       ??$__abi_winrt_ptrto_delegate_dtor@V?$AsyncOperationCompletedHandler@PE$AAVKeyCredentialAttestationResult@Credentials@Security@Windows@@@Foundation@Windows@@@@YAXPE$ADV?$AsyncOperationCompletedHandler@PE$AAVKeyCredentialAttestationResult@Credentials@Security@Windows@@@Foundation@Windows@@@Z 0000000180001150 f i _nodert_generated.obj
 0001:00000150       ??$__abi_winrt_ptrto_delegate_dtor@V?$AsyncOperationCompletedHandler@PE$AAVKeyCredentialOperationResult@Credentials@Security@Windows@@@Foundation@Windows@@@@YAXPE$ADV?$AsyncOperationCompletedHandler@PE$AAVKeyCredentialOperationResult@Credentials@Security@Windows@@@Foundation@Windows@@@Z 0000000180001150 f i _nodert_generated.obj
 0001:00000150       ??$__abi_winrt_ptrto_delegate_dtor@VAsyncActionCompletedHandler@Foundation@Windows@@@@YAXPE$ADVAsyncActionCompletedHandler@Foundation@Windows@@@Z 0000000180001150 f i _nodert_generated.obj
 0001:00000150       ??$__abi_winrt_ptrto_delegate_dtor@V?$MapChangedEventHandler@PE$AAVString@Platform@@PE$AAVObject@2@@Collections@Foundation@Windows@@@@YAXPE$ADV?$MapChangedEventHandler@PE$AAVString@Platform@@PE$AAVObject@2@@Collections@Foundation@Windows@@@Z 0000000180001150 f i _nodert_generated.obj
 0001:00000150       ?__abi_winrt_ptr_dtor@@YAXQE$ADVObject@Platform@@@Z 0000000180001150 f i _nodert_generated.obj
 0001:00000150       ??$__abi_winrt_ptrto_delegate_dtor@V?$AsyncOperationCompletedHandler@_N@Foundation@Windows@@@@YAXPE$ADV?$AsyncOperationCompletedHandler@_N@Foundation@Windows@@@Z 0000000180001150 f i _nodert_generated.obj
 0001:00000150       ??$__abi_winrt_ptrto_delegate_dtor@V?$AsyncOperationCompletedHandler@E@Foundation@Windows@@@@YAXPE$ADV?$AsyncOperationCompletedHandler@E@Foundation@Windows@@@Z 0000000180001150 f i _nodert_generated.obj
 0001:00000160       ?__abi_winrt_ptrto_string_dtor@@YAXQE$ADVString@Platform@@@Z 0000000180001160 f i _nodert_generated.obj
 0001:00000170       ?__abi_dtor@__abi_FTMWeakRefData@@QEAAXXZ 0000000180001170 f i _nodert_generated.obj
 0001:00000210       ?Increment@__abi_FTMWeakRefData@@QECAKXZ 0000000180001210 f i _nodert_generated.obj
 0001:00000240       ?Decrement@__abi_FTMWeakRefData@@QECAKXZ 0000000180001240 f i _nodert_generated.obj
 0001:000002d0       ??_E__abi_CaptureBase@Details@Platform@@MEAAPEAXI@Z 00000001800012d0 f i * CIL library *:* CIL module *
 0001:000002d0       ??_G__abi_CaptureBase@Details@Platform@@MEAAPEAXI@Z 00000001800012d0 f i _nodert_generated.obj
 0001:00000300       ??1__abi_CapturePtr@Details@Platform@@QEAA@XZ 0000000180001300 f i _nodert_generated.obj
 0001:00000350       ?__abi_WinRTraiseException@@YAXJ@Z 0000000180001350 f i _nodert_generated.obj
 0001:00000440       ?__abi_winrt_ptrto_string_ctor@@YAPEAXPE$ADVString@Platform@@@Z 0000000180001440 f i _nodert_generated.obj
 0001:00000470       _guard_check_icall_nop     0000000180001470 f i MSVCRT:guard_support.obj
 0001:00000470       ?_Doraise@exception@stdext@@MEBAXXZ 0000000180001470 f i _nodert_generated.obj
 0001:00000470       ??3@YAXPEAX0@Z             0000000180001470 f i _nodert_generated.obj
 0001:00000470       ?PlacementFree@Heap@Details@Platform@@SAXPEAX0@Z 0000000180001470 f i _nodert_generated.obj
 0001:00000480       ?__abi_QueryInterface@__abi_FTMWeakRefData@@QEAAJAEAVGuid@Platform@@PEAPEAX@Z 0000000180001480 f i _nodert_generated.obj
 0001:00000550       ??0String@Platform@@QE$AAA@PEB_W@Z 0000000180001550 f i _nodert_generated.obj
 0001:000005b0       ??0exception@stdext@@QEAA@AEBV01@@Z 00000001800015b0 f i _nodert_generated.obj
 0001:000005d0       ?what@exception@stdext@@UEBAPEBDXZ 00000001800015d0 f i _nodert_generated.obj
 0001:000005f0       ?_Raise@exception@stdext@@QEBAXXZ 00000001800015f0 f i _nodert_generated.obj
 0001:00000630       ??_Einvalid_operation@Concurrency@@UEAAPEAXI@Z 0000000180001630 f i * CIL library *:* CIL module *
 0001:00000630       ??_Gruntime_error@std@@UEAAPEAXI@Z 0000000180001630 f i _nodert_generated.obj
 0001:00000630       ??_Gexception@stdext@@UEAAPEAXI@Z 0000000180001630 f i _nodert_generated.obj
 0001:00000630       ??_Eruntime_error@std@@UEAAPEAXI@Z 0000000180001630 f i * CIL library *:* CIL module *
 0001:00000630       ??_Etask_canceled@Concurrency@@UEAAPEAXI@Z 0000000180001630 f i * CIL library *:* CIL module *
 0001:00000630       ??_Eexception@stdext@@UEAAPEAXI@Z 0000000180001630 f i * CIL library *:* CIL module *
 0001:00000630       ??_Ginvalid_operation@Concurrency@@UEAAPEAXI@Z 0000000180001630 f i _nodert_generated.obj
 0001:00000630       ??_Gtask_canceled@Concurrency@@UEAAPEAXI@Z 0000000180001630 f i _nodert_generated.obj
 0001:00000660       ??1exception_ptr@std@@QEAA@XZ 0000000180001660 f i _nodert_generated.obj
 0001:00000670       ?_Current_exception@exception_ptr@std@@SA?AV12@XZ 0000000180001670 f i _nodert_generated.obj
 0001:000006a0       ?_Copy_exception@exception_ptr@std@@SA?AV12@PEAXPEBX@Z 00000001800016a0 f i _nodert_generated.obj
 0001:00000710       ?current_exception@std@@YA?AVexception_ptr@1@XZ 0000000180001710 f i _nodert_generated.obj
 0001:00000730       ?_Doraise@runtime_error@std@@MEBAXXZ 0000000180001730 f i _nodert_generated.obj
 0001:00000750       ??1runtime_error@std@@UEAA@XZ 0000000180001750 f i _nodert_generated.obj
 0001:00000750       ??1invalid_operation@Concurrency@@UEAA@XZ 0000000180001750 f i _nodert_generated.obj
 0001:00000750       ??1task_canceled@Concurrency@@UEAA@XZ 0000000180001750 f i _nodert_generated.obj
 0001:00000a30       ?Equals@Nan@@YA?AV?$Maybe@_N@v8@@V?$Local@VValue@v8@@@3@0@Z 0000000180001a30 f i _nodert_generated.obj
 0001:00000ab0       ?NewInstance@Nan@@YA?AV?$MaybeLocal@VObject@v8@@@v8@@V?$Local@VFunction@v8@@@3@HQEAV?$Local@VValue@v8@@@3@@Z 0000000180001ab0 f i _nodert_generated.obj
 0001:00000b60       ?NewInstance@Nan@@YA?AV?$MaybeLocal@VObject@v8@@@v8@@V?$Local@VObjectTemplate@v8@@@3@@Z 0000000180001b60 f i _nodert_generated.obj
 0001:00000be0       ?GetFunction@Nan@@YA?AV?$MaybeLocal@VFunction@v8@@@v8@@V?$Local@VFunctionTemplate@v8@@@3@@Z 0000000180001be0 f i _nodert_generated.obj
 0001:00000c60       ?Set@Nan@@YA?AV?$Maybe@_N@v8@@V?$Local@VObject@v8@@@3@V?$Local@VValue@v8@@@3@1@Z 0000000180001c60 f i _nodert_generated.obj
 0001:00000cf0       ?Get@Nan@@YA?AV?$MaybeLocal@VValue@v8@@@v8@@V?$Local@VObject@v8@@@3@V?$Local@VValue@v8@@@3@@Z 0000000180001cf0 f i _nodert_generated.obj
 0001:00000d80       ?Delete@Nan@@YA?AV?$Maybe@_N@v8@@V?$Local@VObject@v8@@@3@V?$Local@VString@v8@@@3@@Z 0000000180001d80 f i _nodert_generated.obj
 0001:00000e00       ?SetPrototype@Nan@@YA?AV?$Maybe@_N@v8@@V?$Local@VObject@v8@@@3@V?$Local@VValue@v8@@@3@@Z 0000000180001e00 f i _nodert_generated.obj
 0001:00000e80       ?convert@?$ToFactory@VString@v8@@@imp@Nan@@SA?AV?$MaybeLocal@VString@v8@@@v8@@V?$Local@VValue@v8@@@5@@Z 0000000180001e80 f i _nodert_generated.obj
 0001:00000f10       ?convert@?$ToFactory@VObject@v8@@@imp@Nan@@SA?AV?$MaybeLocal@VObject@v8@@@v8@@V?$Local@VValue@v8@@@5@@Z 0000000180001f10 f i _nodert_generated.obj
 0001:00000fa0       ?convert@?$ToFactory@VInteger@v8@@@imp@Nan@@SA?AV?$MaybeLocal@VInteger@v8@@@v8@@V?$Local@VValue@v8@@@5@@Z 0000000180001fa0 f i _nodert_generated.obj
 0001:00001030       ?convert@?$ToFactory@H@imp@Nan@@SA?AV?$Maybe@H@v8@@V?$Local@VValue@v8@@@5@@Z 0000000180002030 f i _nodert_generated.obj
 0001:000010b0       ?New@?$Factory@VFunctionTemplate@v8@@@imp@Nan@@SA?AV?$Local@VFunctionTemplate@v8@@@v8@@P6AXAEBV?$FunctionCallbackInfo@VValue@v8@@@3@@ZV?$Local@VValue@v8@@@5@V?$Local@VSignature@v8@@@5@@Z 00000001800020b0 f i _nodert_generated.obj
 0001:00001220       ??1HandleScope@Nan@@QEAA@XZ 0000000180002220 f i _nodert_generated.obj
 0001:00001220       ??1EscapableHandleScope@Nan@@QEAA@XZ 0000000180002220 f i _nodert_generated.obj
 0001:00001230       ?ThrowError@Nan@@YAXV?$Local@VValue@v8@@@v8@@@Z 0000000180002230 f i _nodert_generated.obj
 0001:00001260       ?SetPrototypeMethod@Nan@@YAXV?$Local@VFunctionTemplate@v8@@@v8@@PEBDP6AXAEBV?$FunctionCallbackInfo@VValue@v8@@@1@@Z@Z 0000000180002260 f i _nodert_generated.obj
 0001:00001370       ?SetAccessor@Nan@@YAXV?$Local@VObjectTemplate@v8@@@v8@@V?$Local@VString@v8@@@3@P6AX1AEBV?$PropertyCallbackInfo@VValue@v8@@@1@@ZP6AX1V?$Local@VValue@v8@@@3@AEBV?$PropertyCallbackInfo@X@1@@Z4W4AccessControl@3@W4PropertyAttribute@3@V?$Local@VAccessorSignature@v8@@@3@@Z 0000000180002370 f i _nodert_generated.obj
 0001:000014e0       ?SetIndexedPropertyHandler@Nan@@YAXV?$Local@VObjectTemplate@v8@@@v8@@P6AXIAEBV?$PropertyCallbackInfo@VValue@v8@@@1@@ZP6AXIV?$Local@VValue@v8@@@3@1@ZP6AXIAEBV?$PropertyCallbackInfo@VInteger@v8@@@1@@ZP6AXIAEBV?$PropertyCallbackInfo@VBoolean@v8@@@1@@ZP6AXAEBV?$PropertyCallbackInfo@VArray@v8@@@1@@Z3@Z 00000001800024e0 f i _nodert_generated.obj
 0001:00001610       ??1ObjectWrap@Nan@@UEAA@XZ 0000000180002610 f i _nodert_generated.obj
 0001:00001690       ?Wrap@ObjectWrap@Nan@@IEAAXV?$Local@VObject@v8@@@v8@@@Z 0000000180002690 f i _nodert_generated.obj
 0001:00001770       ?Ref@ObjectWrap@Nan@@MEAAXXZ 0000000180002770 f i _nodert_generated.obj
 0001:000017b0       ?Unref@ObjectWrap@Nan@@MEAAXXZ 00000001800027b0 f i _nodert_generated.obj
 0001:00001860       ?WeakCallback@ObjectWrap@Nan@@CAXAEBV?$WeakCallbackInfo@VObjectWrap@Nan@@@v8@@@Z 0000000180002860 f i _nodert_generated.obj
 0001:000018f0       ??_GObjectWrap@Nan@@UEAAPEAXI@Z 00000001800028f0 f i _nodert_generated.obj
 0001:000018f0       ??_EObjectWrap@Nan@@UEAAPEAXI@Z 00000001800028f0 f i * CIL library *:* CIL module *
 0001:00001930       ??1_Ref_count_base@std@@UEAA@XZ 0000000180002930 f i _nodert_generated.obj
 0001:00001940       __scrt_stub_for_is_c_termination_complete 0000000180002940 f i MSVCRT:ucrt_stubs.obj
 0001:00001940       ?_Get_deleter@_Ref_count_base@std@@UEBAPEAXAEBVtype_info@@@Z 0000000180002940 f i _nodert_generated.obj
 0001:00001940       _is_c_termination_complete 0000000180002940 f i MSVCRT:ucrt_stubs.obj
 0001:00001950       ??_E_Ref_count_base@std@@UEAAPEAXI@Z 0000000180002950 f i * CIL library *:* CIL module *
 0001:00001950       ??_G_Ref_count_base@std@@UEAAPEAXI@Z 0000000180002950 f i _nodert_generated.obj
 0001:00001980       ??0scheduler_ptr@Concurrency@@QEAA@V?$shared_ptr@Uscheduler_interface@Concurrency@@@std@@@Z 0000000180002980 f i _nodert_generated.obj
 0001:00001a10       ?_Callback@_PPLTaskChore@_DefaultPPLTaskScheduler@details@Concurrency@@CAXPEAX@Z 0000000180002a10 f i _nodert_generated.obj
 0001:00001a50       ?schedule@_DefaultPPLTaskScheduler@details@Concurrency@@UEAAXP6AXPEAX@Z0@Z 0000000180002a50 f i _nodert_generated.obj
 0001:00001b00       ?get_ambient_scheduler@Concurrency@@YAAEBV?$shared_ptr@Uscheduler_interface@Concurrency@@@std@@XZ 0000000180002b00 f i _nodert_generated.obj
 0001:00001b70       ?_Destroy@_RefCounter@details@Concurrency@@MEAAXXZ 0000000180002b70 f i _nodert_generated.obj
 0001:00001b90       ??_E_RefCounter@details@Concurrency@@UEAAPEAXI@Z 0000000180002b90 f i * CIL library *:* CIL module *
 0001:00001b90       ??_G_RefCounter@details@Concurrency@@UEAAPEAXI@Z 0000000180002b90 f i _nodert_generated.obj
 0001:00001bc0       ?_Invoke@_CancellationTokenRegistration@details@Concurrency@@AEAAXXZ 0000000180002bc0 f i _nodert_generated.obj
 0001:00001cb0       ??_E_CancellationTokenRegistration@details@Concurrency@@MEAAPEAXI@Z 0000000180002cb0 f i * CIL library *:* CIL module *
 0001:00001cb0       ??_G_CancellationTokenRegistration@details@Concurrency@@MEAAPEAXI@Z 0000000180002cb0 f i _nodert_generated.obj
 0001:00001d10       ?_RegisterCallback@_CancellationTokenState@details@Concurrency@@QEAAXPEAV_CancellationTokenRegistration@23@@Z 0000000180002d10 f i _nodert_generated.obj
 0001:00001de0       ?_DeregisterCallback@_CancellationTokenState@details@Concurrency@@QEAAXPEAV_CancellationTokenRegistration@23@@Z 0000000180002de0 f i _nodert_generated.obj
 0001:00001f80       ?none@cancellation_token@Concurrency@@SA?AV12@XZ 0000000180002f80 f i _nodert_generated.obj
 0001:00001f90       ??1cancellation_token@Concurrency@@QEAA@XZ 0000000180002f90 f i _nodert_generated.obj
 0001:00001ff0       ??1_TaskProcHandle@details@Concurrency@@UEAA@XZ 0000000180002ff0 f i _nodert_generated.obj
 0001:00002000       ?_RunChoreBridge@_TaskProcHandle@details@Concurrency@@SAXPEAX@Z 0000000180003000 f i _nodert_generated.obj
 0001:00002040       ??_E_TaskProcHandle@details@Concurrency@@UEAAPEAXI@Z 0000000180003040 f i * CIL library *:* CIL module *
 0001:00002040       ??_G_TaskProcHandle@details@Concurrency@@UEAAPEAXI@Z 0000000180003040 f i _nodert_generated.obj
 0001:00002070       ?WaitUntilStateChangedTo@_TaskCollectionBaseImpl@details@Concurrency@@IEAAXW4_TaskCollectionState@123@@Z 0000000180003070 f i _nodert_generated.obj
 0001:00002100       ??0_TaskCollectionBaseImpl@details@Concurrency@@QEAA@Uscheduler_ptr@2@@Z 0000000180003100 f i _nodert_generated.obj
 0001:000021c0       ?_Complete@_TaskCollectionBaseImpl@details@Concurrency@@QEAAXXZ 00000001800031c0 f i _nodert_generated.obj
 0001:00002230       ?_GetScheduler@_TaskCollectionBaseImpl@details@Concurrency@@QEBA?AUscheduler_ptr@3@XZ 0000000180003230 f i _nodert_generated.obj
 0001:00002290       ?_RunTask@_TaskCollectionBaseImpl@details@Concurrency@@SAXP6AXPEAX@Z0W4_TaskInliningMode@23@@Z 0000000180003290 f i _nodert_generated.obj
 0001:00002360       ??1?$task@PE$AAVKeyCredentialAttestationResult@Credentials@Security@Windows@@@Concurrency@@QEAA@XZ 0000000180003360 f i _nodert_generated.obj
 0001:00002360       ??1?$task@E@Concurrency@@QEAA@XZ 0000000180003360 f i _nodert_generated.obj
 0001:00002360       ??1?$task@_N@Concurrency@@QEAA@XZ 0000000180003360 f i _nodert_generated.obj
 0001:00002360       ??1scheduler_ptr@Concurrency@@QEAA@XZ 0000000180003360 f i _nodert_generated.obj
 0001:00002360       ??1?$task@X@Concurrency@@QEAA@XZ 0000000180003360 f i _nodert_generated.obj
 0001:00002360       ??1?$task@PE$AAUIRandomAccessStream@Streams@Storage@Windows@@@Concurrency@@QEAA@XZ 0000000180003360 f i _nodert_generated.obj
 0001:00002360       ??1?$task@PE$AAVKeyCredentialOperationResult@Credentials@Security@Windows@@@Concurrency@@QEAA@XZ 0000000180003360 f i _nodert_generated.obj
 0001:00002360       ??1?$task@PE$AAVKeyCredentialRetrievalResult@Credentials@Security@Windows@@@Concurrency@@QEAA@XZ 0000000180003360 f i _nodert_generated.obj
 0001:000023c0       ?_NoCallOnDefaultTask_ErrorImpl@_DefaultTaskHelper@details@Concurrency@@SAXXZ 00000001800033c0 f i _nodert_generated.obj
 0001:000023f0       ?_CaptureSingleFrameCallstack@_TaskCreationCallstack@details@Concurrency@@SA?AV123@PEAX@Z 00000001800033f0 f i _nodert_generated.obj
 0001:00002410       ??1_TaskCreationCallstack@details@Concurrency@@QEAA@XZ 0000000180003410 f i _nodert_generated.obj
 0001:00002450       ?_Bridge@_TaskProcThunk@details@Concurrency@@SAXPEAX@Z 0000000180003450 f i _nodert_generated.obj
 0001:000024b0       ??1_Holder@_TaskProcThunk@details@Concurrency@@QEAA@XZ 00000001800034b0 f i _nodert_generated.obj
 0001:00002500       ?_CaptureCurrent@_ContextCallback@details@Concurrency@@SA?AV123@XZ 0000000180003500 f i _nodert_generated.obj
 0001:00002540       ??1_ContextCallback@details@Concurrency@@QEAA@XZ 0000000180003540 f i _nodert_generated.obj
 0001:00002560       ?_CallInContext@_ContextCallback@details@Concurrency@@QEBAXV?$function@$$A6AXXZ@std@@@Z 0000000180003560 f i _nodert_generated.obj
 0001:000025f0       ??1_ExceptionHolder@details@Concurrency@@QEAA@XZ 00000001800035f0 f i _nodert_generated.obj
 0001:00002650       ?_RethrowUserException@_ExceptionHolder@details@Concurrency@@QEAAXXZ 0000000180003650 f i _nodert_generated.obj
 0001:00002690       ??0_TaskCreationCallstack@details@Concurrency@@QEAA@AEBV012@@Z 0000000180003690 f i _nodert_generated.obj
 0001:00002720       ??0_IAsyncActionToAsyncOperationConverter@details@Concurrency@@QE$AAA@PE$AAUIAsyncAction@Foundation@Windows@@@Z 0000000180003720 f i _nodert_generated.obj
 0001:000027b0       ?GetResults@?Q?$IAsyncOperation@E@Foundation@Windows@@_IAsyncActionToAsyncOperationConverter@details@Concurrency@@UE$AAAEXZ 00000001800037b0 f i _nodert_generated.obj
 0001:00002800       ?use_default@task_continuation_context@Concurrency@@SA?AV12@XZ 0000000180003800 f i _nodert_generated.obj
 0001:00002820       ??1task_continuation_context@Concurrency@@QEAA@XZ 0000000180003820 f i _nodert_generated.obj
 0001:00002840       ??0task_options@Concurrency@@QEAA@XZ 0000000180003840 f i _nodert_generated.obj
 0001:000028d0       ?get_cancellation_token@task_options@Concurrency@@QEBA?AVcancellation_token@2@XZ 00000001800038d0 f i _nodert_generated.obj
 0001:000028f0       ?get_continuation_context@task_options@Concurrency@@QEBA?AVtask_continuation_context@2@XZ 00000001800038f0 f i _nodert_generated.obj
 0001:00002930       ?get_scheduler@task_options@Concurrency@@QEBA?AUscheduler_ptr@2@XZ 0000000180003930 f i _nodert_generated.obj
 0001:00002980       ??1_Internal_task_options@details@Concurrency@@QEAA@XZ 0000000180003980 f i _nodert_generated.obj
 0001:000029c0       ??0_ThenImplOptions@details@Concurrency@@QEAA@PEAV_CancellationTokenState@12@PEBVtask_continuation_context@2@Uscheduler_ptr@2@V_TaskCreationCallstack@12@W4_TaskInliningMode@12@@Z 00000001800039c0 f i _nodert_generated.obj
 0001:00002ab0       ?_CreateOptions@_ThenImplOptions@details@Concurrency@@SA?AU123@AEBVtask_options@3@AEBVtask_continuation_context@3@AEBUscheduler_ptr@3@@Z 0000000180003ab0 f i _nodert_generated.obj
 0001:00002ed0       ??1_ThenImplOptions@details@Concurrency@@QEAA@XZ 0000000180003ed0 f i _nodert_generated.obj
 0001:00002f50       ??_E_ContinuationTaskHandleBase@details@Concurrency@@UEAAPEAXI@Z 0000000180003f50 f i * CIL library *:* CIL module *
 0001:00002f50       ??_G_ContinuationTaskHandleBase@details@Concurrency@@UEAAPEAXI@Z 0000000180003f50 f i _nodert_generated.obj
 0001:00002fb0       ??1_TaskWorkItemRAIILogger@details@Concurrency@@QEAA@XZ 0000000180003fb0 f i _nodert_generated.obj
 0001:00002fd0       ??0_Task_impl_base@details@Concurrency@@QEAA@PEAV_CancellationTokenState@12@Uscheduler_ptr@2@@Z 0000000180003fd0 f i _nodert_generated.obj
 0001:000030f0       ??1_Task_impl_base@details@Concurrency@@UEAA@XZ 00000001800040f0 f i _nodert_generated.obj
 0001:000031e0       ?_Wait@_Task_impl_base@details@Concurrency@@QEAA?AW4task_group_status@3@XZ 00000001800041e0 f i _nodert_generated.obj
 0001:00003280       ?_CancelWithException@_Task_impl_base@details@Concurrency@@QEAA_NAEBVexception_ptr@std@@@Z 0000000180004280 f i _nodert_generated.obj
 0001:00003340       ?_RegisterCancellation@_Task_impl_base@details@Concurrency@@QEAAXV?$weak_ptr@U_Task_impl_base@details@Concurrency@@@std@@@Z 0000000180004340 f i _nodert_generated.obj
 0001:00003490       ?_DeregisterCancellation@_Task_impl_base@details@Concurrency@@QEAAXXZ 0000000180004490 f i _nodert_generated.obj
 0001:00003510       ?_GetTaskCreationCallstack@_Task_impl_base@details@Concurrency@@QEAA?AV_TaskCreationCallstack@23@XZ 0000000180004510 f i _nodert_generated.obj
 0001:00003540       ?_ScheduleTask@_Task_impl_base@details@Concurrency@@QEAAXPEAU_TaskProcHandle@23@W4_TaskInliningMode@23@@Z 0000000180004540 f i _nodert_generated.obj
 0001:000035b0       ?_ScheduleContinuationTask@_Task_impl_base@details@Concurrency@@QEAAXPEAU_ContinuationTaskHandleBase@23@@Z 00000001800045b0 f i _nodert_generated.obj
 0001:000037e0       ?_ScheduleContinuation@_Task_impl_base@details@Concurrency@@QEAAXPEAU_ContinuationTaskHandleBase@23@@Z 00000001800047e0 f i _nodert_generated.obj
 0001:000039d0       ?_RunTaskContinuations@_Task_impl_base@details@Concurrency@@QEAAXXZ 00000001800049d0 f i _nodert_generated.obj
 0001:00003ad0       ?_GetScheduler@_Task_impl_base@details@Concurrency@@QEBA?AUscheduler_ptr@3@XZ 0000000180004ad0 f i _nodert_generated.obj
 0001:00003af0       ??_E_Task_impl_base@details@Concurrency@@UEAAPEAXI@Z 0000000180004af0 f i * CIL library *:* CIL module *
 0001:00003af0       ??_G_Task_impl_base@details@Concurrency@@UEAAPEAXI@Z 0000000180004af0 f i _nodert_generated.obj
 0001:00003b30       ??1_TaskCollectionBaseImpl@details@Concurrency@@QEAA@XZ 0000000180004b30 f i _nodert_generated.obj
 0001:00003be0       ?_CreateImpl@?$task@X@Concurrency@@QEAAXPEAV_CancellationTokenState@details@2@Uscheduler_ptr@2@@Z 0000000180004be0 f i _nodert_generated.obj
 0001:00003c90       ??1task_options@Concurrency@@QEAA@XZ 0000000180004c90 f i _nodert_generated.obj
 0001:00003d60       ?IsOpaqueWrapper@OpaqueWrapper@NodeRT@@SA_NV?$Local@VValue@v8@@@v8@@@Z 0000000180004d60 f i _nodert_generated.obj
 0001:00003e30       ??1WrapperBase@NodeRT@@UEAA@XZ 0000000180004e30 f i _nodert_generated.obj
 0001:00003e40       ?NewAsyncToken@TokenData@Async@NodeUtils@@SAPEAUuv_async_s@@V?$Local@VFunction@v8@@@v8@@V?$Local@VValue@v8@@@6@@Z 0000000180004e40 f i _nodert_generated.obj
 0001:00003f10       ?RunOnMain@Async@NodeUtils@@SAXV?$function@$$A6AXXZ@std@@@Z 0000000180004f10 f i _nodert_generated.obj
 0001:00004020       ?RunCallbackOnMain@Async@NodeUtils@@SAXPEAUuv_async_s@@V?$function@$$A6AXV?$function@$$A6AXHPEAV?$Local@VValue@v8@@@v8@@@Z@std@@@Z@std@@@Z 0000000180005020 f i _nodert_generated.obj
 0001:000043b0       ?CreateCallbackData@Async@NodeUtils@@CA?AV?$Local@VObject@v8@@@v8@@V?$Local@VFunction@v8@@@4@V?$Local@VValue@v8@@@4@@Z 00000001800053b0 f i _nodert_generated.obj
 0001:00004600       ?AyncCloseCb@Async@NodeUtils@@CAXPEAUuv_handle_s@@@Z 0000000180005600 f i _nodert_generated.obj
 0001:00004610       ?AsyncCb@Async@NodeUtils@@CAXPEAUuv_async_s@@@Z 0000000180005610 f i _nodert_generated.obj
 0001:00004670       ??_ETokenData@Async@NodeUtils@@UEAAPEAXI@Z 0000000180005670 f i * CIL library *:* CIL module *
 0001:00004670       ??_GTokenData@Async@NodeUtils@@UEAAPEAXI@Z 0000000180005670 f i _nodert_generated.obj
 0001:00005430       ?Init@KeyCredentialRetrievalResult@Credentials@Security@Windows@NodeRT@@SAXV?$Local@VObject@v8@@@v8@@@Z 0000000180006430 f i _nodert_generated.obj
 0001:00005680       ?GetObjectInstance@IWebAccount@Credentials@Security@Windows@NodeRT@@UEBAPE$AAVObject@Platform@@XZ 0000000180006680 f i _nodert_generated.obj
 0001:00005680       ?GetObjectInstance@PasswordCredentialPropertyStore@Credentials@Security@Windows@NodeRT@@UEBAPE$AAVObject@Platform@@XZ 0000000180006680 f i _nodert_generated.obj
 0001:00005680       ?GetObjectInstance@OpaqueWrapper@NodeRT@@UEBAPE$AAVObject@Platform@@XZ 0000000180006680 f i OpaqueWrapper.obj
 0001:00005680       ?GetObjectInstance@KeyCredential@Credentials@Security@Windows@NodeRT@@UEBAPE$AAVObject@Platform@@XZ 0000000180006680 f i _nodert_generated.obj
 0001:00005680       ?GetObjectInstance@?$MapViewWrapper@PE$AAVString@Platform@@PE$AAV12@@Collections@NodeRT@@UEBAPE$AAVObject@Platform@@XZ 0000000180006680 f i _nodert_generated.obj
 0001:00005680       ?GetObjectInstance@KeyCredentialRetrievalResult@Credentials@Security@Windows@NodeRT@@UEBAPE$AAVObject@Platform@@XZ 0000000180006680 f i _nodert_generated.obj
 0001:00005680       ?GetObjectInstance@KeyCredentialOperationResult@Credentials@Security@Windows@NodeRT@@UEBAPE$AAVObject@Platform@@XZ 0000000180006680 f i _nodert_generated.obj
 0001:00005680       ?GetObjectInstance@?$VectorViewWrapper@PE$AAVPasswordCredential@Credentials@Security@Windows@@@Collections@NodeRT@@UEBAPE$AAVObject@Platform@@XZ 0000000180006680 f i _nodert_generated.obj
 0001:00005680       ?GetObjectInstance@WebAccount@Credentials@Security@Windows@NodeRT@@UEBAPE$AAVObject@Platform@@XZ 0000000180006680 f i _nodert_generated.obj
 0001:00005680       ?GetObjectInstance@?$IteratorWrapper@PE$AAVPasswordCredential@Credentials@Security@Windows@@@Collections@NodeRT@@UEBAPE$AAVObject@Platform@@XZ 0000000180006680 f i _nodert_generated.obj
 0001:00005680       ?GetObjectInstance@KeyCredentialManager@Credentials@Security@Windows@NodeRT@@UEBAPE$AAVObject@Platform@@XZ 0000000180006680 f i _nodert_generated.obj
 0001:00005680       ?GetObjectInstance@KeyCredentialAttestationResult@Credentials@Security@Windows@NodeRT@@UEBAPE$AAVObject@Platform@@XZ 0000000180006680 f i _nodert_generated.obj
 0001:00005680       ?GetObjectInstance@?$KeyValuePairWrapper@PE$AAVString@Platform@@PE$AAVObject@2@@Collections@NodeRT@@UEBAPE$AAVObject@Platform@@XZ 0000000180006680 f i _nodert_generated.obj
 0001:00005680       ?GetObjectInstance@?$IteratorWrapper@PE$AAU?$IKeyValuePair@PE$AAVString@Platform@@PE$AAVObject@2@@Collections@Foundation@Windows@@@Collections@NodeRT@@UEBAPE$AAVObject@Platform@@XZ 0000000180006680 f i _nodert_generated.obj
 0001:00005680       ?GetObjectInstance@WebAccountProvider@Credentials@Security@Windows@NodeRT@@UEBAPE$AAVObject@Platform@@XZ 0000000180006680 f i _nodert_generated.obj
 0001:00005680       ?GetObjectInstance@PasswordVault@Credentials@Security@Windows@NodeRT@@UEBAPE$AAVObject@Platform@@XZ 0000000180006680 f i _nodert_generated.obj
 0001:00005680       ?GetObjectInstance@?$IteratorWrapper@PE$AAU?$IKeyValuePair@PE$AAVString@Platform@@PE$AAV12@@Collections@Foundation@Windows@@@Collections@NodeRT@@UEBAPE$AAVObject@Platform@@XZ 0000000180006680 f i _nodert_generated.obj
 0001:00005680       ?GetObjectInstance@?$MapViewWrapper@PE$AAVString@Platform@@PE$AAVObject@2@@Collections@NodeRT@@UEBAPE$AAVObject@Platform@@XZ 0000000180006680 f i _nodert_generated.obj
 0001:00005680       ?GetObjectInstance@?$KeyValuePairWrapper@PE$AAVString@Platform@@PE$AAV12@@Collections@NodeRT@@UEBAPE$AAVObject@Platform@@XZ 0000000180006680 f i _nodert_generated.obj
 0001:00005680       ?GetObjectInstance@PasswordCredential@Credentials@Security@Windows@NodeRT@@UEBAPE$AAVObject@Platform@@XZ 0000000180006680 f i _nodert_generated.obj
 0001:000056b0       ?New@KeyCredentialRetrievalResult@Credentials@Security@Windows@NodeRT@@CAXAEBV?$FunctionCallbackInfo@VValue@v8@@@Nan@@@Z 00000001800066b0 f i _nodert_generated.obj
 0001:00005b40       ?CastFrom@KeyCredentialRetrievalResult@Credentials@Security@Windows@NodeRT@@CAXAEBV?$FunctionCallbackInfo@VValue@v8@@@Nan@@@Z 0000000180006b40 f i _nodert_generated.obj
 0001:00005d30       ?CredentialGetter@KeyCredentialRetrievalResult@Credentials@Security@Windows@NodeRT@@CAXV?$Local@VString@v8@@@v8@@AEBV?$PropertyCallbackInfo@VValue@v8@@@Nan@@@Z 0000000180006d30 f i _nodert_generated.obj
 0001:00005e40       ?StatusGetter@KeyCredentialRetrievalResult@Credentials@Security@Windows@NodeRT@@CAXV?$Local@VString@v8@@@v8@@AEBV?$PropertyCallbackInfo@VValue@v8@@@Nan@@@Z 0000000180006e40 f i _nodert_generated.obj
 0001:00005f30       ??_GKeyCredentialManager@Credentials@Security@Windows@NodeRT@@UEAAPEAXI@Z 0000000180006f30 f i _nodert_generated.obj
 0001:00005f30       ??_EKeyCredentialRetrievalResult@Credentials@Security@Windows@NodeRT@@UEAAPEAXI@Z 0000000180006f30 f i * CIL library *:* CIL module *
 0001:00005f30       ??_GPasswordCredential@Credentials@Security@Windows@NodeRT@@UEAAPEAXI@Z 0000000180006f30 f i _nodert_generated.obj
 0001:00005f30       ??_EWebAccount@Credentials@Security@Windows@NodeRT@@UEAAPEAXI@Z 0000000180006f30 f i * CIL library *:* CIL module *
 0001:00005f30       ??_EKeyCredentialAttestationResult@Credentials@Security@Windows@NodeRT@@UEAAPEAXI@Z 0000000180006f30 f i * CIL library *:* CIL module *
 0001:00005f30       ??_EWebAccountProvider@Credentials@Security@Windows@NodeRT@@UEAAPEAXI@Z 0000000180006f30 f i * CIL library *:* CIL module *
 0001:00005f30       ??_EPasswordCredential@Credentials@Security@Windows@NodeRT@@UEAAPEAXI@Z 0000000180006f30 f i * CIL library *:* CIL module *
 0001:00005f30       ??_GIWebAccount@Credentials@Security@Windows@NodeRT@@UEAAPEAXI@Z 0000000180006f30 f i _nodert_generated.obj
 0001:00005f30       ??_EKeyCredential@Credentials@Security@Windows@NodeRT@@UEAAPEAXI@Z 0000000180006f30 f i * CIL library *:* CIL module *
 0001:00005f30       ??_GPasswordVault@Credentials@Security@Windows@NodeRT@@UEAAPEAXI@Z 0000000180006f30 f i _nodert_generated.obj
 0001:00005f30       ??_GKeyCredentialOperationResult@Credentials@Security@Windows@NodeRT@@UEAAPEAXI@Z 0000000180006f30 f i _nodert_generated.obj
 0001:00005f30       ??_GKeyCredentialAttestationResult@Credentials@Security@Windows@NodeRT@@UEAAPEAXI@Z 0000000180006f30 f i _nodert_generated.obj
 0001:00005f30       ??_EIWebAccount@Credentials@Security@Windows@NodeRT@@UEAAPEAXI@Z 0000000180006f30 f i * CIL library *:* CIL module *
 0001:00005f30       ??_EKeyCredentialManager@Credentials@Security@Windows@NodeRT@@UEAAPEAXI@Z 0000000180006f30 f i * CIL library *:* CIL module *
 0001:00005f30       ??_GWebAccount@Credentials@Security@Windows@NodeRT@@UEAAPEAXI@Z 0000000180006f30 f i _nodert_generated.obj
 0001:00005f30       ??_EOpaqueWrapper@NodeRT@@UEAAPEAXI@Z 0000000180006f30 f i * CIL library *:* CIL module *
 0001:00005f30       ??_GPasswordCredentialPropertyStore@Credentials@Security@Windows@NodeRT@@UEAAPEAXI@Z 0000000180006f30 f i _nodert_generated.obj
 0001:00005f30       ??_GKeyCredentialRetrievalResult@Credentials@Security@Windows@NodeRT@@UEAAPEAXI@Z 0000000180006f30 f i _nodert_generated.obj
 0001:00005f30       ??_EPasswordCredentialPropertyStore@Credentials@Security@Windows@NodeRT@@UEAAPEAXI@Z 0000000180006f30 f i * CIL library *:* CIL module *
 0001:00005f30       ??_EPasswordVault@Credentials@Security@Windows@NodeRT@@UEAAPEAXI@Z 0000000180006f30 f i * CIL library *:* CIL module *
 0001:00005f30       ??_GOpaqueWrapper@NodeRT@@UEAAPEAXI@Z 0000000180006f30 f i OpaqueWrapper.obj
 0001:00005f30       ??_GWebAccountProvider@Credentials@Security@Windows@NodeRT@@UEAAPEAXI@Z 0000000180006f30 f i _nodert_generated.obj
 0001:00005f30       ??_EKeyCredentialOperationResult@Credentials@Security@Windows@NodeRT@@UEAAPEAXI@Z 0000000180006f30 f i * CIL library *:* CIL module *
 0001:00005f30       ??_GKeyCredential@Credentials@Security@Windows@NodeRT@@UEAAPEAXI@Z 0000000180006f30 f i _nodert_generated.obj
 0001:00005f90       ?WrapKeyCredentialRetrievalResult@Credentials@Security@Windows@NodeRT@@YA?AV?$Local@VValue@v8@@@v8@@PE$AAVKeyCredentialRetrievalResult@123@@Z 0000000180006f90 f   _nodert_generated.obj
 0001:00006080       ?Init@KeyCredentialOperationResult@Credentials@Security@Windows@NodeRT@@SAXV?$Local@VObject@v8@@@v8@@@Z 0000000180007080 f i _nodert_generated.obj
 0001:000062d0       ?New@KeyCredentialOperationResult@Credentials@Security@Windows@NodeRT@@CAXAEBV?$FunctionCallbackInfo@VValue@v8@@@Nan@@@Z 00000001800072d0 f i _nodert_generated.obj
 0001:00006760       ?CastFrom@KeyCredentialOperationResult@Credentials@Security@Windows@NodeRT@@CAXAEBV?$FunctionCallbackInfo@VValue@v8@@@Nan@@@Z 0000000180007760 f i _nodert_generated.obj
 0001:00006950       ?ResultGetter@KeyCredentialOperationResult@Credentials@Security@Windows@NodeRT@@CAXV?$Local@VString@v8@@@v8@@AEBV?$PropertyCallbackInfo@VValue@v8@@@Nan@@@Z 0000000180007950 f i _nodert_generated.obj
 0001:00006a70       ?StatusGetter@KeyCredentialOperationResult@Credentials@Security@Windows@NodeRT@@CAXV?$Local@VString@v8@@@v8@@AEBV?$PropertyCallbackInfo@VValue@v8@@@Nan@@@Z 0000000180007a70 f i _nodert_generated.obj
 0001:00006b60       ?WrapKeyCredentialOperationResult@Credentials@Security@Windows@NodeRT@@YA?AV?$Local@VValue@v8@@@v8@@PE$AAVKeyCredentialOperationResult@123@@Z 0000000180007b60 f   _nodert_generated.obj
 0001:00006c50       ?Init@KeyCredentialAttestationResult@Credentials@Security@Windows@NodeRT@@SAXV?$Local@VObject@v8@@@v8@@@Z 0000000180007c50 f i _nodert_generated.obj
 0001:00006f00       ?New@KeyCredentialAttestationResult@Credentials@Security@Windows@NodeRT@@CAXAEBV?$FunctionCallbackInfo@VValue@v8@@@Nan@@@Z 0000000180007f00 f i _nodert_generated.obj
 0001:00007390       ?CastFrom@KeyCredentialAttestationResult@Credentials@Security@Windows@NodeRT@@CAXAEBV?$FunctionCallbackInfo@VValue@v8@@@Nan@@@Z 0000000180008390 f i _nodert_generated.obj
 0001:00007580       ?AttestationBufferGetter@KeyCredentialAttestationResult@Credentials@Security@Windows@NodeRT@@CAXV?$Local@VString@v8@@@v8@@AEBV?$PropertyCallbackInfo@VValue@v8@@@Nan@@@Z 0000000180008580 f i _nodert_generated.obj
 0001:000076a0       ?CertificateChainBufferGetter@KeyCredentialAttestationResult@Credentials@Security@Windows@NodeRT@@CAXV?$Local@VString@v8@@@v8@@AEBV?$PropertyCallbackInfo@VValue@v8@@@Nan@@@Z 00000001800086a0 f i _nodert_generated.obj
 0001:000077c0       ?StatusGetter@KeyCredentialAttestationResult@Credentials@Security@Windows@NodeRT@@CAXV?$Local@VString@v8@@@v8@@AEBV?$PropertyCallbackInfo@VValue@v8@@@Nan@@@Z 00000001800087c0 f i _nodert_generated.obj
 0001:000078b0       ?WrapKeyCredentialAttestationResult@Credentials@Security@Windows@NodeRT@@YA?AV?$Local@VValue@v8@@@v8@@PE$AAVKeyCredentialAttestationResult@123@@Z 00000001800088b0 f   _nodert_generated.obj
 0001:000079a0       ?Init@KeyCredential@Credentials@Security@Windows@NodeRT@@SAXV?$Local@VObject@v8@@@v8@@@Z 00000001800089a0 f i _nodert_generated.obj
 0001:00007bd0       ?New@KeyCredential@Credentials@Security@Windows@NodeRT@@CAXAEBV?$FunctionCallbackInfo@VValue@v8@@@Nan@@@Z 0000000180008bd0 f i _nodert_generated.obj
 0001:00008060       ?CastFrom@KeyCredential@Credentials@Security@Windows@NodeRT@@CAXAEBV?$FunctionCallbackInfo@VValue@v8@@@Nan@@@Z 0000000180009060 f i _nodert_generated.obj
 0001:00008250       ?RequestSignAsync@KeyCredential@Credentials@Security@Windows@NodeRT@@CAXAEBV?$FunctionCallbackInfo@VValue@v8@@@Nan@@@Z 0000000180009250 f i _nodert_generated.obj
 0001:000088d0       ?GetAttestationAsync@KeyCredential@Credentials@Security@Windows@NodeRT@@CAXAEBV?$FunctionCallbackInfo@VValue@v8@@@Nan@@@Z 00000001800098d0 f i _nodert_generated.obj
 0001:00008e00       ?RetrievePublicKey@KeyCredential@Credentials@Security@Windows@NodeRT@@CAXAEBV?$FunctionCallbackInfo@VValue@v8@@@Nan@@@Z 0000000180009e00 f i _nodert_generated.obj
 0001:000090a0       ?NameGetter@KeyCredential@Credentials@Security@Windows@NodeRT@@CAXV?$Local@VString@v8@@@v8@@AEBV?$PropertyCallbackInfo@VValue@v8@@@Nan@@@Z 000000018000a0a0 f i _nodert_generated.obj
 0001:000091e0       ??1TryCatch@Nan@@QEAA@XZ   000000018000a1e0 f i _nodert_generated.obj
 0001:000091f0       ?WrapKeyCredential@Credentials@Security@Windows@NodeRT@@YA?AV?$Local@VValue@v8@@@v8@@PE$AAVKeyCredential@123@@Z 000000018000a1f0 f   _nodert_generated.obj
 0001:000092e0       ?Init@KeyCredentialManager@Credentials@Security@Windows@NodeRT@@SAXV?$Local@VObject@v8@@@v8@@@Z 000000018000a2e0 f i _nodert_generated.obj
 0001:000096d0       ?New@KeyCredentialManager@Credentials@Security@Windows@NodeRT@@CAXAEBV?$FunctionCallbackInfo@VValue@v8@@@Nan@@@Z 000000018000a6d0 f i _nodert_generated.obj
 0001:00009b60       ?CastFrom@KeyCredentialManager@Credentials@Security@Windows@NodeRT@@CAXAEBV?$FunctionCallbackInfo@VValue@v8@@@Nan@@@Z 000000018000ab60 f i _nodert_generated.obj
 0001:00009d50       ?IsSupportedAsync@KeyCredentialManager@Credentials@Security@Windows@NodeRT@@CAXAEBV?$FunctionCallbackInfo@VValue@v8@@@Nan@@@Z 000000018000ad50 f i _nodert_generated.obj
 0001:0000a240       ?RenewAttestationAsync@KeyCredentialManager@Credentials@Security@Windows@NodeRT@@CAXAEBV?$FunctionCallbackInfo@VValue@v8@@@Nan@@@Z 000000018000b240 f i _nodert_generated.obj
 0001:0000a690       ?RequestCreateAsync@KeyCredentialManager@Credentials@Security@Windows@NodeRT@@CAXAEBV?$FunctionCallbackInfo@VValue@v8@@@Nan@@@Z 000000018000b690 f i _nodert_generated.obj
 0001:0000acc0       ?OpenAsync@KeyCredentialManager@Credentials@Security@Windows@NodeRT@@CAXAEBV?$FunctionCallbackInfo@VValue@v8@@@Nan@@@Z 000000018000bcc0 f i _nodert_generated.obj
 0001:0000b170       ?DeleteAsync@KeyCredentialManager@Credentials@Security@Windows@NodeRT@@CAXAEBV?$FunctionCallbackInfo@VValue@v8@@@Nan@@@Z 000000018000c170 f i _nodert_generated.obj
 0001:0000b610       ?WrapKeyCredentialManager@Credentials@Security@Windows@NodeRT@@YA?AV?$Local@VValue@v8@@@v8@@PE$AAVKeyCredentialManager@123@@Z 000000018000c610 f   _nodert_generated.obj
 0001:0000b700       ?Init@WebAccountProvider@Credentials@Security@Windows@NodeRT@@SAXV?$Local@VObject@v8@@@v8@@@Z 000000018000c700 f i _nodert_generated.obj
 0001:0000bae0       ?New@WebAccountProvider@Credentials@Security@Windows@NodeRT@@CAXAEBV?$FunctionCallbackInfo@VValue@v8@@@Nan@@@Z 000000018000cae0 f i _nodert_generated.obj
 0001:0000c210       ?CastFrom@WebAccountProvider@Credentials@Security@Windows@NodeRT@@CAXAEBV?$FunctionCallbackInfo@VValue@v8@@@Nan@@@Z 000000018000d210 f i _nodert_generated.obj
 0001:0000c400       ?DisplayNameGetter@WebAccountProvider@Credentials@Security@Windows@NodeRT@@CAXV?$Local@VString@v8@@@v8@@AEBV?$PropertyCallbackInfo@VValue@v8@@@Nan@@@Z 000000018000d400 f i _nodert_generated.obj
 0001:0000c540       ?IconUriGetter@WebAccountProvider@Credentials@Security@Windows@NodeRT@@CAXV?$Local@VString@v8@@@v8@@AEBV?$PropertyCallbackInfo@VValue@v8@@@Nan@@@Z 000000018000d540 f i _nodert_generated.obj
 0001:0000c660       ?IdGetter@WebAccountProvider@Credentials@Security@Windows@NodeRT@@CAXV?$Local@VString@v8@@@v8@@AEBV?$PropertyCallbackInfo@VValue@v8@@@Nan@@@Z 000000018000d660 f i _nodert_generated.obj
 0001:0000c7a0       ?AuthorityGetter@WebAccountProvider@Credentials@Security@Windows@NodeRT@@CAXV?$Local@VString@v8@@@v8@@AEBV?$PropertyCallbackInfo@VValue@v8@@@Nan@@@Z 000000018000d7a0 f i _nodert_generated.obj
 0001:0000c930       ?DisplayPurposeGetter@WebAccountProvider@Credentials@Security@Windows@NodeRT@@CAXV?$Local@VString@v8@@@v8@@AEBV?$PropertyCallbackInfo@VValue@v8@@@Nan@@@Z 000000018000d930 f i _nodert_generated.obj
 0001:0000cac0       ?UserGetter@WebAccountProvider@Credentials@Security@Windows@NodeRT@@CAXV?$Local@VString@v8@@@v8@@AEBV?$PropertyCallbackInfo@VValue@v8@@@Nan@@@Z 000000018000dac0 f i _nodert_generated.obj
 0001:0000cc40       ?WrapWebAccountProvider@Credentials@Security@Windows@NodeRT@@YA?AV?$Local@VValue@v8@@@v8@@PE$AAVWebAccountProvider@123@@Z 000000018000dc40 f   _nodert_generated.obj
 0001:0000cd30       ?Init@WebAccount@Credentials@Security@Windows@NodeRT@@SAXV?$Local@VObject@v8@@@v8@@@Z 000000018000dd30 f i _nodert_generated.obj
 0001:0000d0e0       ?New@WebAccount@Credentials@Security@Windows@NodeRT@@CAXAEBV?$FunctionCallbackInfo@VValue@v8@@@Nan@@@Z 000000018000e0e0 f i _nodert_generated.obj
 0001:0000d7a0       ?CastFrom@WebAccount@Credentials@Security@Windows@NodeRT@@CAXAEBV?$FunctionCallbackInfo@VValue@v8@@@Nan@@@Z 000000018000e7a0 f i _nodert_generated.obj
 0001:0000d990       ?GetPictureAsync@WebAccount@Credentials@Security@Windows@NodeRT@@CAXAEBV?$FunctionCallbackInfo@VValue@v8@@@Nan@@@Z 000000018000e990 f i _nodert_generated.obj
 0001:0000df80       ?SignOutAsync@WebAccount@Credentials@Security@Windows@NodeRT@@CAXAEBV?$FunctionCallbackInfo@VValue@v8@@@Nan@@@Z 000000018000ef80 f i _nodert_generated.obj
 0001:0000e520       ?StateGetter@IWebAccount@Credentials@Security@Windows@NodeRT@@CAXV?$Local@VString@v8@@@v8@@AEBV?$PropertyCallbackInfo@VValue@v8@@@Nan@@@Z 000000018000f520 f i _nodert_generated.obj
 0001:0000e520       ?StateGetter@WebAccount@Credentials@Security@Windows@NodeRT@@CAXV?$Local@VString@v8@@@v8@@AEBV?$PropertyCallbackInfo@VValue@v8@@@Nan@@@Z 000000018000f520 f i _nodert_generated.obj
 0001:0000e610       ?UserNameGetter@IWebAccount@Credentials@Security@Windows@NodeRT@@CAXV?$Local@VString@v8@@@v8@@AEBV?$PropertyCallbackInfo@VValue@v8@@@Nan@@@Z 000000018000f610 f i _nodert_generated.obj
 0001:0000e610       ?UserNameGetter@WebAccount@Credentials@Security@Windows@NodeRT@@CAXV?$Local@VString@v8@@@v8@@AEBV?$PropertyCallbackInfo@VValue@v8@@@Nan@@@Z 000000018000f610 f i _nodert_generated.obj
 0001:0000e750       ?WebAccountProviderGetter@WebAccount@Credentials@Security@Windows@NodeRT@@CAXV?$Local@VString@v8@@@v8@@AEBV?$PropertyCallbackInfo@VValue@v8@@@Nan@@@Z 000000018000f750 f i _nodert_generated.obj
 0001:0000e750       ?WebAccountProviderGetter@IWebAccount@Credentials@Security@Windows@NodeRT@@CAXV?$Local@VString@v8@@@v8@@AEBV?$PropertyCallbackInfo@VValue@v8@@@Nan@@@Z 000000018000f750 f i _nodert_generated.obj
 0001:0000e860       ?IdGetter@WebAccount@Credentials@Security@Windows@NodeRT@@CAXV?$Local@VString@v8@@@v8@@AEBV?$PropertyCallbackInfo@VValue@v8@@@Nan@@@Z 000000018000f860 f i _nodert_generated.obj
 0001:0000e9f0       ?PropertiesGetter@WebAccount@Credentials@Security@Windows@NodeRT@@CAXV?$Local@VString@v8@@@v8@@AEBV?$PropertyCallbackInfo@VValue@v8@@@Nan@@@Z 000000018000f9f0 f i _nodert_generated.obj
 0001:0000ecd0       ?WrapWebAccount@Credentials@Security@Windows@NodeRT@@YA?AV?$Local@VValue@v8@@@v8@@PE$AAVWebAccount@123@@Z 000000018000fcd0 f   _nodert_generated.obj
 0001:0000edc0       ?Init@IWebAccount@Credentials@Security@Windows@NodeRT@@SAXV?$Local@VObject@v8@@@v8@@@Z 000000018000fdc0 f i _nodert_generated.obj
 0001:0000f070       ?New@IWebAccount@Credentials@Security@Windows@NodeRT@@CAXAEBV?$FunctionCallbackInfo@VValue@v8@@@Nan@@@Z 0000000180010070 f i _nodert_generated.obj
 0001:0000f500       ?CastFrom@IWebAccount@Credentials@Security@Windows@NodeRT@@CAXAEBV?$FunctionCallbackInfo@VValue@v8@@@Nan@@@Z 0000000180010500 f i _nodert_generated.obj
 0001:0000f6f0       ?WrapIWebAccount@Credentials@Security@Windows@NodeRT@@YA?AV?$Local@VValue@v8@@@v8@@PE$AAUIWebAccount@123@@Z 00000001800106f0 f   _nodert_generated.obj
 0001:0000f7e0       ?Init@PasswordCredential@Credentials@Security@Windows@NodeRT@@SAXV?$Local@VObject@v8@@@v8@@@Z 00000001800107e0 f i _nodert_generated.obj
 0001:0000fb20       ?New@PasswordCredential@Credentials@Security@Windows@NodeRT@@CAXAEBV?$FunctionCallbackInfo@VValue@v8@@@Nan@@@Z 0000000180010b20 f i _nodert_generated.obj
 0001:00010280       ?CastFrom@PasswordCredential@Credentials@Security@Windows@NodeRT@@CAXAEBV?$FunctionCallbackInfo@VValue@v8@@@Nan@@@Z 0000000180011280 f i _nodert_generated.obj
 0001:00010470       ?RetrievePassword@PasswordCredential@Credentials@Security@Windows@NodeRT@@CAXAEBV?$FunctionCallbackInfo@VValue@v8@@@Nan@@@Z 0000000180011470 f i _nodert_generated.obj
 0001:00010570       ?UserNameGetter@PasswordCredential@Credentials@Security@Windows@NodeRT@@CAXV?$Local@VString@v8@@@v8@@AEBV?$PropertyCallbackInfo@VValue@v8@@@Nan@@@Z 0000000180011570 f i _nodert_generated.obj
 0001:000106b0       ?UserNameSetter@PasswordCredential@Credentials@Security@Windows@NodeRT@@CAXV?$Local@VString@v8@@@v8@@V?$Local@VValue@v8@@@7@AEBV?$PropertyCallbackInfo@X@Nan@@@Z 00000001800116b0 f i _nodert_generated.obj
 0001:00010860       ?ResourceGetter@PasswordCredential@Credentials@Security@Windows@NodeRT@@CAXV?$Local@VString@v8@@@v8@@AEBV?$PropertyCallbackInfo@VValue@v8@@@Nan@@@Z 0000000180011860 f i _nodert_generated.obj
 0001:000109a0       ?ResourceSetter@PasswordCredential@Credentials@Security@Windows@NodeRT@@CAXV?$Local@VString@v8@@@v8@@V?$Local@VValue@v8@@@7@AEBV?$PropertyCallbackInfo@X@Nan@@@Z 00000001800119a0 f i _nodert_generated.obj
 0001:00010b50       ?PasswordGetter@PasswordCredential@Credentials@Security@Windows@NodeRT@@CAXV?$Local@VString@v8@@@v8@@AEBV?$PropertyCallbackInfo@VValue@v8@@@Nan@@@Z 0000000180011b50 f i _nodert_generated.obj
 0001:00010c90       ?PasswordSetter@PasswordCredential@Credentials@Security@Windows@NodeRT@@CAXV?$Local@VString@v8@@@v8@@V?$Local@VValue@v8@@@7@AEBV?$PropertyCallbackInfo@X@Nan@@@Z 0000000180011c90 f i _nodert_generated.obj
 0001:00010e40       ?PropertiesGetter@PasswordCredential@Credentials@Security@Windows@NodeRT@@CAXV?$Local@VString@v8@@@v8@@AEBV?$PropertyCallbackInfo@VValue@v8@@@Nan@@@Z 0000000180011e40 f i _nodert_generated.obj
 0001:00010f60       ?WrapPasswordCredential@Credentials@Security@Windows@NodeRT@@YA?AV?$Local@VValue@v8@@@v8@@PE$AAVPasswordCredential@123@@Z 0000000180011f60 f   _nodert_generated.obj
 0001:00011050       ?UnwrapPasswordCredential@Credentials@Security@Windows@NodeRT@@YAPE$AAVPasswordCredential@123@V?$Local@VValue@v8@@@v8@@@Z 0000000180012050 f   _nodert_generated.obj
 0001:000110a0       ?Init@PasswordVault@Credentials@Security@Windows@NodeRT@@SAXV?$Local@VObject@v8@@@v8@@@Z 00000001800120a0 f i _nodert_generated.obj
 0001:000112b0       ?New@PasswordVault@Credentials@Security@Windows@NodeRT@@CAXAEBV?$FunctionCallbackInfo@VValue@v8@@@Nan@@@Z 00000001800122b0 f i _nodert_generated.obj
 0001:00011790       ?CastFrom@PasswordVault@Credentials@Security@Windows@NodeRT@@CAXAEBV?$FunctionCallbackInfo@VValue@v8@@@Nan@@@Z 0000000180012790 f i _nodert_generated.obj
 0001:00011980       ?Add@PasswordVault@Credentials@Security@Windows@NodeRT@@CAXAEBV?$FunctionCallbackInfo@VValue@v8@@@Nan@@@Z 0000000180012980 f i _nodert_generated.obj
 0001:00011b10       ?Remove@PasswordVault@Credentials@Security@Windows@NodeRT@@CAXAEBV?$FunctionCallbackInfo@VValue@v8@@@Nan@@@Z 0000000180012b10 f i _nodert_generated.obj
 0001:00011ca0       ?Retrieve@PasswordVault@Credentials@Security@Windows@NodeRT@@CAXAEBV?$FunctionCallbackInfo@VValue@v8@@@Nan@@@Z 0000000180012ca0 f i _nodert_generated.obj
 0001:00011fb0       ?FindAllByResource@PasswordVault@Credentials@Security@Windows@NodeRT@@CAXAEBV?$FunctionCallbackInfo@VValue@v8@@@Nan@@@Z 0000000180012fb0 f i _nodert_generated.obj
 0001:00012310       ?FindAllByUserName@PasswordVault@Credentials@Security@Windows@NodeRT@@CAXAEBV?$FunctionCallbackInfo@VValue@v8@@@Nan@@@Z 0000000180013310 f i _nodert_generated.obj
 0001:00012670       ?RetrieveAll@PasswordVault@Credentials@Security@Windows@NodeRT@@CAXAEBV?$FunctionCallbackInfo@VValue@v8@@@Nan@@@Z 0000000180013670 f i _nodert_generated.obj
 0001:000128e0       ?WrapPasswordVault@Credentials@Security@Windows@NodeRT@@YA?AV?$Local@VValue@v8@@@v8@@PE$AAVPasswordVault@123@@Z 00000001800138e0 f   _nodert_generated.obj
 0001:000129d0       ?Init@PasswordCredentialPropertyStore@Credentials@Security@Windows@NodeRT@@SAXV?$Local@VObject@v8@@@v8@@@Z 00000001800139d0 f i _nodert_generated.obj
 0001:00012c50       ?New@PasswordCredentialPropertyStore@Credentials@Security@Windows@NodeRT@@CAXAEBV?$FunctionCallbackInfo@VValue@v8@@@Nan@@@Z 0000000180013c50 f i _nodert_generated.obj
 0001:00013130       ?CastFrom@PasswordCredentialPropertyStore@Credentials@Security@Windows@NodeRT@@CAXAEBV?$FunctionCallbackInfo@VValue@v8@@@Nan@@@Z 0000000180014130 f i _nodert_generated.obj
 0001:00013320       ?Lookup@PasswordCredentialPropertyStore@Credentials@Security@Windows@NodeRT@@CAXAEBV?$FunctionCallbackInfo@VValue@v8@@@Nan@@@Z 0000000180014320 f i _nodert_generated.obj
 0001:000135e0       ?HasKey@PasswordCredentialPropertyStore@Credentials@Security@Windows@NodeRT@@CAXAEBV?$FunctionCallbackInfo@VValue@v8@@@Nan@@@Z 00000001800145e0 f i _nodert_generated.obj
 0001:00013870       ?GetView@PasswordCredentialPropertyStore@Credentials@Security@Windows@NodeRT@@CAXAEBV?$FunctionCallbackInfo@VValue@v8@@@Nan@@@Z 0000000180014870 f i _nodert_generated.obj
 0001:00013bb0       ?Insert@PasswordCredentialPropertyStore@Credentials@Security@Windows@NodeRT@@CAXAEBV?$FunctionCallbackInfo@VValue@v8@@@Nan@@@Z 0000000180014bb0 f i _nodert_generated.obj
 0001:00013ea0       ?Remove@PasswordCredentialPropertyStore@Credentials@Security@Windows@NodeRT@@CAXAEBV?$FunctionCallbackInfo@VValue@v8@@@Nan@@@Z 0000000180014ea0 f i _nodert_generated.obj
 0001:000140f0       ?Clear@PasswordCredentialPropertyStore@Credentials@Security@Windows@NodeRT@@CAXAEBV?$FunctionCallbackInfo@VValue@v8@@@Nan@@@Z 00000001800150f0 f i _nodert_generated.obj
 0001:00014230       ?First@PasswordCredentialPropertyStore@Credentials@Security@Windows@NodeRT@@CAXAEBV?$FunctionCallbackInfo@VValue@v8@@@Nan@@@Z 0000000180015230 f i _nodert_generated.obj
 0001:00014530       ?AddListener@PasswordCredentialPropertyStore@Credentials@Security@Windows@NodeRT@@CAXAEBV?$FunctionCallbackInfo@VValue@v8@@@Nan@@@Z 0000000180015530 f i _nodert_generated.obj
 0001:00014e20       ?RemoveListener@PasswordCredentialPropertyStore@Credentials@Security@Windows@NodeRT@@CAXAEBV?$FunctionCallbackInfo@VValue@v8@@@Nan@@@Z 0000000180015e20 f i _nodert_generated.obj
 0001:000154d0       ?WrapPasswordCredentialPropertyStore@Credentials@Security@Windows@NodeRT@@YA?AV?$Local@VValue@v8@@@v8@@PE$AAVPasswordCredentialPropertyStore@123@@Z 00000001800164d0 f   _nodert_generated.obj
 0001:000155c0       ?init@@YAXV?$Local@VObject@v8@@@v8@@@Z 00000001800165c0 f   _nodert_generated.obj
 0001:000156a0       ?__abi_Windows_Foundation_IAsyncInfo____abi_get_ErrorCode@?QIAsyncInfo@Foundation@Windows@@?$_AsyncInfoImpl@PE$AAUIAsyncAction@Foundation@Windows@@VAsyncActionCompletedHandler@23@E@details@Concurrency@@UE$AAAJPEAVHResult@23@@Z 00000001800166a0 f i _nodert_generated.obj
 0001:00015720       ?__abi_Windows_Foundation_IAsyncInfo____abi_get_Id@?QIAsyncInfo@Foundation@Windows@@?$_AsyncInfoImpl@PE$AAUIAsyncAction@Foundation@Windows@@VAsyncActionCompletedHandler@23@E@details@Concurrency@@UE$AAAJPEAI@Z 0000000180016720 f i _nodert_generated.obj
 0001:00015770       ?__abi_Windows_Foundation_IAsyncInfo____abi_get_Status@?QIAsyncInfo@Foundation@Windows@@?$_AsyncInfoImpl@PE$AAUIAsyncAction@Foundation@Windows@@VAsyncActionCompletedHandler@23@E@details@Concurrency@@UE$AAAJPEAW4AsyncStatus@23@@Z 0000000180016770 f i _nodert_generated.obj
 0001:000157c0       ?__abi_Windows_Foundation_IAsyncInfo____abi_Cancel@?QIAsyncInfo@Foundation@Windows@@?$_AsyncInfoImpl@PE$AAUIAsyncAction@Foundation@Windows@@VAsyncActionCompletedHandler@23@E@details@Concurrency@@UE$AAAJXZ 00000001800167c0 f i _nodert_generated.obj
 0001:00015800       ?__abi_Windows_Foundation_IAsyncInfo____abi_Close@?QIAsyncInfo@Foundation@Windows@@?$_AsyncInfoImpl@PE$AAUIAsyncAction@Foundation@Windows@@VAsyncActionCompletedHandler@23@E@details@Concurrency@@UE$AAAJXZ 0000000180016800 f i _nodert_generated.obj
 0001:00015840       ?__abi_Windows_Foundation_?$IAsyncOperation@E____abi_get_Completed@?Q?$IAsyncOperation@E@Foundation@Windows@@?$_AsyncInfoImpl@PE$AAUIAsyncAction@Foundation@Windows@@VAsyncActionCompletedHandler@23@E@details@Concurrency@@UE$AAAJPEAPE$AAV?$AsyncOperationCompletedHandler@E@23@@Z 0000000180016840 f i _nodert_generated.obj
 0001:00015890       ?__abi_Windows_Foundation_?$IAsyncOperation@E____abi_set_Completed@?Q?$IAsyncOperation@E@Foundation@Windows@@?$_AsyncInfoImpl@PE$AAUIAsyncAction@Foundation@Windows@@VAsyncActionCompletedHandler@23@E@details@Concurrency@@UE$AAAJPE$AAV?$AsyncOperationCompletedHandler@E@23@@Z 0000000180016890 f i _nodert_generated.obj
 0001:000158d0       ?__abi_Windows_Foundation_?$IAsyncOperation@E____abi_GetResults@?Q?$IAsyncOperation@E@Foundation@Windows@@?$_AsyncInfoImpl@PE$AAUIAsyncAction@Foundation@Windows@@VAsyncActionCompletedHandler@23@E@details@Concurrency@@UE$AAAJPEAE@Z 00000001800168d0 f i _nodert_generated.obj
 0001:00015920       ?__abi_Platform_Details_IWeakReferenceSource____abi_GetWeakReference@?QIWeakReferenceSource@Details@Platform@@_IAsyncActionToAsyncOperationConverter@details@Concurrency@@UE$AAAJPEAPE$AAUIWeakReference@23@@Z 0000000180016920 f i _nodert_generated.obj
 0001:000159a0       ?__abi_QueryInterface@?QObject@Platform@@_IAsyncActionToAsyncOperationConverter@details@Concurrency@@UE$AAAJAEAVGuid@2@PEAPEAX@Z 00000001800169a0 f i _nodert_generated.obj
 0001:00015b90       ?__abi_AddRef@?QObject@Platform@@_IAsyncActionToAsyncOperationConverter@details@Concurrency@@UE$AAAKXZ 0000000180016b90 f i _nodert_generated.obj
 0001:00015bc0       ?__abi_Release@?QObject@Platform@@_IAsyncActionToAsyncOperationConverter@details@Concurrency@@UE$AAAKXZ 0000000180016bc0 f i _nodert_generated.obj
 0001:00015c80       ?__abi_GetIids@?QObject@Platform@@_IAsyncActionToAsyncOperationConverter@details@Concurrency@@UE$AAAJPEAKPEAPEAVGuid@2@@Z 0000000180016c80 f i _nodert_generated.obj
 0001:00015cf0       ?__abi_GetRuntimeClassName@?QObject@Platform@@_IAsyncActionToAsyncOperationConverter@details@Concurrency@@UE$AAAJPEAPEAUHSTRING__@@@Z 0000000180016cf0 f i _nodert_generated.obj
 0001:00015d10       ?__abi_GetTrustLevel@?$AsyncOperationCompletedHandler@PE$AAVKeyCredentialOperationResult@Credentials@Security@Windows@@@Foundation@Windows@@UE$AAAJPEAW4__abi_TrustLevel@@@Z 0000000180016d10 f i _nodert_generated.obj
 0001:00015d10       ?__abi_GetTrustLevel@?$MapChangedEventHandler@PE$AAVString@Platform@@PE$AAVObject@2@@Collections@Foundation@Windows@@UE$AAAJPEAW4__abi_TrustLevel@@@Z 0000000180016d10 f i _nodert_generated.obj
 0001:00015d10       ?__abi_GetTrustLevel@?$AsyncOperationCompletedHandler@E@Foundation@Windows@@UE$AAAJPEAW4__abi_TrustLevel@@@Z 0000000180016d10 f i _nodert_generated.obj
 0001:00015d10       ?__abi_GetTrustLevel@AsyncActionCompletedHandler@Foundation@Windows@@UE$AAAJPEAW4__abi_TrustLevel@@@Z 0000000180016d10 f i _nodert_generated.obj
 0001:00015d10       ?__abi_GetTrustLevel@?$AsyncOperationCompletedHandler@PE$AAUIRandomAccessStream@Streams@Storage@Windows@@@Foundation@Windows@@UE$AAAJPEAW4__abi_TrustLevel@@@Z 0000000180016d10 f i _nodert_generated.obj
 0001:00015d10       ?__abi_GetTrustLevel@?$AsyncOperationCompletedHandler@_N@Foundation@Windows@@UE$AAAJPEAW4__abi_TrustLevel@@@Z 0000000180016d10 f i _nodert_generated.obj
 0001:00015d10       ?__abi_GetTrustLevel@?QObject@Platform@@_IAsyncActionToAsyncOperationConverter@details@Concurrency@@UE$AAAJPEAW4__abi_TrustLevel@@@Z 0000000180016d10 f i _nodert_generated.obj
 0001:00015d10       ?__abi_GetTrustLevel@?$AsyncOperationCompletedHandler@PE$AAVKeyCredentialRetrievalResult@Credentials@Security@Windows@@@Foundation@Windows@@UE$AAAJPEAW4__abi_TrustLevel@@@Z 0000000180016d10 f i _nodert_generated.obj
 0001:00015d10       ?__abi_GetTrustLevel@?$AsyncOperationCompletedHandler@PE$AAVKeyCredentialAttestationResult@Credentials@Security@Windows@@@Foundation@Windows@@UE$AAAJPEAW4__abi_TrustLevel@@@Z 0000000180016d10 f i _nodert_generated.obj
 0001:00015d20       ?GetWeakReference@?QIWeakReferenceSource@Details@Platform@@_IAsyncActionToAsyncOperationConverter@details@Concurrency@@UE$AAAPE$AAUIWeakReference@23@XZ 0000000180016d20 f i _nodert_generated.obj
 0001:00015d60       ?IsSupportedAsync@KeyCredentialManager@Credentials@Security@Windows@@SAPE$AAU?$IAsyncOperation@_N@Foundation@4@XZ 0000000180016d60 f i _nodert_generated.obj
 0001:00015e30       ?RenewAttestationAsync@KeyCredentialManager@Credentials@Security@Windows@@SAPE$AAUIAsyncAction@Foundation@4@XZ 0000000180016e30 f i _nodert_generated.obj
 0001:00015f00       ?RequestCreateAsync@KeyCredentialManager@Credentials@Security@Windows@@SAPE$AAU?$IAsyncOperation@PE$AAVKeyCredentialRetrievalResult@Credentials@Security@Windows@@@Foundation@4@PE$AAVString@Platform@@W4KeyCredentialCreationOption@234@@Z 0000000180016f00 f i _nodert_generated.obj
 0001:00015fe0       ?OpenAsync@KeyCredentialManager@Credentials@Security@Windows@@SAPE$AAU?$IAsyncOperation@PE$AAVKeyCredentialRetrievalResult@Credentials@Security@Windows@@@Foundation@4@PE$AAVString@Platform@@@Z 0000000180016fe0 f i _nodert_generated.obj
 0001:000160c0       ?DeleteAsync@KeyCredentialManager@Credentials@Security@Windows@@SAPE$AAUIAsyncAction@Foundation@4@PE$AAVString@Platform@@@Z 00000001800170c0 f i _nodert_generated.obj
 0001:000161a0       ??0WebAccountProvider@Credentials@Security@Windows@@QE$AAA@PE$AAVString@Platform@@0PE$AAVUri@Foundation@3@@Z 00000001800171a0 f i _nodert_generated.obj
 0001:000162a0       ??0WebAccount@Credentials@Security@Windows@@QE$AAA@PE$AAVWebAccountProvider@123@PE$AAVString@Platform@@W4WebAccountState@123@@Z 00000001800172a0 f i _nodert_generated.obj
 0001:000163a0       ??0PasswordCredential@Credentials@Security@Windows@@QE$AAA@XZ 00000001800173a0 f i _nodert_generated.obj
 0001:000164d0       ??0PasswordCredential@Credentials@Security@Windows@@QE$AAA@PE$AAVString@Platform@@00@Z 00000001800174d0 f i _nodert_generated.obj
 0001:000165d0       ??0PasswordVault@Credentials@Security@Windows@@QE$AAA@XZ 00000001800175d0 f i _nodert_generated.obj
 0001:00016700       ?__abi_Windows_Foundation_Collections_?$MapChangedEventHandler@PE$AAVString@Platform@@PE$AAVObject@2@___abi_IDelegate____abi_Invoke@?Q__abi_IDelegate@?$MapChangedEventHandler@PE$AAVString@Platform@@PE$AAVObject@2@@Collections@Foundation@Windows@@2345@UE$AAAJPE$AAU?$IObservableMap@PE$AAVString@Platform@@PE$AAVObject@2@@345@PE$AAU?$IMapChangedEventArgs@PE$AAVString@Platform@@@345@@Z 0000000180017700 f i _nodert_generated.obj
 0001:00016750       ?__abi_QueryInterface@?$MapChangedEventHandler@PE$AAVString@Platform@@PE$AAVObject@2@@Collections@Foundation@Windows@@UE$AAAJAEAVGuid@Platform@@PEAPEAX@Z 0000000180017750 f i _nodert_generated.obj
 0001:00016880       ?__abi_AddRef@?$MapChangedEventHandler@PE$AAVString@Platform@@PE$AAVObject@2@@Collections@Foundation@Windows@@UE$AAAKXZ 0000000180017880 f i _nodert_generated.obj
 0001:00016880       ?__abi_AddRef@?$AsyncOperationCompletedHandler@_N@Foundation@Windows@@UE$AAAKXZ 0000000180017880 f i _nodert_generated.obj
 0001:00016880       ?__abi_AddRef@?$AsyncOperationCompletedHandler@PE$AAVKeyCredentialAttestationResult@Credentials@Security@Windows@@@Foundation@Windows@@UE$AAAKXZ 0000000180017880 f i _nodert_generated.obj
 0001:00016880       ?__abi_AddRef@?$AsyncOperationCompletedHandler@PE$AAVKeyCredentialOperationResult@Credentials@Security@Windows@@@Foundation@Windows@@UE$AAAKXZ 0000000180017880 f i _nodert_generated.obj
 0001:00016880       ?__abi_AddRef@?$AsyncOperationCompletedHandler@E@Foundation@Windows@@UE$AAAKXZ 0000000180017880 f i _nodert_generated.obj
 0001:00016880       ?__abi_AddRef@?$AsyncOperationCompletedHandler@PE$AAUIRandomAccessStream@Streams@Storage@Windows@@@Foundation@Windows@@UE$AAAKXZ 0000000180017880 f i _nodert_generated.obj
 0001:00016880       ?__abi_AddRef@?$AsyncOperationCompletedHandler@PE$AAVKeyCredentialRetrievalResult@Credentials@Security@Windows@@@Foundation@Windows@@UE$AAAKXZ 0000000180017880 f i _nodert_generated.obj
 0001:00016880       ?__abi_AddRef@AsyncActionCompletedHandler@Foundation@Windows@@UE$AAAKXZ 0000000180017880 f i _nodert_generated.obj
 0001:000168b0       ?__abi_Release@AsyncActionCompletedHandler@Foundation@Windows@@UE$AAAKXZ 00000001800178b0 f i _nodert_generated.obj
 0001:000168b0       ?__abi_Release@?$AsyncOperationCompletedHandler@PE$AAVKeyCredentialRetrievalResult@Credentials@Security@Windows@@@Foundation@Windows@@UE$AAAKXZ 00000001800178b0 f i _nodert_generated.obj
 0001:000168b0       ?__abi_Release@?$AsyncOperationCompletedHandler@_N@Foundation@Windows@@UE$AAAKXZ 00000001800178b0 f i _nodert_generated.obj
 0001:000168b0       ?__abi_Release@?$AsyncOperationCompletedHandler@E@Foundation@Windows@@UE$AAAKXZ 00000001800178b0 f i _nodert_generated.obj
 0001:000168b0       ?__abi_Release@?$AsyncOperationCompletedHandler@PE$AAVKeyCredentialOperationResult@Credentials@Security@Windows@@@Foundation@Windows@@UE$AAAKXZ 00000001800178b0 f i _nodert_generated.obj
 0001:000168b0       ?__abi_Release@?$AsyncOperationCompletedHandler@PE$AAVKeyCredentialAttestationResult@Credentials@Security@Windows@@@Foundation@Windows@@UE$AAAKXZ 00000001800178b0 f i _nodert_generated.obj
 0001:000168b0       ?__abi_Release@?$AsyncOperationCompletedHandler@PE$AAUIRandomAccessStream@Streams@Storage@Windows@@@Foundation@Windows@@UE$AAAKXZ 00000001800178b0 f i _nodert_generated.obj
 0001:000168b0       ?__abi_Release@?$MapChangedEventHandler@PE$AAVString@Platform@@PE$AAVObject@2@@Collections@Foundation@Windows@@UE$AAAKXZ 00000001800178b0 f i _nodert_generated.obj
 0001:00016950       ?__abi_GetIids@?$MapChangedEventHandler@PE$AAVString@Platform@@PE$AAVObject@2@@Collections@Foundation@Windows@@UE$AAAJPEAKPEAPEAVGuid@Platform@@@Z 0000000180017950 f i _nodert_generated.obj
 0001:000169b0       ?__abi_GetRuntimeClassName@?$MapChangedEventHandler@PE$AAVString@Platform@@PE$AAVObject@2@@Collections@Foundation@Windows@@UE$AAAJPEAPEAUHSTRING__@@@Z 00000001800179b0 f i _nodert_generated.obj
 0001:000169d0       ?Invoke@?$MapChangedEventHandler@PE$AAVString@Platform@@PE$AAVObject@2@@Collections@Foundation@Windows@@UE$AAAXPE$AAU?$IObservableMap@PE$AAVString@Platform@@PE$AAVObject@2@@234@PE$AAU?$IMapChangedEventArgs@PE$AAVString@Platform@@@234@@Z 00000001800179d0 f i _nodert_generated.obj
 0001:00016a10       ??0PasswordCredentialPropertyStore@Credentials@Security@Windows@@QE$AAA@XZ 0000000180017a10 f i _nodert_generated.obj
 0001:00016b40       ?CreateInt64@PropertyValue@Foundation@Windows@@SAPE$AAVObject@Platform@@_J@Z 0000000180017b40 f i _nodert_generated.obj
 0001:00016c20       ??1?$shared_ptr@U_Task_impl_base@details@Concurrency@@@std@@QEAA@XZ 0000000180017c20 f i _nodert_generated.obj
 0001:00016c20       ??1?$shared_ptr@U?$_Task_impl@PE$AAUIRandomAccessStream@Streams@Storage@Windows@@@details@Concurrency@@@std@@QEAA@XZ 0000000180017c20 f i _nodert_generated.obj
 0001:00016c20       ??1?$shared_ptr@U?$_Task_impl@PE$AAVKeyCredentialOperationResult@Credentials@Security@Windows@@@details@Concurrency@@@std@@QEAA@XZ 0000000180017c20 f i _nodert_generated.obj
 0001:00016c20       ??1?$shared_ptr@U?$_Task_impl@_N@details@Concurrency@@@std@@QEAA@XZ 0000000180017c20 f i _nodert_generated.obj
 0001:00016c20       ??1?$shared_ptr@Uscheduler_interface@Concurrency@@@std@@QEAA@XZ 0000000180017c20 f i _nodert_generated.obj
 0001:00016c20       ??1?$shared_ptr@U?$_Task_impl@PE$AAVKeyCredentialRetrievalResult@Credentials@Security@Windows@@@details@Concurrency@@@std@@QEAA@XZ 0000000180017c20 f i _nodert_generated.obj
 0001:00016c20       ??1?$shared_ptr@U_ExceptionHolder@details@Concurrency@@@std@@QEAA@XZ 0000000180017c20 f i _nodert_generated.obj
 0001:00016c20       ??1?$shared_ptr@U?$_Task_impl@PE$AAVKeyCredentialAttestationResult@Credentials@Security@Windows@@@details@Concurrency@@@std@@QEAA@XZ 0000000180017c20 f i _nodert_generated.obj
 0001:00016c20       ??1?$shared_ptr@V?$Persistent@VObject@v8@@V?$NonCopyablePersistentTraits@VObject@v8@@@2@@Nan@@@std@@QEAA@XZ 0000000180017c20 f i _nodert_generated.obj
 0001:00016c20       ??1?$shared_ptr@U?$_Task_impl@E@details@Concurrency@@@std@@QEAA@XZ 0000000180017c20 f i _nodert_generated.obj
 0001:00016c70       ?CreateKeyValuePairWrapper@?$KeyValuePairWrapper@PE$AAVString@Platform@@PE$AAVObject@2@@Collections@NodeRT@@SA?AV?$Local@VValue@v8@@@v8@@PE$AAU?$IKeyValuePair@PE$AAVString@Platform@@PE$AAVObject@2@@2Foundation@Windows@@AEBV?$function@$$A6A?AV?$Local@VValue@v8@@@v8@@PE$AAVString@Platform@@@Z@std@@AEBV?$function@$$A6A?AV?$Local@VValue@v8@@@v8@@PE$AAVObject@Platform@@@Z@std@@@Z 0000000180017c70 f i _nodert_generated.obj
 0001:00016dc0       ??1?$_Func_class@XV?$function@$$A6AXHPEAV?$Local@VValue@v8@@@v8@@@Z@std@@@std@@QEAA@XZ 0000000180017dc0 f i _nodert_generated.obj
 0001:00016dc0       ??1?$function@$$A6APE$AAVString@Platform@@V?$Local@VValue@v8@@@v8@@@Z@std@@QEAA@XZ 0000000180017dc0 f i _nodert_generated.obj
 0001:00016dc0       ??1?$_Func_class@X$$V@std@@QEAA@XZ 0000000180017dc0 f i _nodert_generated.obj
 0001:00016dc0       ??1?$_Func_class@V?$Local@VValue@v8@@@v8@@PE$AAVPasswordCredential@Credentials@Security@Windows@@@std@@QEAA@XZ 0000000180017dc0 f i _nodert_generated.obj
 0001:00016dc0       ??1?$_Func_class@V?$Local@VValue@v8@@@v8@@PE$AAVString@Platform@@@std@@QEAA@XZ 0000000180017dc0 f i _nodert_generated.obj
 0001:00016dc0       ??1?$_Func_class@XV?$task@X@Concurrency@@@std@@QEAA@XZ 0000000180017dc0 f i _nodert_generated.obj
 0001:00016dc0       ??1?$_Func_class@PE$AAVPasswordCredential@Credentials@Security@Windows@@V?$Local@VValue@v8@@@v8@@@std@@QEAA@XZ 0000000180017dc0 f i _nodert_generated.obj
 0001:00016dc0       ??1?$function@$$A6A_NV?$Local@VValue@v8@@@v8@@@Z@std@@QEAA@XZ 0000000180017dc0 f i _nodert_generated.obj
 0001:00016dc0       ??1?$_Func_class@XV?$task@PE$AAVKeyCredentialRetrievalResult@Credentials@Security@Windows@@@Concurrency@@@std@@QEAA@XZ 0000000180017dc0 f i _nodert_generated.obj
 0001:00016dc0       ??1?$_Func_class@V?$Local@VValue@v8@@@v8@@PE$AAU?$IKeyValuePair@PE$AAVString@Platform@@PE$AAVObject@2@@Collections@Foundation@Windows@@@std@@QEAA@XZ 0000000180017dc0 f i _nodert_generated.obj
 0001:00016dc0       ??1?$_Func_class@_NV?$Local@VValue@v8@@@v8@@@std@@QEAA@XZ 0000000180017dc0 f i _nodert_generated.obj
 0001:00016dc0       ??1?$function@$$A6AXXZ@std@@QEAA@XZ 0000000180017dc0 f i _nodert_generated.obj
 0001:00016dc0       ??1?$function@$$A6AXV?$task@PE$AAVKeyCredentialRetrievalResult@Credentials@Security@Windows@@@Concurrency@@@Z@std@@QEAA@XZ 0000000180017dc0 f i _nodert_generated.obj
 0001:00016dc0       ??1?$function@$$A6A?AV?$Local@VValue@v8@@@v8@@PE$AAVString@Platform@@@Z@std@@QEAA@XZ 0000000180017dc0 f i _nodert_generated.obj
 0001:00016dc0       ??1?$function@$$A6A?AV?$Local@VValue@v8@@@v8@@PE$AAU?$IKeyValuePair@PE$AAVString@Platform@@PE$AAVObject@2@@Collections@Foundation@Windows@@@Z@std@@QEAA@XZ 0000000180017dc0 f i _nodert_generated.obj
 0001:00016dc0       ??1?$function@$$A6A?AV?$Local@VValue@v8@@@v8@@PE$AAVObject@Platform@@@Z@std@@QEAA@XZ 0000000180017dc0 f i _nodert_generated.obj
 0001:00016dc0       ??1?$function@$$A6AXV?$function@$$A6AXHPEAV?$Local@VValue@v8@@@v8@@@Z@std@@@Z@std@@QEAA@XZ 0000000180017dc0 f i _nodert_generated.obj
 0001:00016dc0       ??1?$_Func_class@V?$Local@VValue@v8@@@v8@@PE$AAVObject@Platform@@@std@@QEAA@XZ 0000000180017dc0 f i _nodert_generated.obj
 0001:00016dc0       ??1?$function@$$A6AXV?$task@X@Concurrency@@@Z@std@@QEAA@XZ 0000000180017dc0 f i _nodert_generated.obj
 0001:00016dc0       ??1?$_Func_class@PE$AAVString@Platform@@V?$Local@VValue@v8@@@v8@@@std@@QEAA@XZ 0000000180017dc0 f i _nodert_generated.obj
 0001:00016dc0       ??1?$function@$$A6APE$AAVPasswordCredential@Credentials@Security@Windows@@V?$Local@VValue@v8@@@v8@@@Z@std@@QEAA@XZ 0000000180017dc0 f i _nodert_generated.obj
 0001:00016dc0       ??1?$function@$$A6A?AV?$Local@VValue@v8@@@v8@@PE$AAVPasswordCredential@Credentials@Security@Windows@@@Z@std@@QEAA@XZ 0000000180017dc0 f i _nodert_generated.obj
 0001:00016df0       ?CreateIteratorWrapper@?$IteratorWrapper@PE$AAU?$IKeyValuePair@PE$AAVString@Platform@@PE$AAVObject@2@@Collections@Foundation@Windows@@@Collections@NodeRT@@SA?AV?$Local@VValue@v8@@@v8@@PE$AAU?$IIterator@PE$AAU?$IKeyValuePair@PE$AAVString@Platform@@PE$AAVObject@2@@Collections@Foundation@Windows@@@2Foundation@Windows@@AEBV?$function@$$A6A?AV?$Local@VValue@v8@@@v8@@PE$AAU?$IKeyValuePair@PE$AAVString@Platform@@PE$AAVObject@2@@Collections@Foundation@Windows@@@Z@std@@@Z 0000000180017df0 f i _nodert_generated.obj
 0001:00016f30       ?CreateMapViewWrapper@?$MapViewWrapper@PE$AAVString@Platform@@PE$AAVObject@2@@Collections@NodeRT@@SA?AV?$Local@VValue@v8@@@v8@@PE$AAU?$IMapView@PE$AAVString@Platform@@PE$AAVObject@2@@2Foundation@Windows@@AEBV?$function@$$A6A?AV?$Local@VValue@v8@@@v8@@PE$AAVString@Platform@@@Z@std@@AEBV?$function@$$A6A_NV?$Local@VValue@v8@@@v8@@@Z@std@@AEBV?$function@$$A6APE$AAVString@Platform@@V?$Local@VValue@v8@@@v8@@@Z@std@@AEBV?$function@$$A6A?AV?$Local@VValue@v8@@@v8@@PE$AAVObject@Platform@@@Z@std@@@Z 0000000180017f30 f i _nodert_generated.obj
 0001:00017090       ?CreateVectorViewWrapper@?$VectorViewWrapper@PE$AAVPasswordCredential@Credentials@Security@Windows@@@Collections@NodeRT@@SA?AV?$Local@VValue@v8@@@v8@@PE$AAU?$IVectorView@PE$AAVPasswordCredential@Credentials@Security@Windows@@@2Foundation@Windows@@AEBV?$function@$$A6A?AV?$Local@VValue@v8@@@v8@@PE$AAVPasswordCredential@Credentials@Security@Windows@@@Z@std@@AEBV?$function@$$A6A_NV?$Local@VValue@v8@@@v8@@@Z@std@@AEBV?$function@$$A6APE$AAVPasswordCredential@Credentials@Security@Windows@@V?$Local@VValue@v8@@@v8@@@Z@std@@@Z 0000000180018090 f i _nodert_generated.obj
 0001:00017280       ?CreateMapViewWrapper@?$MapViewWrapper@PE$AAVString@Platform@@PE$AAV12@@Collections@NodeRT@@SA?AV?$Local@VValue@v8@@@v8@@PE$AAU?$IMapView@PE$AAVString@Platform@@PE$AAV12@@2Foundation@Windows@@AEBV?$function@$$A6A?AV?$Local@VValue@v8@@@v8@@PE$AAVString@Platform@@@Z@std@@AEBV?$function@$$A6A_NV?$Local@VValue@v8@@@v8@@@Z@std@@AEBV?$function@$$A6APE$AAVString@Platform@@V?$Local@VValue@v8@@@v8@@@Z@std@@1@Z 0000000180018280 f i _nodert_generated.obj
 0001:000173e0       ?get@?$task@PE$AAUIRandomAccessStream@Streams@Storage@Windows@@@Concurrency@@QEBAPE$AAUIRandomAccessStream@Streams@Storage@Windows@@XZ 00000001800183e0 f i _nodert_generated.obj
 0001:00017470       ?get@?$task@PE$AAVKeyCredentialOperationResult@Credentials@Security@Windows@@@Concurrency@@QEBAPE$AAVKeyCredentialOperationResult@Credentials@Security@Windows@@XZ 0000000180018470 f i _nodert_generated.obj
 0001:00017470       ?get@?$task@PE$AAVKeyCredentialAttestationResult@Credentials@Security@Windows@@@Concurrency@@QEBAPE$AAVKeyCredentialAttestationResult@Credentials@Security@Windows@@XZ 0000000180018470 f i _nodert_generated.obj
 0001:00017470       ?get@?$task@PE$AAVKeyCredentialRetrievalResult@Credentials@Security@Windows@@@Concurrency@@QEBAPE$AAVKeyCredentialRetrievalResult@Credentials@Security@Windows@@XZ 0000000180018470 f i _nodert_generated.obj
 0001:00017500       ??1?$unique_ptr@$$BY0A@V?$Local@VValue@v8@@@v8@@U?$default_delete@$$BY0A@V?$Local@VValue@v8@@@v8@@@std@@@std@@QEAA@XZ 0000000180018500 f i _nodert_generated.obj
 0001:00017510       ??1?$function@$$A6AXHPEAV?$Local@VValue@v8@@@v8@@@Z@std@@QEAA@XZ 0000000180018510 f i _nodert_generated.obj
 0001:00017550       ?_CreateImpl@?$task@E@Concurrency@@QEAAXPEAV_CancellationTokenState@details@2@Uscheduler_ptr@2@@Z 0000000180018550 f i _nodert_generated.obj
 0001:00017690       ?_CancelAndRunContinuations@?$_Task_impl@E@details@Concurrency@@UEAA_N_N00AEBV?$shared_ptr@U_ExceptionHolder@details@Concurrency@@@std@@@Z 0000000180018690 f i _nodert_generated.obj
 0001:00017910       ?_Exec@?$_CancellationTokenCallback@V<lambda_be3e5d9dce35d2c8dbfa8485373731d5>@@@details@Concurrency@@MEAAXXZ 0000000180018910 f i _nodert_generated.obj
 0001:00017920       ??0?$_CancellationTokenCallback@V<lambda_be3e5d9dce35d2c8dbfa8485373731d5>@@@details@Concurrency@@QEAA@AEBV<lambda_be3e5d9dce35d2c8dbfa8485373731d5>@@@Z 0000000180018920 f i _nodert_generated.obj
 0001:000179f0       ?lock@?$weak_ptr@U_Task_impl_base@details@Concurrency@@@std@@QEBA?AV?$shared_ptr@U_Task_impl_base@details@Concurrency@@@2@XZ 00000001800189f0 f i _nodert_generated.obj
 0001:00017a50       ??1?$weak_ptr@U_Task_impl_base@details@Concurrency@@@std@@QEAA@XZ 0000000180018a50 f i _nodert_generated.obj
 0001:00017a70       ?set@?Q?$IAsyncOperation@E@Foundation@Windows@@Completed@?$_AsyncInfoImpl@PE$AAUIAsyncAction@Foundation@Windows@@VAsyncActionCompletedHandler@23@E@details@Concurrency@@UE$AAAXPE$AAV?$AsyncOperationCompletedHandler@E@23@@Z 0000000180018a70 f i _nodert_generated.obj
 0001:00017b40       ?__abi_Windows_Foundation_AsyncActionCompletedHandler___abi_IDelegate____abi_Invoke@?Q__abi_IDelegate@AsyncActionCompletedHandler@Foundation@Windows@@234@UE$AAAJPE$AAUIAsyncAction@34@W4AsyncStatus@34@@Z 0000000180018b40 f i _nodert_generated.obj
 0001:00017b90       ?__abi_QueryInterface@AsyncActionCompletedHandler@Foundation@Windows@@UE$AAAJAEAVGuid@Platform@@PEAPEAX@Z 0000000180018b90 f i _nodert_generated.obj
 0001:00017cc0       ?__abi_GetIids@AsyncActionCompletedHandler@Foundation@Windows@@UE$AAAJPEAKPEAPEAVGuid@Platform@@@Z 0000000180018cc0 f i _nodert_generated.obj
 0001:00017d20       ?__abi_GetRuntimeClassName@AsyncActionCompletedHandler@Foundation@Windows@@UE$AAAJPEAPEAUHSTRING__@@@Z 0000000180018d20 f i _nodert_generated.obj
 0001:00017d40       ?Invoke@AsyncActionCompletedHandler@Foundation@Windows@@UE$AAAXPE$AAUIAsyncAction@23@W4AsyncStatus@23@@Z 0000000180018d40 f i _nodert_generated.obj
 0001:00017d80       ?__abi_Windows_Foundation_?$AsyncOperationCompletedHandler@E___abi_IDelegate____abi_Invoke@?Q__abi_IDelegate@?$AsyncOperationCompletedHandler@E@Foundation@Windows@@234@UE$AAAJPE$AAU?$IAsyncOperation@E@34@W4AsyncStatus@34@@Z 0000000180018d80 f i _nodert_generated.obj
 0001:00017da0       ?__abi_QueryInterface@?$AsyncOperationCompletedHandler@E@Foundation@Windows@@UE$AAAJAEAVGuid@Platform@@PEAPEAX@Z 0000000180018da0 f i _nodert_generated.obj
 0001:00017ed0       ?__abi_GetIids@?$AsyncOperationCompletedHandler@PE$AAVKeyCredentialRetrievalResult@Credentials@Security@Windows@@@Foundation@Windows@@UE$AAAJPEAKPEAPEAVGuid@Platform@@@Z 0000000180018ed0 f i _nodert_generated.obj
 0001:00017ed0       ?__abi_GetIids@?$AsyncOperationCompletedHandler@_N@Foundation@Windows@@UE$AAAJPEAKPEAPEAVGuid@Platform@@@Z 0000000180018ed0 f i _nodert_generated.obj
 0001:00017ed0       ?__abi_GetIids@?$AsyncOperationCompletedHandler@PE$AAVKeyCredentialAttestationResult@Credentials@Security@Windows@@@Foundation@Windows@@UE$AAAJPEAKPEAPEAVGuid@Platform@@@Z 0000000180018ed0 f i _nodert_generated.obj
 0001:00017ed0       ?__abi_GetIids@?$AsyncOperationCompletedHandler@E@Foundation@Windows@@UE$AAAJPEAKPEAPEAVGuid@Platform@@@Z 0000000180018ed0 f i _nodert_generated.obj
 0001:00017ed0       ?__abi_GetIids@?$AsyncOperationCompletedHandler@PE$AAUIRandomAccessStream@Streams@Storage@Windows@@@Foundation@Windows@@UE$AAAJPEAKPEAPEAVGuid@Platform@@@Z 0000000180018ed0 f i _nodert_generated.obj
 0001:00017ed0       ?__abi_GetIids@?$AsyncOperationCompletedHandler@PE$AAVKeyCredentialOperationResult@Credentials@Security@Windows@@@Foundation@Windows@@UE$AAAJPEAKPEAPEAVGuid@Platform@@@Z 0000000180018ed0 f i _nodert_generated.obj
 0001:00017f30       ?__abi_GetRuntimeClassName@?$AsyncOperationCompletedHandler@E@Foundation@Windows@@UE$AAAJPEAPEAUHSTRING__@@@Z 0000000180018f30 f i _nodert_generated.obj
 0001:00017f50       ?Invoke@?$AsyncOperationCompletedHandler@E@Foundation@Windows@@UE$AAAXPE$AAU?$IAsyncOperation@E@23@W4AsyncStatus@23@@Z 0000000180018f50 f i _nodert_generated.obj
 0001:00017f90       ?get@?Q?$IAsyncOperation@E@Foundation@Windows@@Completed@?$_AsyncInfoImpl@PE$AAUIAsyncAction@Foundation@Windows@@VAsyncActionCompletedHandler@23@E@details@Concurrency@@UE$AAAPE$AAV?$AsyncOperationCompletedHandler@E@23@XZ 0000000180018f90 f i _nodert_generated.obj
 0001:00017fc0       ?get@?QIAsyncInfo@Foundation@Windows@@Status@?$_AsyncInfoImpl@PE$AAUIAsyncAction@Foundation@Windows@@VAsyncActionCompletedHandler@23@E@details@Concurrency@@UE$AAA?AW4AsyncStatus@23@XZ 0000000180018fc0 f i _nodert_generated.obj
 0001:00018060       ?get@?QIAsyncInfo@Foundation@Windows@@Id@?$_AsyncInfoImpl@PE$AAUIAsyncAction@Foundation@Windows@@VAsyncActionCompletedHandler@23@E@details@Concurrency@@UE$AAAIXZ 0000000180019060 f i _nodert_generated.obj
 0001:00018100       ?get@?QIAsyncInfo@Foundation@Windows@@ErrorCode@?$_AsyncInfoImpl@PE$AAUIAsyncAction@Foundation@Windows@@VAsyncActionCompletedHandler@23@E@details@Concurrency@@UE$AAA?AVHResult@23@XZ 0000000180019100 f i _nodert_generated.obj
 0001:00018190       ?Get@?$Agile@PE$AAUIAsyncAction@Foundation@Windows@@$00@Platform@@QEBAPE$AAUIAsyncAction@Foundation@Windows@@XZ 0000000180019190 f i _nodert_generated.obj
 0001:000182f0       ??1?$Agile@PE$AAUIAsyncAction@Foundation@Windows@@$00@Platform@@QEAA@XZ 00000001800192f0 f i _nodert_generated.obj
 0001:00018330       ?GetResults@?Q?$IAsyncOperation@E@Foundation@Windows@@?$_AsyncInfoImpl@PE$AAUIAsyncAction@Foundation@Windows@@VAsyncActionCompletedHandler@23@E@details@Concurrency@@UE$AAAEXZ 0000000180019330 f i _nodert_generated.obj
 0001:00018360       ?Close@?QIAsyncInfo@Foundation@Windows@@?$_AsyncInfoImpl@PE$AAUIAsyncAction@Foundation@Windows@@VAsyncActionCompletedHandler@23@E@details@Concurrency@@UE$AAAXXZ 0000000180019360 f i _nodert_generated.obj
 0001:00018400       ?Cancel@?QIAsyncInfo@Foundation@Windows@@?$_AsyncInfoImpl@PE$AAUIAsyncAction@Foundation@Windows@@VAsyncActionCompletedHandler@23@E@details@Concurrency@@UE$AAAXXZ 0000000180019400 f i _nodert_generated.obj
 0001:00018490       ??0?$_AsyncInfoImpl@PE$AAUIAsyncAction@Foundation@Windows@@VAsyncActionCompletedHandler@23@E@details@Concurrency@@QE$AAA@PE$AAUIAsyncAction@Foundation@Windows@@@Z 0000000180019490 f i _nodert_generated.obj
 0001:00018510       ??R?$_Func_class@X$$V@std@@QEBAXXZ 0000000180019510 f i _nodert_generated.obj
 0001:00018530       ??4?$vector@PEAXV?$allocator@PEAX@std@@@std@@QEAAAEAV01@AEBV01@@Z 0000000180019530 f i _nodert_generated.obj
 0001:00018670       ??1?$unique_ptr@U_TaskProcHandle@details@Concurrency@@U?$default_delete@U_TaskProcHandle@details@Concurrency@@@std@@@std@@QEAA@XZ 0000000180019670 f i _nodert_generated.obj
 0001:00018690       ??1?$unique_ptr@V_PPLTaskChore@_DefaultPPLTaskScheduler@details@Concurrency@@U?$default_delete@V_PPLTaskChore@_DefaultPPLTaskScheduler@details@Concurrency@@@std@@@std@@QEAA@XZ 0000000180019690 f i _nodert_generated.obj
 0001:000186d0       ??1?$lock_guard@Vmutex@std@@@std@@QEAA@XZ 00000001800196d0 f i _nodert_generated.obj
 0001:00018700       ??1?$unique_lock@Vmutex@std@@@std@@QEAA@XZ 0000000180019700 f i _nodert_generated.obj
 0001:00018730       ??_G?$_Task_impl@E@details@Concurrency@@UEAAPEAXI@Z 0000000180019730 f i _nodert_generated.obj
 0001:00018730       ??_E?$_Task_impl@E@details@Concurrency@@UEAAPEAXI@Z 0000000180019730 f i * CIL library *:* CIL module *
 0001:000187c0       ??_G?$_CancellationTokenCallback@V<lambda_be3e5d9dce35d2c8dbfa8485373731d5>@@@details@Concurrency@@UEAAPEAXI@Z 00000001800197c0 f i _nodert_generated.obj
 0001:000187c0       ??_E?$_CancellationTokenCallback@V<lambda_be3e5d9dce35d2c8dbfa8485373731d5>@@@details@Concurrency@@UEAAPEAXI@Z 00000001800197c0 f i * CIL library *:* CIL module *
 0001:00018880       ??0runtime_error@std@@QEAA@AEBV01@@Z 0000000180019880 f i _nodert_generated.obj
 0001:000188a0       ??1?$ComPtr@UIAgileObject@@@WRL@Microsoft@@QEAA@XZ 00000001800198a0 f i _nodert_generated.obj
 0001:000188c0       ??0?$KeyValuePairWrapper@PE$AAVString@Platform@@PE$AAVObject@2@@Collections@NodeRT@@AEAA@PE$AAU?$IKeyValuePair@PE$AAVString@Platform@@PE$AAVObject@2@@1Foundation@Windows@@AEBV?$function@$$A6A?AV?$Local@VValue@v8@@@v8@@PE$AAVString@Platform@@@Z@std@@AEBV?$function@$$A6A?AV?$Local@VValue@v8@@@v8@@PE$AAVObject@Platform@@@Z@7@@Z 00000001800198c0 f i _nodert_generated.obj
 0001:00018970       ?Init@?$KeyValuePairWrapper@PE$AAVString@Platform@@PE$AAVObject@2@@Collections@NodeRT@@SAXXZ 0000000180019970 f i _nodert_generated.obj
 0001:00018b50       ??0?$IteratorWrapper@PE$AAU?$IKeyValuePair@PE$AAVString@Platform@@PE$AAVObject@2@@Collections@Foundation@Windows@@@Collections@NodeRT@@AEAA@PE$AAU?$IIterator@PE$AAU?$IKeyValuePair@PE$AAVString@Platform@@PE$AAVObject@2@@Collections@Foundation@Windows@@@1Foundation@Windows@@AEBV?$function@$$A6A?AV?$Local@VValue@v8@@@v8@@PE$AAU?$IKeyValuePair@PE$AAVString@Platform@@PE$AAVObject@2@@Collections@Foundation@Windows@@@Z@std@@@Z 0000000180019b50 f i _nodert_generated.obj
 0001:00018be0       ?Init@?$IteratorWrapper@PE$AAU?$IKeyValuePair@PE$AAVString@Platform@@PE$AAVObject@2@@Collections@Foundation@Windows@@@Collections@NodeRT@@SAXXZ 0000000180019be0 f i _nodert_generated.obj
 0001:00018df0       ??0?$MapViewWrapper@PE$AAVString@Platform@@PE$AAVObject@2@@Collections@NodeRT@@AEAA@PE$AAU?$IMapView@PE$AAVString@Platform@@PE$AAVObject@2@@1Foundation@Windows@@AEBV?$function@$$A6A?AV?$Local@VValue@v8@@@v8@@PE$AAVString@Platform@@@Z@std@@AEBV?$function@$$A6A_NV?$Local@VValue@v8@@@v8@@@Z@7@AEBV?$function@$$A6APE$AAVString@Platform@@V?$Local@VValue@v8@@@v8@@@Z@7@AEBV?$function@$$A6A?AV?$Local@VValue@v8@@@v8@@PE$AAVObject@Platform@@@Z@7@@Z 0000000180019df0 f i _nodert_generated.obj
 0001:00018f00       ?Init@?$MapViewWrapper@PE$AAVString@Platform@@PE$AAVObject@2@@Collections@NodeRT@@SAXXZ 0000000180019f00 f i _nodert_generated.obj
 0001:00019120       ?Init@?$VectorViewWrapper@PE$AAVPasswordCredential@Credentials@Security@Windows@@@Collections@NodeRT@@SAXXZ 000000018001a120 f i _nodert_generated.obj
 0001:00019350       ??0?$MapViewWrapper@PE$AAVString@Platform@@PE$AAV12@@Collections@NodeRT@@AEAA@PE$AAU?$IMapView@PE$AAVString@Platform@@PE$AAV12@@1Foundation@Windows@@AEBV?$function@$$A6A?AV?$Local@VValue@v8@@@v8@@PE$AAVString@Platform@@@Z@std@@AEBV?$function@$$A6A_NV?$Local@VValue@v8@@@v8@@@Z@7@AEBV?$function@$$A6APE$AAVString@Platform@@V?$Local@VValue@v8@@@v8@@@Z@7@1@Z 000000018001a350 f i _nodert_generated.obj
 0001:00019460       ?Init@?$MapViewWrapper@PE$AAVString@Platform@@PE$AAV12@@Collections@NodeRT@@SAXXZ 000000018001a460 f i _nodert_generated.obj
 0001:00019680       ?_CancelAndRunContinuations@?$_Task_impl@PE$AAUIRandomAccessStream@Streams@Storage@Windows@@@details@Concurrency@@UEAA_N_N00AEBV?$shared_ptr@U_ExceptionHolder@details@Concurrency@@@std@@@Z 000000018001a680 f i _nodert_generated.obj
 0001:00019900       ??1?$_Task_impl@PE$AAUIRandomAccessStream@Streams@Storage@Windows@@@details@Concurrency@@UEAA@XZ 000000018001a900 f i _nodert_generated.obj
 0001:000199a0       ?_CancelAndRunContinuations@?$_Task_impl@PE$AAVKeyCredentialRetrievalResult@Credentials@Security@Windows@@@details@Concurrency@@UEAA_N_N00AEBV?$shared_ptr@U_ExceptionHolder@details@Concurrency@@@std@@@Z 000000018001a9a0 f i _nodert_generated.obj
 0001:00019c20       ??1?$_Task_impl@PE$AAVKeyCredentialRetrievalResult@Credentials@Security@Windows@@@details@Concurrency@@UEAA@XZ 000000018001ac20 f i _nodert_generated.obj
 0001:00019cb0       ?_CancelAndRunContinuations@?$_Task_impl@PE$AAVKeyCredentialAttestationResult@Credentials@Security@Windows@@@details@Concurrency@@UEAA_N_N00AEBV?$shared_ptr@U_ExceptionHolder@details@Concurrency@@@std@@@Z 000000018001acb0 f i _nodert_generated.obj
 0001:00019f30       ??1?$_Task_impl@PE$AAVKeyCredentialAttestationResult@Credentials@Security@Windows@@@details@Concurrency@@UEAA@XZ 000000018001af30 f i _nodert_generated.obj
 0001:00019fc0       ?_CancelAndRunContinuations@?$_Task_impl@PE$AAVKeyCredentialOperationResult@Credentials@Security@Windows@@@details@Concurrency@@UEAA_N_N00AEBV?$shared_ptr@U_ExceptionHolder@details@Concurrency@@@std@@@Z 000000018001afc0 f i _nodert_generated.obj
 0001:0001a240       ??1?$_Task_impl@PE$AAVKeyCredentialOperationResult@Credentials@Security@Windows@@@details@Concurrency@@UEAA@XZ 000000018001b240 f i _nodert_generated.obj
 0001:0001a2d0       ?_CancelAndRunContinuations@?$_Task_impl@_N@details@Concurrency@@UEAA_N_N00AEBV?$shared_ptr@U_ExceptionHolder@details@Concurrency@@@std@@@Z 000000018001b2d0 f i _nodert_generated.obj
 0001:0001a550       ??4?$shared_ptr@U?$_Task_impl@_N@details@Concurrency@@@std@@QEAAAEAV01@AEBV01@@Z 000000018001b550 f i _nodert_generated.obj
 0001:0001a550       ??4?$shared_ptr@U?$_Task_impl@PE$AAVKeyCredentialRetrievalResult@Credentials@Security@Windows@@@details@Concurrency@@@std@@QEAAAEAV01@AEBV01@@Z 000000018001b550 f i _nodert_generated.obj
 0001:0001a550       ??4?$shared_ptr@U?$_Task_impl@PE$AAUIRandomAccessStream@Streams@Storage@Windows@@@details@Concurrency@@@std@@QEAAAEAV01@AEBV01@@Z 000000018001b550 f i _nodert_generated.obj
 0001:0001a550       ??4?$shared_ptr@U?$_Task_impl@PE$AAVKeyCredentialAttestationResult@Credentials@Security@Windows@@@details@Concurrency@@@std@@QEAAAEAV01@AEBV01@@Z 000000018001b550 f i _nodert_generated.obj
 0001:0001a550       ??4?$shared_ptr@U?$_Task_impl@E@details@Concurrency@@@std@@QEAAAEAV01@AEBV01@@Z 000000018001b550 f i _nodert_generated.obj
 0001:0001a550       ??4?$shared_ptr@U?$_Task_impl@PE$AAVKeyCredentialOperationResult@Credentials@Security@Windows@@@details@Concurrency@@@std@@QEAAAEAV01@AEBV01@@Z 000000018001b550 f i _nodert_generated.obj
 0001:0001a550       ??4?$shared_ptr@U_ExceptionHolder@details@Concurrency@@@std@@QEAAAEAV01@AEBV01@@Z 000000018001b550 f i _nodert_generated.obj
 0001:0001a5e0       ??4?$shared_ptr@U?$_Task_impl@PE$AAVKeyCredentialOperationResult@Credentials@Security@Windows@@@details@Concurrency@@@std@@QEAAAEAV01@$$QEAV01@@Z 000000018001b5e0 f i _nodert_generated.obj
 0001:0001a5e0       ??4?$shared_ptr@U?$_Task_impl@PE$AAVKeyCredentialRetrievalResult@Credentials@Security@Windows@@@details@Concurrency@@@std@@QEAAAEAV01@$$QEAV01@@Z 000000018001b5e0 f i _nodert_generated.obj
 0001:0001a5e0       ??4?$shared_ptr@U?$_Task_impl@PE$AAVKeyCredentialAttestationResult@Credentials@Security@Windows@@@details@Concurrency@@@std@@QEAAAEAV01@$$QEAV01@@Z 000000018001b5e0 f i _nodert_generated.obj
 0001:0001a5e0       ??4?$shared_ptr@U?$_Task_impl@_N@details@Concurrency@@@std@@QEAAAEAV01@$$QEAV01@@Z 000000018001b5e0 f i _nodert_generated.obj
 0001:0001a5e0       ??4?$shared_ptr@U?$_Task_impl@E@details@Concurrency@@@std@@QEAAAEAV01@$$QEAV01@@Z 000000018001b5e0 f i _nodert_generated.obj
 0001:0001a5e0       ??4?$shared_ptr@U?$_Task_impl@PE$AAUIRandomAccessStream@Streams@Storage@Windows@@@details@Concurrency@@@std@@QEAAAEAV01@$$QEAV01@@Z 000000018001b5e0 f i _nodert_generated.obj
 0001:0001a670       ?_FinalizeAndRunContinuations@?$_Task_impl@E@details@Concurrency@@QEAAXE@Z 000000018001b670 f i _nodert_generated.obj
 0001:0001a670       ?_FinalizeAndRunContinuations@?$_Task_impl@_N@details@Concurrency@@QEAAX_N@Z 000000018001b670 f i _nodert_generated.obj
 0001:0001a700       ?_Make@?$_Task_ptr@E@details@Concurrency@@SA?AV?$shared_ptr@U?$_Task_impl@E@details@Concurrency@@@std@@PEAV_CancellationTokenState@23@Uscheduler_ptr@3@@Z 000000018001b700 f i _nodert_generated.obj
 0001:0001a790       ?Release@?$Agile@PE$AAUIRandomAccessStream@Streams@Storage@Windows@@$00@Platform@@QEAAXXZ 000000018001b790 f i _nodert_generated.obj
 0001:0001a790       ?Release@?$Agile@PE$AAUIAsyncAction@Foundation@Windows@@$00@Platform@@QEAAXXZ 000000018001b790 f i _nodert_generated.obj
 0001:0001a830       ?deallocate@?$_Wrap_alloc@V?$allocator@PEAX@std@@@std@@QEAAXPEAPEAX_K@Z 000000018001b830 f i _nodert_generated.obj
 0001:0001a8b0       ?_Buy@?$vector@PEAXV?$allocator@PEAX@std@@@std@@IEAA_N_K@Z 000000018001b8b0 f i _nodert_generated.obj
 0001:0001a950       ??_G?$KeyValuePairWrapper@PE$AAVString@Platform@@PE$AAV12@@Collections@NodeRT@@UEAAPEAXI@Z 000000018001b950 f i _nodert_generated.obj
 0001:0001a950       ??_G?$KeyValuePairWrapper@PE$AAVString@Platform@@PE$AAVObject@2@@Collections@NodeRT@@UEAAPEAXI@Z 000000018001b950 f i _nodert_generated.obj
 0001:0001a950       ??_E?$KeyValuePairWrapper@PE$AAVString@Platform@@PE$AAV12@@Collections@NodeRT@@UEAAPEAXI@Z 000000018001b950 f i * CIL library *:* CIL module *
 0001:0001a950       ??_E?$KeyValuePairWrapper@PE$AAVString@Platform@@PE$AAVObject@2@@Collections@NodeRT@@UEAAPEAXI@Z 000000018001b950 f i * CIL library *:* CIL module *
 0001:0001a990       ??1?$KeyValuePairWrapper@PE$AAVString@Platform@@PE$AAVObject@2@@Collections@NodeRT@@UEAA@XZ 000000018001b990 f i _nodert_generated.obj
 0001:0001a990       ??1?$KeyValuePairWrapper@PE$AAVString@Platform@@PE$AAV12@@Collections@NodeRT@@UEAA@XZ 000000018001b990 f i _nodert_generated.obj
 0001:0001aa10       ??_G?$IteratorWrapper@PE$AAU?$IKeyValuePair@PE$AAVString@Platform@@PE$AAVObject@2@@Collections@Foundation@Windows@@@Collections@NodeRT@@UEAAPEAXI@Z 000000018001ba10 f i _nodert_generated.obj
 0001:0001aa10       ??_E?$IteratorWrapper@PE$AAVPasswordCredential@Credentials@Security@Windows@@@Collections@NodeRT@@UEAAPEAXI@Z 000000018001ba10 f i * CIL library *:* CIL module *
 0001:0001aa10       ??_E?$IteratorWrapper@PE$AAU?$IKeyValuePair@PE$AAVString@Platform@@PE$AAVObject@2@@Collections@Foundation@Windows@@@Collections@NodeRT@@UEAAPEAXI@Z 000000018001ba10 f i * CIL library *:* CIL module *
 0001:0001aa10       ??_G?$IteratorWrapper@PE$AAVPasswordCredential@Credentials@Security@Windows@@@Collections@NodeRT@@UEAAPEAXI@Z 000000018001ba10 f i _nodert_generated.obj
 0001:0001aa90       ??_E?$MapViewWrapper@PE$AAVString@Platform@@PE$AAVObject@2@@Collections@NodeRT@@UEAAPEAXI@Z 000000018001ba90 f i * CIL library *:* CIL module *
 0001:0001aa90       ??_G?$MapViewWrapper@PE$AAVString@Platform@@PE$AAV12@@Collections@NodeRT@@UEAAPEAXI@Z 000000018001ba90 f i _nodert_generated.obj
 0001:0001aa90       ??_G?$MapViewWrapper@PE$AAVString@Platform@@PE$AAVObject@2@@Collections@NodeRT@@UEAAPEAXI@Z 000000018001ba90 f i _nodert_generated.obj
 0001:0001aa90       ??_E?$MapViewWrapper@PE$AAVString@Platform@@PE$AAV12@@Collections@NodeRT@@UEAAPEAXI@Z 000000018001ba90 f i * CIL library *:* CIL module *
 0001:0001aad0       ??1?$MapViewWrapper@PE$AAVString@Platform@@PE$AAVObject@2@@Collections@NodeRT@@UEAA@XZ 000000018001bad0 f i _nodert_generated.obj
 0001:0001aad0       ??1?$MapViewWrapper@PE$AAVString@Platform@@PE$AAV12@@Collections@NodeRT@@UEAA@XZ 000000018001bad0 f i _nodert_generated.obj
 0001:0001abc0       ??_G?$VectorViewWrapper@PE$AAVPasswordCredential@Credentials@Security@Windows@@@Collections@NodeRT@@UEAAPEAXI@Z 000000018001bbc0 f i _nodert_generated.obj
 0001:0001abc0       ??_E?$VectorViewWrapper@PE$AAVPasswordCredential@Credentials@Security@Windows@@@Collections@NodeRT@@UEAAPEAXI@Z 000000018001bbc0 f i * CIL library *:* CIL module *
 0001:0001ac00       ??1?$VectorViewWrapper@PE$AAVPasswordCredential@Credentials@Security@Windows@@@Collections@NodeRT@@UEAA@XZ 000000018001bc00 f i _nodert_generated.obj
 0001:0001acb0       ??_E?$_Task_impl@PE$AAUIRandomAccessStream@Streams@Storage@Windows@@@details@Concurrency@@UEAAPEAXI@Z 000000018001bcb0 f i * CIL library *:* CIL module *
 0001:0001acb0       ??_G?$_Task_impl@PE$AAUIRandomAccessStream@Streams@Storage@Windows@@@details@Concurrency@@UEAAPEAXI@Z 000000018001bcb0 f i _nodert_generated.obj
 0001:0001acf0       ??_E?$_Task_impl@PE$AAVKeyCredentialRetrievalResult@Credentials@Security@Windows@@@details@Concurrency@@UEAAPEAXI@Z 000000018001bcf0 f i * CIL library *:* CIL module *
 0001:0001acf0       ??_G?$_Task_impl@PE$AAVKeyCredentialRetrievalResult@Credentials@Security@Windows@@@details@Concurrency@@UEAAPEAXI@Z 000000018001bcf0 f i _nodert_generated.obj
 0001:0001ad30       ??_E?$_Task_impl@PE$AAVKeyCredentialAttestationResult@Credentials@Security@Windows@@@details@Concurrency@@UEAAPEAXI@Z 000000018001bd30 f i * CIL library *:* CIL module *
 0001:0001ad30       ??_G?$_Task_impl@PE$AAVKeyCredentialAttestationResult@Credentials@Security@Windows@@@details@Concurrency@@UEAAPEAXI@Z 000000018001bd30 f i _nodert_generated.obj
 0001:0001ad70       ??_E?$_Task_impl@PE$AAVKeyCredentialOperationResult@Credentials@Security@Windows@@@details@Concurrency@@UEAAPEAXI@Z 000000018001bd70 f i * CIL library *:* CIL module *
 0001:0001ad70       ??_G?$_Task_impl@PE$AAVKeyCredentialOperationResult@Credentials@Security@Windows@@@details@Concurrency@@UEAAPEAXI@Z 000000018001bd70 f i _nodert_generated.obj
 0001:0001adb0       ??_G?$_Task_impl@_N@details@Concurrency@@UEAAPEAXI@Z 000000018001bdb0 f i _nodert_generated.obj
 0001:0001adb0       ??_E?$_Task_impl@_N@details@Concurrency@@UEAAPEAXI@Z 000000018001bdb0 f i * CIL library *:* CIL module *
 0001:0001ae40       ?ValueGetter@?$KeyValuePairWrapper@PE$AAVString@Platform@@PE$AAVObject@2@@Collections@NodeRT@@CAXV?$Local@VString@v8@@@v8@@AEBV?$PropertyCallbackInfo@VValue@v8@@@Nan@@@Z 000000018001be40 f i _nodert_generated.obj
 0001:0001af40       ?KeyGetter@?$KeyValuePairWrapper@PE$AAVString@Platform@@PE$AAVObject@2@@Collections@NodeRT@@CAXV?$Local@VString@v8@@@v8@@AEBV?$PropertyCallbackInfo@VValue@v8@@@Nan@@@Z 000000018001bf40 f i _nodert_generated.obj
 0001:0001b000       ?New@?$KeyValuePairWrapper@PE$AAVString@Platform@@PE$AAV12@@Collections@NodeRT@@CAXAEBV?$FunctionCallbackInfo@VValue@v8@@@Nan@@@Z 000000018001c000 f i _nodert_generated.obj
 0001:0001b000       ?New@?$IteratorWrapper@PE$AAVPasswordCredential@Credentials@Security@Windows@@@Collections@NodeRT@@CAXAEBV?$FunctionCallbackInfo@VValue@v8@@@Nan@@@Z 000000018001c000 f i _nodert_generated.obj
 0001:0001b000       ?New@?$MapViewWrapper@PE$AAVString@Platform@@PE$AAV12@@Collections@NodeRT@@CAXAEBV?$FunctionCallbackInfo@VValue@v8@@@Nan@@@Z 000000018001c000 f i _nodert_generated.obj
 0001:0001b000       ?New@?$IteratorWrapper@PE$AAU?$IKeyValuePair@PE$AAVString@Platform@@PE$AAV12@@Collections@Foundation@Windows@@@Collections@NodeRT@@CAXAEBV?$FunctionCallbackInfo@VValue@v8@@@Nan@@@Z 000000018001c000 f i _nodert_generated.obj
 0001:0001b000       ?New@?$VectorViewWrapper@PE$AAVPasswordCredential@Credentials@Security@Windows@@@Collections@NodeRT@@CAXAEBV?$FunctionCallbackInfo@VValue@v8@@@Nan@@@Z 000000018001c000 f i _nodert_generated.obj
 0001:0001b000       ?New@?$MapViewWrapper@PE$AAVString@Platform@@PE$AAVObject@2@@Collections@NodeRT@@CAXAEBV?$FunctionCallbackInfo@VValue@v8@@@Nan@@@Z 000000018001c000 f i _nodert_generated.obj
 0001:0001b000       ?New@?$KeyValuePairWrapper@PE$AAVString@Platform@@PE$AAVObject@2@@Collections@NodeRT@@CAXAEBV?$FunctionCallbackInfo@VValue@v8@@@Nan@@@Z 000000018001c000 f i _nodert_generated.obj
 0001:0001b000       ?New@?$IteratorWrapper@PE$AAU?$IKeyValuePair@PE$AAVString@Platform@@PE$AAVObject@2@@Collections@Foundation@Windows@@@Collections@NodeRT@@CAXAEBV?$FunctionCallbackInfo@VValue@v8@@@Nan@@@Z 000000018001c000 f i _nodert_generated.obj
 0001:0001b0a0       ?HasCurrentGetter@?$IteratorWrapper@PE$AAU?$IKeyValuePair@PE$AAVString@Platform@@PE$AAVObject@2@@Collections@Foundation@Windows@@@Collections@NodeRT@@CAXV?$Local@VString@v8@@@v8@@AEBV?$PropertyCallbackInfo@VValue@v8@@@Nan@@@Z 000000018001c0a0 f i _nodert_generated.obj
 0001:0001b150       ?CurrentGetter@?$IteratorWrapper@PE$AAU?$IKeyValuePair@PE$AAVString@Platform@@PE$AAVObject@2@@Collections@Foundation@Windows@@@Collections@NodeRT@@CAXV?$Local@VString@v8@@@v8@@AEBV?$PropertyCallbackInfo@VValue@v8@@@Nan@@@Z 000000018001c150 f i _nodert_generated.obj
 0001:0001b290       ?GetMany@?$IteratorWrapper@PE$AAU?$IKeyValuePair@PE$AAVString@Platform@@PE$AAVObject@2@@Collections@Foundation@Windows@@@Collections@NodeRT@@CAXAEBV?$FunctionCallbackInfo@VValue@v8@@@Nan@@@Z 000000018001c290 f i _nodert_generated.obj
 0001:0001b290       ?GetMany@?$IteratorWrapper@PE$AAVPasswordCredential@Credentials@Security@Windows@@@Collections@NodeRT@@CAXAEBV?$FunctionCallbackInfo@VValue@v8@@@Nan@@@Z 000000018001c290 f i _nodert_generated.obj
 0001:0001b290       ?GetMany@?$IteratorWrapper@PE$AAU?$IKeyValuePair@PE$AAVString@Platform@@PE$AAV12@@Collections@Foundation@Windows@@@Collections@NodeRT@@CAXAEBV?$FunctionCallbackInfo@VValue@v8@@@Nan@@@Z 000000018001c290 f i _nodert_generated.obj
 0001:0001b290       ?GetMany@?$VectorViewWrapper@PE$AAVPasswordCredential@Credentials@Security@Windows@@@Collections@NodeRT@@CAXAEBV?$FunctionCallbackInfo@VValue@v8@@@Nan@@@Z 000000018001c290 f i _nodert_generated.obj
 0001:0001b330       ?MoveNext@?$IteratorWrapper@PE$AAU?$IKeyValuePair@PE$AAVString@Platform@@PE$AAVObject@2@@Collections@Foundation@Windows@@@Collections@NodeRT@@CAXAEBV?$FunctionCallbackInfo@VValue@v8@@@Nan@@@Z 000000018001c330 f i _nodert_generated.obj
 0001:0001b460       ?SizeGetter@?$MapViewWrapper@PE$AAVString@Platform@@PE$AAVObject@2@@Collections@NodeRT@@CAXV?$Local@VString@v8@@@v8@@AEBV?$PropertyCallbackInfo@VValue@v8@@@Nan@@@Z 000000018001c460 f i _nodert_generated.obj
 0001:0001b530       ?Split@?$MapViewWrapper@PE$AAVString@Platform@@PE$AAVObject@2@@Collections@NodeRT@@CAXAEBV?$FunctionCallbackInfo@VValue@v8@@@Nan@@@Z 000000018001c530 f i _nodert_generated.obj
 0001:0001b7d0       ?Lookup@?$MapViewWrapper@PE$AAVString@Platform@@PE$AAVObject@2@@Collections@NodeRT@@CAXAEBV?$FunctionCallbackInfo@VValue@v8@@@Nan@@@Z 000000018001c7d0 f i _nodert_generated.obj
 0001:0001ba10       ?First@?$MapViewWrapper@PE$AAVString@Platform@@PE$AAVObject@2@@Collections@NodeRT@@CAXAEBV?$FunctionCallbackInfo@VValue@v8@@@Nan@@@Z 000000018001ca10 f i _nodert_generated.obj
 0001:0001bd10       ?HasKey@?$MapViewWrapper@PE$AAVString@Platform@@PE$AAVObject@2@@Collections@NodeRT@@CAXAEBV?$FunctionCallbackInfo@VValue@v8@@@Nan@@@Z 000000018001cd10 f i _nodert_generated.obj
 0001:0001bf30       ?SizeGetter@?$VectorViewWrapper@PE$AAVPasswordCredential@Credentials@Security@Windows@@@Collections@NodeRT@@CAXV?$Local@VString@v8@@@v8@@AEBV?$PropertyCallbackInfo@VValue@v8@@@Nan@@@Z 000000018001cf30 f i _nodert_generated.obj
 0001:0001c000       ?IndexOf@?$VectorViewWrapper@PE$AAVPasswordCredential@Credentials@Security@Windows@@@Collections@NodeRT@@CAXAEBV?$FunctionCallbackInfo@VValue@v8@@@Nan@@@Z 000000018001d000 f i _nodert_generated.obj
 0001:0001c380       ?First@?$VectorViewWrapper@PE$AAVPasswordCredential@Credentials@Security@Windows@@@Collections@NodeRT@@CAXAEBV?$FunctionCallbackInfo@VValue@v8@@@Nan@@@Z 000000018001d380 f i _nodert_generated.obj
 0001:0001c520       ?GetAt@?$VectorViewWrapper@PE$AAVPasswordCredential@Credentials@Security@Windows@@@Collections@NodeRT@@CAXAEBV?$FunctionCallbackInfo@VValue@v8@@@Nan@@@Z 000000018001d520 f i _nodert_generated.obj
 0001:0001c730       ?Get@?$VectorViewWrapper@PE$AAVPasswordCredential@Credentials@Security@Windows@@@Collections@NodeRT@@CAXIAEBV?$PropertyCallbackInfo@VValue@v8@@@Nan@@@Z 000000018001d730 f i _nodert_generated.obj
 0001:0001c860       ?SizeGetter@?$MapViewWrapper@PE$AAVString@Platform@@PE$AAV12@@Collections@NodeRT@@CAXV?$Local@VString@v8@@@v8@@AEBV?$PropertyCallbackInfo@VValue@v8@@@Nan@@@Z 000000018001d860 f i _nodert_generated.obj
 0001:0001c930       ?Split@?$MapViewWrapper@PE$AAVString@Platform@@PE$AAV12@@Collections@NodeRT@@CAXAEBV?$FunctionCallbackInfo@VValue@v8@@@Nan@@@Z 000000018001d930 f i _nodert_generated.obj
 0001:0001cbd0       ?Lookup@?$MapViewWrapper@PE$AAVString@Platform@@PE$AAV12@@Collections@NodeRT@@CAXAEBV?$FunctionCallbackInfo@VValue@v8@@@Nan@@@Z 000000018001dbd0 f i _nodert_generated.obj
 0001:0001ce20       ?First@?$MapViewWrapper@PE$AAVString@Platform@@PE$AAV12@@Collections@NodeRT@@CAXAEBV?$FunctionCallbackInfo@VValue@v8@@@Nan@@@Z 000000018001de20 f i _nodert_generated.obj
 0001:0001d0e0       ?HasKey@?$MapViewWrapper@PE$AAVString@Platform@@PE$AAV12@@Collections@NodeRT@@CAXAEBV?$FunctionCallbackInfo@VValue@v8@@@Nan@@@Z 000000018001e0e0 f i _nodert_generated.obj
 0001:0001d300       ?SetObject@?$Agile@PE$AAUIRandomAccessStream@Streams@Storage@Windows@@$00@Platform@@AEAAXPE$AAUIRandomAccessStream@Streams@Storage@Windows@@@Z 000000018001e300 f i _nodert_generated.obj
 0001:0001d300       ?SetObject@?$Agile@PE$AAUIAsyncAction@Foundation@Windows@@$00@Platform@@AEAAXPE$AAUIAsyncAction@Foundation@Windows@@@Z 000000018001e300 f i _nodert_generated.obj
 0001:0001d460       ?CreateKeyValuePairWrapper@?$KeyValuePairWrapper@PE$AAVString@Platform@@PE$AAV12@@Collections@NodeRT@@SA?AV?$Local@VValue@v8@@@v8@@PE$AAU?$IKeyValuePair@PE$AAVString@Platform@@PE$AAV12@@2Foundation@Windows@@AEBV?$function@$$A6A?AV?$Local@VValue@v8@@@v8@@PE$AAVString@Platform@@@Z@std@@1@Z 000000018001e460 f i _nodert_generated.obj
 0001:0001d5b0       ??1?$function@$$A6A?AV?$Local@VValue@v8@@@v8@@PE$AAU?$IKeyValuePair@PE$AAVString@Platform@@PE$AAV12@@Collections@Foundation@Windows@@@Z@std@@QEAA@XZ 000000018001e5b0 f i _nodert_generated.obj
 0001:0001d5c0       ?CreateIteratorWrapper@?$IteratorWrapper@PE$AAU?$IKeyValuePair@PE$AAVString@Platform@@PE$AAV12@@Collections@Foundation@Windows@@@Collections@NodeRT@@SA?AV?$Local@VValue@v8@@@v8@@PE$AAU?$IIterator@PE$AAU?$IKeyValuePair@PE$AAVString@Platform@@PE$AAV12@@Collections@Foundation@Windows@@@2Foundation@Windows@@AEBV?$function@$$A6A?AV?$Local@VValue@v8@@@v8@@PE$AAU?$IKeyValuePair@PE$AAVString@Platform@@PE$AAV12@@Collections@Foundation@Windows@@@Z@std@@@Z 000000018001e5c0 f i _nodert_generated.obj
 0001:0001d700       ?CreateIteratorWrapper@?$IteratorWrapper@PE$AAVPasswordCredential@Credentials@Security@Windows@@@Collections@NodeRT@@SA?AV?$Local@VValue@v8@@@v8@@PE$AAU?$IIterator@PE$AAVPasswordCredential@Credentials@Security@Windows@@@2Foundation@Windows@@AEBV?$function@$$A6A?AV?$Local@VValue@v8@@@v8@@PE$AAVPasswordCredential@Credentials@Security@Windows@@@Z@std@@@Z 000000018001e700 f i _nodert_generated.obj
 0001:0001d840       ?Get@?$Agile@PE$AAUIRandomAccessStream@Streams@Storage@Windows@@$00@Platform@@QEBAPE$AAUIRandomAccessStream@Streams@Storage@Windows@@XZ 000000018001e840 f i _nodert_generated.obj
 0001:0001d9a0       ??R?$_Func_class@V?$Local@VValue@v8@@@v8@@PE$AAVPasswordCredential@Credentials@Security@Windows@@@std@@QEBA?AV?$Local@VValue@v8@@@v8@@PE$AAVPasswordCredential@Credentials@Security@Windows@@@Z 000000018001e9a0 f i _nodert_generated.obj
 0001:0001d9a0       ??R?$_Func_class@V?$Local@VValue@v8@@@v8@@PE$AAU?$IKeyValuePair@PE$AAVString@Platform@@PE$AAVObject@2@@Collections@Foundation@Windows@@@std@@QEBA?AV?$Local@VValue@v8@@@v8@@PE$AAU?$IKeyValuePair@PE$AAVString@Platform@@PE$AAVObject@2@@Collections@Foundation@Windows@@@Z 000000018001e9a0 f i _nodert_generated.obj
 0001:0001d9a0       ??R?$_Func_class@V?$Local@VValue@v8@@@v8@@PE$AAVObject@Platform@@@std@@QEBA?AV?$Local@VValue@v8@@@v8@@PE$AAVObject@Platform@@@Z 000000018001e9a0 f i _nodert_generated.obj
 0001:0001da20       ??R?$_Func_class@PE$AAVString@Platform@@V?$Local@VValue@v8@@@v8@@@std@@QEBAPE$AAVString@Platform@@V?$Local@VValue@v8@@@v8@@@Z 000000018001ea20 f i _nodert_generated.obj
 0001:0001da70       ??R?$_Func_class@V?$Local@VValue@v8@@@v8@@PE$AAVString@Platform@@@std@@QEBA?AV?$Local@VValue@v8@@@v8@@PE$AAVString@Platform@@@Z 000000018001ea70 f i _nodert_generated.obj
 0001:0001db00       ??0?$KeyValuePairWrapper@PE$AAVString@Platform@@PE$AAV12@@Collections@NodeRT@@AEAA@PE$AAU?$IKeyValuePair@PE$AAVString@Platform@@PE$AAV12@@1Foundation@Windows@@AEBV?$function@$$A6A?AV?$Local@VValue@v8@@@v8@@PE$AAVString@Platform@@@Z@std@@1@Z 000000018001eb00 f i _nodert_generated.obj
 0001:0001dbb0       ?Init@?$KeyValuePairWrapper@PE$AAVString@Platform@@PE$AAV12@@Collections@NodeRT@@SAXXZ 000000018001ebb0 f i _nodert_generated.obj
 0001:0001dd90       ??1?$_Func_class@V?$Local@VValue@v8@@@v8@@PE$AAU?$IKeyValuePair@PE$AAVString@Platform@@PE$AAV12@@Collections@Foundation@Windows@@@std@@QEAA@XZ 000000018001ed90 f i _nodert_generated.obj
 0001:0001de00       ??0?$IteratorWrapper@PE$AAU?$IKeyValuePair@PE$AAVString@Platform@@PE$AAV12@@Collections@Foundation@Windows@@@Collections@NodeRT@@AEAA@PE$AAU?$IIterator@PE$AAU?$IKeyValuePair@PE$AAVString@Platform@@PE$AAV12@@Collections@Foundation@Windows@@@1Foundation@Windows@@AEBV?$function@$$A6A?AV?$Local@VValue@v8@@@v8@@PE$AAU?$IKeyValuePair@PE$AAVString@Platform@@PE$AAV12@@Collections@Foundation@Windows@@@Z@std@@@Z 000000018001ee00 f i _nodert_generated.obj
 0001:0001de90       ?Init@?$IteratorWrapper@PE$AAU?$IKeyValuePair@PE$AAVString@Platform@@PE$AAV12@@Collections@Foundation@Windows@@@Collections@NodeRT@@SAXXZ 000000018001ee90 f i _nodert_generated.obj
 0001:0001e0a0       ??0?$IteratorWrapper@PE$AAVPasswordCredential@Credentials@Security@Windows@@@Collections@NodeRT@@AEAA@PE$AAU?$IIterator@PE$AAVPasswordCredential@Credentials@Security@Windows@@@1Foundation@Windows@@AEBV?$function@$$A6A?AV?$Local@VValue@v8@@@v8@@PE$AAVPasswordCredential@Credentials@Security@Windows@@@Z@std@@@Z 000000018001f0a0 f i _nodert_generated.obj
 0001:0001e130       ?Init@?$IteratorWrapper@PE$AAVPasswordCredential@Credentials@Security@Windows@@@Collections@NodeRT@@SAXXZ 000000018001f130 f i _nodert_generated.obj
 0001:0001e340       ??_G?$IteratorWrapper@PE$AAU?$IKeyValuePair@PE$AAVString@Platform@@PE$AAV12@@Collections@Foundation@Windows@@@Collections@NodeRT@@UEAAPEAXI@Z 000000018001f340 f i _nodert_generated.obj
 0001:0001e340       ??_E?$IteratorWrapper@PE$AAU?$IKeyValuePair@PE$AAVString@Platform@@PE$AAV12@@Collections@Foundation@Windows@@@Collections@NodeRT@@UEAAPEAXI@Z 000000018001f340 f i * CIL library *:* CIL module *
 0001:0001e3a0       ?ValueGetter@?$KeyValuePairWrapper@PE$AAVString@Platform@@PE$AAV12@@Collections@NodeRT@@CAXV?$Local@VString@v8@@@v8@@AEBV?$PropertyCallbackInfo@VValue@v8@@@Nan@@@Z 000000018001f3a0 f i _nodert_generated.obj
 0001:0001e460       ?KeyGetter@?$KeyValuePairWrapper@PE$AAVString@Platform@@PE$AAV12@@Collections@NodeRT@@CAXV?$Local@VString@v8@@@v8@@AEBV?$PropertyCallbackInfo@VValue@v8@@@Nan@@@Z 000000018001f460 f i _nodert_generated.obj
 0001:0001e520       ?HasCurrentGetter@?$IteratorWrapper@PE$AAU?$IKeyValuePair@PE$AAVString@Platform@@PE$AAV12@@Collections@Foundation@Windows@@@Collections@NodeRT@@CAXV?$Local@VString@v8@@@v8@@AEBV?$PropertyCallbackInfo@VValue@v8@@@Nan@@@Z 000000018001f520 f i _nodert_generated.obj
 0001:0001e5d0       ?CurrentGetter@?$IteratorWrapper@PE$AAU?$IKeyValuePair@PE$AAVString@Platform@@PE$AAV12@@Collections@Foundation@Windows@@@Collections@NodeRT@@CAXV?$Local@VString@v8@@@v8@@AEBV?$PropertyCallbackInfo@VValue@v8@@@Nan@@@Z 000000018001f5d0 f i _nodert_generated.obj
 0001:0001e710       ?MoveNext@?$IteratorWrapper@PE$AAU?$IKeyValuePair@PE$AAVString@Platform@@PE$AAV12@@Collections@Foundation@Windows@@@Collections@NodeRT@@CAXAEBV?$FunctionCallbackInfo@VValue@v8@@@Nan@@@Z 000000018001f710 f i _nodert_generated.obj
 0001:0001e840       ?HasCurrentGetter@?$IteratorWrapper@PE$AAVPasswordCredential@Credentials@Security@Windows@@@Collections@NodeRT@@CAXV?$Local@VString@v8@@@v8@@AEBV?$PropertyCallbackInfo@VValue@v8@@@Nan@@@Z 000000018001f840 f i _nodert_generated.obj
 0001:0001e8f0       ?CurrentGetter@?$IteratorWrapper@PE$AAVPasswordCredential@Credentials@Security@Windows@@@Collections@NodeRT@@CAXV?$Local@VString@v8@@@v8@@AEBV?$PropertyCallbackInfo@VValue@v8@@@Nan@@@Z 000000018001f8f0 f i _nodert_generated.obj
 0001:0001ea30       ?MoveNext@?$IteratorWrapper@PE$AAVPasswordCredential@Credentials@Security@Windows@@@Collections@NodeRT@@CAXAEBV?$FunctionCallbackInfo@VValue@v8@@@Nan@@@Z 000000018001fa30 f i _nodert_generated.obj
 0001:0001eb60       ??R?$_Func_class@V?$Local@VValue@v8@@@v8@@PE$AAU?$IKeyValuePair@PE$AAVString@Platform@@PE$AAV12@@Collections@Foundation@Windows@@@std@@QEBA?AV?$Local@VValue@v8@@@v8@@PE$AAU?$IKeyValuePair@PE$AAVString@Platform@@PE$AAV12@@Collections@Foundation@Windows@@@Z 000000018001fb60 f i _nodert_generated.obj
 0001:0001ec00       ?get@ErrorCode@IAsyncInfo@Foundation@Windows@@UE$AAA?AVHResult@34@XZ 000000018001fc00 f i _nodert_generated.obj
 0001:0001ec30       ?Cancel@IAsyncInfo@Foundation@Windows@@UE$AAAXXZ 000000018001fc30 f i _nodert_generated.obj
 0001:0001ec50       ?get@Id@IWebAccountProvider@Credentials@Security@Windows@@UE$AAAPE$AAVString@Platform@@XZ 000000018001fc50 f i _nodert_generated.obj
 0001:0001ec50       ?get@DisplayPurpose@IWebAccountProvider2@Credentials@Security@Windows@@UE$AAAPE$AAVString@Platform@@XZ 000000018001fc50 f i _nodert_generated.obj
 0001:0001ec50       ?get@Resource@IPasswordCredential@Credentials@Security@Windows@@UE$AAAPE$AAVString@Platform@@XZ 000000018001fc50 f i _nodert_generated.obj
 0001:0001ec50       ?get@Id@IWebAccount2@Credentials@Security@Windows@@UE$AAAPE$AAVString@Platform@@XZ 000000018001fc50 f i _nodert_generated.obj
 0001:0001ec50       ?get@Key@?$IKeyValuePair@PE$AAVString@Platform@@PE$AAVObject@2@@Collections@Foundation@Windows@@UE$AAAPE$AAVString@Platform@@XZ 000000018001fc50 f i _nodert_generated.obj
 0001:0001ec50       ?get@Key@?$IKeyValuePair@PE$AAVString@Platform@@PE$AAV12@@Collections@Foundation@Windows@@UE$AAAPE$AAVString@Platform@@XZ 000000018001fc50 f i _nodert_generated.obj
 0001:0001ec50       ?get@Name@IKeyCredential@Credentials@Security@Windows@@UE$AAAPE$AAVString@Platform@@XZ 000000018001fc50 f i _nodert_generated.obj
 0001:0001ecc0       ?RetrievePublicKey@IKeyCredential@Credentials@Security@Windows@@UE$AAAPE$AAUIBuffer@Streams@Storage@4@XZ 000000018001fcc0 f i _nodert_generated.obj
 0001:0001ed20       ?GetPictureAsync@IWebAccount2@Credentials@Security@Windows@@UE$AAAPE$AAU?$IAsyncOperation@PE$AAUIRandomAccessStream@Streams@Storage@Windows@@@Foundation@4@W4WebAccountPictureSize@234@@Z 000000018001fd20 f i _nodert_generated.obj
 0001:0001ed20       ?RetrievePublicKey@IKeyCredential@Credentials@Security@Windows@@UE$AAAPE$AAUIBuffer@Streams@Storage@4@W4CryptographicPublicKeyBlobType@Core@Cryptography@34@@Z 000000018001fd20 f i _nodert_generated.obj
 0001:0001ed80       ?FindAllByResource@IPasswordVault@Credentials@Security@Windows@@UE$AAAPE$AAU?$IVectorView@PE$AAVPasswordCredential@Credentials@Security@Windows@@@Collections@Foundation@4@PE$AAVString@Platform@@@Z 000000018001fd80 f i _nodert_generated.obj
 0001:0001ed80       ?RequestSignAsync@IKeyCredential@Credentials@Security@Windows@@UE$AAAPE$AAU?$IAsyncOperation@PE$AAVKeyCredentialOperationResult@Credentials@Security@Windows@@@Foundation@4@PE$AAUIBuffer@Streams@Storage@4@@Z 000000018001fd80 f i _nodert_generated.obj
 0001:0001ede0       ?GetAttestationAsync@IKeyCredential@Credentials@Security@Windows@@UE$AAAPE$AAU?$IAsyncOperation@PE$AAVKeyCredentialAttestationResult@Credentials@Security@Windows@@@Foundation@4@XZ 000000018001fde0 f i _nodert_generated.obj
 0001:0001ee40       ?get@Value@?$IKeyValuePair@PE$AAVString@Platform@@PE$AAV12@@Collections@Foundation@Windows@@UE$AAAPE$AAVString@Platform@@XZ 000000018001fe40 f i _nodert_generated.obj
 0001:0001ee40       ?get@UserName@IWebAccount@Credentials@Security@Windows@@UE$AAAPE$AAVString@Platform@@XZ 000000018001fe40 f i _nodert_generated.obj
 0001:0001ee40       ?get@Authority@IWebAccountProvider2@Credentials@Security@Windows@@UE$AAAPE$AAVString@Platform@@XZ 000000018001fe40 f i _nodert_generated.obj
 0001:0001ee40       ?get@DisplayName@IWebAccountProvider@Credentials@Security@Windows@@UE$AAAPE$AAVString@Platform@@XZ 000000018001fe40 f i _nodert_generated.obj
 0001:0001eeb0       ?SignOutAsync@IWebAccount2@Credentials@Security@Windows@@UE$AAAPE$AAUIAsyncAction@Foundation@4@XZ 000000018001feb0 f i _nodert_generated.obj
 0001:0001eeb0       ?GetView@?$IMap@PE$AAVString@Platform@@PE$AAVObject@2@@Collections@Foundation@Windows@@UE$AAAPE$AAU?$IMapView@PE$AAVString@Platform@@PE$AAVObject@2@@234@XZ 000000018001feb0 f i _nodert_generated.obj
 0001:0001ef10       ?FindAllByUserName@IPasswordVault@Credentials@Security@Windows@@UE$AAAPE$AAU?$IVectorView@PE$AAVPasswordCredential@Credentials@Security@Windows@@@Collections@Foundation@4@PE$AAVString@Platform@@@Z 000000018001ff10 f i _nodert_generated.obj
 0001:0001ef10       ?SignOutAsync@IWebAccount2@Credentials@Security@Windows@@UE$AAAPE$AAUIAsyncAction@Foundation@4@PE$AAVString@Platform@@@Z 000000018001ff10 f i _nodert_generated.obj
 0001:0001ef70       ?get@Password@IPasswordCredential@Credentials@Security@Windows@@UE$AAAPE$AAVString@Platform@@XZ 000000018001ff70 f i _nodert_generated.obj
 0001:0001efe0       ?get@UserName@IPasswordCredential@Credentials@Security@Windows@@UE$AAAPE$AAVString@Platform@@XZ 000000018001ffe0 f i _nodert_generated.obj
 0001:0001f050       ?Retrieve@IPasswordVault@Credentials@Security@Windows@@UE$AAAPE$AAVPasswordCredential@234@PE$AAVString@Platform@@0@Z 0000000180020050 f i _nodert_generated.obj
 0001:0001f0b0       ?RetrieveAll@IPasswordVault@Credentials@Security@Windows@@UE$AAAPE$AAU?$IVectorView@PE$AAVPasswordCredential@Credentials@Security@Windows@@@Collections@Foundation@4@XZ 00000001800200b0 f i _nodert_generated.obj
 0001:0001f110       ?First@?$IIterable@PE$AAVPasswordCredential@Credentials@Security@Windows@@@Collections@Foundation@Windows@@UE$AAAPE$AAU?$IIterator@PE$AAVPasswordCredential@Credentials@Security@Windows@@@234@XZ 0000000180020110 f i _nodert_generated.obj
 0001:0001f110       ?First@?$IIterable@PE$AAU?$IKeyValuePair@PE$AAVString@Platform@@PE$AAV12@@Collections@Foundation@Windows@@@Collections@Foundation@Windows@@UE$AAAPE$AAU?$IIterator@PE$AAU?$IKeyValuePair@PE$AAVString@Platform@@PE$AAV12@@Collections@Foundation@Windows@@@234@XZ 0000000180020110 f i _nodert_generated.obj
 0001:0001f110       ?First@?$IIterable@PE$AAU?$IKeyValuePair@PE$AAVString@Platform@@PE$AAVObject@2@@Collections@Foundation@Windows@@@Collections@Foundation@Windows@@UE$AAAPE$AAU?$IIterator@PE$AAU?$IKeyValuePair@PE$AAVString@Platform@@PE$AAVObject@2@@Collections@Foundation@Windows@@@234@XZ 0000000180020110 f i _nodert_generated.obj
 0001:0001f170       ?Lookup@?$IMapView@PE$AAVString@Platform@@PE$AAVObject@2@@Collections@Foundation@Windows@@UE$AAAPE$AAVObject@Platform@@PE$AAVString@6@@Z 0000000180020170 f i _nodert_generated.obj
 0001:0001f170       ?GetAt@?$IVectorView@PE$AAVPasswordCredential@Credentials@Security@Windows@@@Collections@Foundation@Windows@@UE$AAAPE$AAVPasswordCredential@Credentials@Security@4@I@Z 0000000180020170 f i _nodert_generated.obj
 0001:0001f170       ?Lookup@?$IMap@PE$AAVString@Platform@@PE$AAVObject@2@@Collections@Foundation@Windows@@UE$AAAPE$AAVObject@Platform@@PE$AAVString@6@@Z 0000000180020170 f i _nodert_generated.obj
 0001:0001f1d0       ?Lookup@?$IMapView@PE$AAVString@Platform@@PE$AAV12@@Collections@Foundation@Windows@@UE$AAAPE$AAVString@Platform@@PE$AAV56@@Z 00000001800201d0 f i _nodert_generated.obj
 0001:0001f240       ??$Reset@VObject@v8@@@?$Persistent@VObject@v8@@V?$NonCopyablePersistentTraits@VObject@v8@@@2@@Nan@@QEAAXAEBV?$Local@VObject@v8@@@v8@@@Z 0000000180020240 f i _nodert_generated.obj
 0001:0001f2a0       ??$make_shared@U_ExceptionHolder@details@Concurrency@@AEBVexception_ptr@std@@V_TaskCreationCallstack@23@@std@@YA?AV?$shared_ptr@U_ExceptionHolder@details@Concurrency@@@0@AEBVexception_ptr@0@$$QEAV_TaskCreationCallstack@details@Concurrency@@@Z 00000001800202a0 f i _nodert_generated.obj
 0001:0001f360       ??$?0V<lambda_f25c37099038263181b5186a3fa41b37>@@XX@?$function@$$A6AXXZ@std@@QEAA@V<lambda_f25c37099038263181b5186a3fa41b37>@@@Z 0000000180020360 f i _nodert_generated.obj
 0001:0001f400       ??$?0PE$AAUIAsyncAction@Foundation@Windows@@@?$task@X@Concurrency@@QEAA@PE$AAUIAsyncAction@Foundation@Windows@@AEBVtask_options@1@@Z 0000000180020400 f i _nodert_generated.obj
 0001:0001f620       ??$?4AEAV?$function@$$A6AXXZ@std@@XX@?$function@$$A6AXXZ@std@@QEAAAEAV01@AEAV01@@Z 0000000180020620 f i _nodert_generated.obj
 0001:0001f6b0       ??$SetMethod@VObject@v8@@VLocal@2@@Nan@@YAXV?$Local@VObject@v8@@@v8@@PEBDP6AXAEBV?$FunctionCallbackInfo@VValue@v8@@@0@@Z@Z 00000001800206b0 f i _nodert_generated.obj
 0001:0001f770       ??$IsWinRtWrapperOf@PE$AAVKeyCredentialRetrievalResult@Credentials@Security@Windows@@@Utils@NodeRT@@YA_NV?$Local@VValue@v8@@@v8@@@Z 0000000180020770 f i _nodert_generated.obj
 0001:0001f890       ??$Unwrap@VWebAccountProvider@Credentials@Security@Windows@NodeRT@@@ObjectWrap@Nan@@SAPEAVWebAccountProvider@Credentials@Security@Windows@NodeRT@@V?$Local@VObject@v8@@@v8@@@Z 0000000180020890 f i _nodert_generated.obj
 0001:0001f890       ??$Unwrap@VKeyCredentialOperationResult@Credentials@Security@Windows@NodeRT@@@ObjectWrap@Nan@@SAPEAVKeyCredentialOperationResult@Credentials@Security@Windows@NodeRT@@V?$Local@VObject@v8@@@v8@@@Z 0000000180020890 f i _nodert_generated.obj
 0001:0001f890       ??$Unwrap@VKeyCredentialAttestationResult@Credentials@Security@Windows@NodeRT@@@ObjectWrap@Nan@@SAPEAVKeyCredentialAttestationResult@Credentials@Security@Windows@NodeRT@@V?$Local@VObject@v8@@@v8@@@Z 0000000180020890 f i _nodert_generated.obj
 0001:0001f890       ??$Unwrap@V?$IteratorWrapper@PE$AAU?$IKeyValuePair@PE$AAVString@Platform@@PE$AAVObject@2@@Collections@Foundation@Windows@@@Collections@NodeRT@@@ObjectWrap@Nan@@SAPEAV?$IteratorWrapper@PE$AAU?$IKeyValuePair@PE$AAVString@Platform@@PE$AAVObject@2@@Collections@Foundation@Windows@@@Collections@NodeRT@@V?$Local@VObject@v8@@@v8@@@Z 0000000180020890 f i _nodert_generated.obj
 0001:0001f890       ??$Unwrap@V?$MapViewWrapper@PE$AAVString@Platform@@PE$AAVObject@2@@Collections@NodeRT@@@ObjectWrap@Nan@@SAPEAV?$MapViewWrapper@PE$AAVString@Platform@@PE$AAVObject@2@@Collections@NodeRT@@V?$Local@VObject@v8@@@v8@@@Z 0000000180020890 f i _nodert_generated.obj
 0001:0001f890       ??$Unwrap@V?$IteratorWrapper@PE$AAU?$IKeyValuePair@PE$AAVString@Platform@@PE$AAV12@@Collections@Foundation@Windows@@@Collections@NodeRT@@@ObjectWrap@Nan@@SAPEAV?$IteratorWrapper@PE$AAU?$IKeyValuePair@PE$AAVString@Platform@@PE$AAV12@@Collections@Foundation@Windows@@@Collections@NodeRT@@V?$Local@VObject@v8@@@v8@@@Z 0000000180020890 f i _nodert_generated.obj
 0001:0001f890       ??$Unwrap@V?$KeyValuePairWrapper@PE$AAVString@Platform@@PE$AAVObject@2@@Collections@NodeRT@@@ObjectWrap@Nan@@SAPEAV?$KeyValuePairWrapper@PE$AAVString@Platform@@PE$AAVObject@2@@Collections@NodeRT@@V?$Local@VObject@v8@@@v8@@@Z 0000000180020890 f i _nodert_generated.obj
 0001:0001f890       ??$Unwrap@VOpaqueWrapper@NodeRT@@@ObjectWrap@Nan@@SAPEAVOpaqueWrapper@NodeRT@@V?$Local@VObject@v8@@@v8@@@Z 0000000180020890 f i _nodert_generated.obj
 0001:0001f890       ??$Unwrap@V?$MapViewWrapper@PE$AAVString@Platform@@PE$AAV12@@Collections@NodeRT@@@ObjectWrap@Nan@@SAPEAV?$MapViewWrapper@PE$AAVString@Platform@@PE$AAV12@@Collections@NodeRT@@V?$Local@VObject@v8@@@v8@@@Z 0000000180020890 f i _nodert_generated.obj
 0001:0001f890       ??$Unwrap@VPasswordCredentialPropertyStore@Credentials@Security@Windows@NodeRT@@@ObjectWrap@Nan@@SAPEAVPasswordCredentialPropertyStore@Credentials@Security@Windows@NodeRT@@V?$Local@VObject@v8@@@v8@@@Z 0000000180020890 f i _nodert_generated.obj
 0001:0001f890       ??$Unwrap@VWebAccount@Credentials@Security@Windows@NodeRT@@@ObjectWrap@Nan@@SAPEAVWebAccount@Credentials@Security@Windows@NodeRT@@V?$Local@VObject@v8@@@v8@@@Z 0000000180020890 f i _nodert_generated.obj
 0001:0001f890       ??$Unwrap@V?$KeyValuePairWrapper@PE$AAVString@Platform@@PE$AAV12@@Collections@NodeRT@@@ObjectWrap@Nan@@SAPEAV?$KeyValuePairWrapper@PE$AAVString@Platform@@PE$AAV12@@Collections@NodeRT@@V?$Local@VObject@v8@@@v8@@@Z 0000000180020890 f i _nodert_generated.obj
 0001:0001f890       ??$Unwrap@VIWebAccount@Credentials@Security@Windows@NodeRT@@@ObjectWrap@Nan@@SAPEAVIWebAccount@Credentials@Security@Windows@NodeRT@@V?$Local@VObject@v8@@@v8@@@Z 0000000180020890 f i _nodert_generated.obj
 0001:0001f890       ??$Unwrap@V?$IteratorWrapper@PE$AAVPasswordCredential@Credentials@Security@Windows@@@Collections@NodeRT@@@ObjectWrap@Nan@@SAPEAV?$IteratorWrapper@PE$AAVPasswordCredential@Credentials@Security@Windows@@@Collections@NodeRT@@V?$Local@VObject@v8@@@v8@@@Z 0000000180020890 f i _nodert_generated.obj
 0001:0001f890       ??$Unwrap@VPasswordVault@Credentials@Security@Windows@NodeRT@@@ObjectWrap@Nan@@SAPEAVPasswordVault@Credentials@Security@Windows@NodeRT@@V?$Local@VObject@v8@@@v8@@@Z 0000000180020890 f i _nodert_generated.obj
 0001:0001f890       ??$Unwrap@VWrapperBase@NodeRT@@@ObjectWrap@Nan@@SAPEAVWrapperBase@NodeRT@@V?$Local@VObject@v8@@@v8@@@Z 0000000180020890 f i _nodert_generated.obj
 0001:0001f890       ??$Unwrap@VPasswordCredential@Credentials@Security@Windows@NodeRT@@@ObjectWrap@Nan@@SAPEAVPasswordCredential@Credentials@Security@Windows@NodeRT@@V?$Local@VObject@v8@@@v8@@@Z 0000000180020890 f i _nodert_generated.obj
 0001:0001f890       ??$Unwrap@VKeyCredentialRetrievalResult@Credentials@Security@Windows@NodeRT@@@ObjectWrap@Nan@@SAPEAVKeyCredentialRetrievalResult@Credentials@Security@Windows@NodeRT@@V?$Local@VObject@v8@@@v8@@@Z 0000000180020890 f i _nodert_generated.obj
 0001:0001f890       ??$Unwrap@VKeyCredential@Credentials@Security@Windows@NodeRT@@@ObjectWrap@Nan@@SAPEAVKeyCredential@Credentials@Security@Windows@NodeRT@@V?$Local@VObject@v8@@@v8@@@Z 0000000180020890 f i _nodert_generated.obj
 0001:0001f890       ??$Unwrap@V?$VectorViewWrapper@PE$AAVPasswordCredential@Credentials@Security@Windows@@@Collections@NodeRT@@@ObjectWrap@Nan@@SAPEAV?$VectorViewWrapper@PE$AAVPasswordCredential@Credentials@Security@Windows@@@Collections@NodeRT@@V?$Local@VObject@v8@@@v8@@@Z 0000000180020890 f i _nodert_generated.obj
 0001:0001f910       ??$IsWinRtWrapperOf@PE$AAVKeyCredentialOperationResult@Credentials@Security@Windows@@@Utils@NodeRT@@YA_NV?$Local@VValue@v8@@@v8@@@Z 0000000180020910 f i _nodert_generated.obj
 0001:0001fa30       ??$IsWinRtWrapperOf@PE$AAVKeyCredentialAttestationResult@Credentials@Security@Windows@@@Utils@NodeRT@@YA_NV?$Local@VValue@v8@@@v8@@@Z 0000000180020a30 f i _nodert_generated.obj
 0001:0001fb50       ??$IsWinRtWrapperOf@PE$AAVKeyCredential@Credentials@Security@Windows@@@Utils@NodeRT@@YA_NV?$Local@VValue@v8@@@v8@@@Z 0000000180020b50 f i _nodert_generated.obj
 0001:0001fc70       ??$IsWinRtWrapperOf@PE$AAUIBuffer@Streams@Storage@Windows@@@Utils@NodeRT@@YA_NV?$Local@VValue@v8@@@v8@@@Z 0000000180020c70 f i _nodert_generated.obj
 0001:0001fd90       ??$create_task@PE$AAU?$IAsyncOperation@PE$AAVKeyCredentialOperationResult@Credentials@Security@Windows@@@Foundation@Windows@@@Concurrency@@YA?AV?$task@PE$AAVKeyCredentialOperationResult@Credentials@Security@Windows@@@0@PE$AAU?$IAsyncOperation@PE$AAVKeyCredentialOperationResult@Credentials@Security@Windows@@@Foundation@Windows@@Vtask_options@0@@Z 0000000180020d90 f i _nodert_generated.obj
 0001:0001fe30       ??$then@V<lambda_0eab81cc34bebf16b98183cb52515b9a>@@@?$task@PE$AAVKeyCredentialOperationResult@Credentials@Security@Windows@@@Concurrency@@QEBA?AV?$task@X@1@AEBV<lambda_0eab81cc34bebf16b98183cb52515b9a>@@@Z 0000000180020e30 f i _nodert_generated.obj
 0001:000200b0       ??$create_task@PE$AAU?$IAsyncOperation@PE$AAVKeyCredentialAttestationResult@Credentials@Security@Windows@@@Foundation@Windows@@@Concurrency@@YA?AV?$task@PE$AAVKeyCredentialAttestationResult@Credentials@Security@Windows@@@0@PE$AAU?$IAsyncOperation@PE$AAVKeyCredentialAttestationResult@Credentials@Security@Windows@@@Foundation@Windows@@Vtask_options@0@@Z 00000001800210b0 f i _nodert_generated.obj
 0001:00020150       ??$then@V<lambda_54a3ae4835dd5cf44f02a0eeadada84b>@@@?$task@PE$AAVKeyCredentialAttestationResult@Credentials@Security@Windows@@@Concurrency@@QEBA?AV?$task@X@1@AEBV<lambda_54a3ae4835dd5cf44f02a0eeadada84b>@@@Z 0000000180021150 f i _nodert_generated.obj
 0001:000203d0       ??$IsWinRtWrapperOf@PE$AAVKeyCredentialManager@Credentials@Security@Windows@@@Utils@NodeRT@@YA_NV?$Local@VValue@v8@@@v8@@@Z 00000001800213d0 f i _nodert_generated.obj
 0001:000204f0       ??$create_task@PE$AAU?$IAsyncOperation@_N@Foundation@Windows@@@Concurrency@@YA?AV?$task@_N@0@PE$AAU?$IAsyncOperation@_N@Foundation@Windows@@Vtask_options@0@@Z 00000001800214f0 f i _nodert_generated.obj
 0001:00020590       ??$then@V<lambda_2b88f7f64ad9eedeacf2546afbf6e3c4>@@@?$task@_N@Concurrency@@QEBA?AV?$task@X@1@AEBV<lambda_2b88f7f64ad9eedeacf2546afbf6e3c4>@@@Z 0000000180021590 f i _nodert_generated.obj
 0001:00020810       ??$create_task@PE$AAUIAsyncAction@Foundation@Windows@@@Concurrency@@YA?AV?$task@X@0@PE$AAUIAsyncAction@Foundation@Windows@@Vtask_options@0@@Z 0000000180021810 f i _nodert_generated.obj
 0001:000208b0       ??$then@V<lambda_96e3cb59543c51283fb296f13d4d1869>@@@?$task@X@Concurrency@@QEBA?AV01@AEBV<lambda_96e3cb59543c51283fb296f13d4d1869>@@Vtask_options@1@@Z 00000001800218b0 f i _nodert_generated.obj
 0001:00020a90       ??$create_task@PE$AAU?$IAsyncOperation@PE$AAVKeyCredentialRetrievalResult@Credentials@Security@Windows@@@Foundation@Windows@@@Concurrency@@YA?AV?$task@PE$AAVKeyCredentialRetrievalResult@Credentials@Security@Windows@@@0@PE$AAU?$IAsyncOperation@PE$AAVKeyCredentialRetrievalResult@Credentials@Security@Windows@@@Foundation@Windows@@Vtask_options@0@@Z 0000000180021a90 f i _nodert_generated.obj
 0001:00020b30       ??$then@V<lambda_e4093e3535e756778c15aedef34d51e2>@@@?$task@PE$AAVKeyCredentialRetrievalResult@Credentials@Security@Windows@@@Concurrency@@QEBA?AV?$task@X@1@AEBV<lambda_e4093e3535e756778c15aedef34d51e2>@@@Z 0000000180021b30 f i _nodert_generated.obj
 0001:00020d90       ??$then@V<lambda_949d2347ed2e144726609cfa5ee5b5bb>@@@?$task@PE$AAVKeyCredentialRetrievalResult@Credentials@Security@Windows@@@Concurrency@@QEBA?AV?$task@X@1@AEBV<lambda_949d2347ed2e144726609cfa5ee5b5bb>@@@Z 0000000180021d90 f i _nodert_generated.obj
 0001:00020ff0       ??$then@V<lambda_0cda8732cc934001c51aae542286f6ed>@@@?$task@X@Concurrency@@QEBA?AV01@AEBV<lambda_0cda8732cc934001c51aae542286f6ed>@@Vtask_options@1@@Z 0000000180021ff0 f i _nodert_generated.obj
 0001:000211d0       ??$IsWinRtWrapperOf@PE$AAVWebAccountProvider@Credentials@Security@Windows@@@Utils@NodeRT@@YA_NV?$Local@VValue@v8@@@v8@@@Z 00000001800221d0 f i _nodert_generated.obj
 0001:000212f0       ??$IsWinRtWrapperOf@PE$AAVUri@Foundation@Windows@@@Utils@NodeRT@@YA_NV?$Local@VValue@v8@@@v8@@@Z 00000001800222f0 f i _nodert_generated.obj
 0001:00021410       ??$IsWinRtWrapperOf@PE$AAUIWebAccount@Credentials@Security@Windows@@@Utils@NodeRT@@YA_NV?$Local@VValue@v8@@@v8@@@Z 0000000180022410 f i _nodert_generated.obj
 0001:00021410       ??$IsWinRtWrapperOf@PE$AAVWebAccount@Credentials@Security@Windows@@@Utils@NodeRT@@YA_NV?$Local@VValue@v8@@@v8@@@Z 0000000180022410 f i _nodert_generated.obj
 0001:00021530       ??$create_task@PE$AAU?$IAsyncOperation@PE$AAUIRandomAccessStream@Streams@Storage@Windows@@@Foundation@Windows@@@Concurrency@@YA?AV?$task@PE$AAUIRandomAccessStream@Streams@Storage@Windows@@@0@PE$AAU?$IAsyncOperation@PE$AAUIRandomAccessStream@Streams@Storage@Windows@@@Foundation@Windows@@Vtask_options@0@@Z 0000000180022530 f i _nodert_generated.obj
 0001:000215d0       ??$then@V<lambda_0a2bdc002657507cd74ae718c4dfbbbd>@@@?$task@PE$AAUIRandomAccessStream@Streams@Storage@Windows@@@Concurrency@@QEBA?AV?$task@X@1@AEBV<lambda_0a2bdc002657507cd74ae718c4dfbbbd>@@@Z 00000001800225d0 f i _nodert_generated.obj
 0001:00021850       ??$then@V<lambda_bc7991a92a1c32ef2be42f4896124f6c>@@@?$task@X@Concurrency@@QEBA?AV01@AEBV<lambda_bc7991a92a1c32ef2be42f4896124f6c>@@Vtask_options@1@@Z 0000000180022850 f i _nodert_generated.obj
 0001:00021a30       ??$IsWinRtWrapperOf@PE$AAVPasswordCredential@Credentials@Security@Windows@@@Utils@NodeRT@@YA_NV?$Local@VValue@v8@@@v8@@@Z 0000000180022a30 f i _nodert_generated.obj
 0001:00021b50       ??$IsWinRtWrapperOf@PE$AAVPasswordVault@Credentials@Security@Windows@@@Utils@NodeRT@@YA_NV?$Local@VValue@v8@@@v8@@@Z 0000000180022b50 f i _nodert_generated.obj
 0001:00021c70       ??$IsWinRtWrapperOf@PE$AAVPasswordCredentialPropertyStore@Credentials@Security@Windows@@@Utils@NodeRT@@YA_NV?$Local@VValue@v8@@@v8@@@Z 0000000180022c70 f i _nodert_generated.obj
 0001:00021d90       ??$IsWinRtWrapperOf@PE$AAVObject@Platform@@@Utils@NodeRT@@YA_NV?$Local@VValue@v8@@@v8@@@Z 0000000180022d90 f i _nodert_generated.obj
 0001:00021e70       ??$?0V<lambda_8678a9e0aeb3c1994638923b376d2aa1>@@@?$MapChangedEventHandler@PE$AAVString@Platform@@PE$AAVObject@2@@Collections@Foundation@Windows@@QE$AAA@V<lambda_8678a9e0aeb3c1994638923b376d2aa1>@@W4CallbackContext@Platform@@_N@Z 0000000180022e70 f i _nodert_generated.obj
 0001:00021f70       ??$_AsyncInit@EE@_Task_impl_base@details@Concurrency@@SAXAEBV?$shared_ptr@U?$_Task_impl@E@details@Concurrency@@@std@@PE$AAU?$IAsyncOperation@E@Foundation@Windows@@@Z 0000000180022f70 f i _nodert_generated.obj
 0001:000221c0       ??$?0V<lambda_af8508c7722addee579d0ffcec46034b>@@@AsyncActionCompletedHandler@Foundation@Windows@@QE$AAA@V<lambda_af8508c7722addee579d0ffcec46034b>@@W4CallbackContext@Platform@@_N@Z 00000001800231c0 f i _nodert_generated.obj
 0001:000222b0       ??$make_shared@U?$_Task_impl@E@details@Concurrency@@AEAPEAV_CancellationTokenState@23@AEAUscheduler_ptr@3@@std@@YA?AV?$shared_ptr@U?$_Task_impl@E@details@Concurrency@@@0@AEAPEAV_CancellationTokenState@details@Concurrency@@AEAUscheduler_ptr@4@@Z 00000001800232b0 f i _nodert_generated.obj
 0001:000223a0       ??$IsWinRtWrapperOf@PE$AAU?$IKeyValuePair@PE$AAVString@Platform@@PE$AAVObject@2@@Collections@Foundation@Windows@@@Utils@NodeRT@@YA_NV?$Local@VValue@v8@@@v8@@@Z 00000001800233a0 f i _nodert_generated.obj
 0001:000224c0       ??$IsWinRtWrapperOf@PE$AAU?$IIterator@PE$AAU?$IKeyValuePair@PE$AAVString@Platform@@PE$AAVObject@2@@Collections@Foundation@Windows@@@Collections@Foundation@Windows@@@Utils@NodeRT@@YA_NV?$Local@VValue@v8@@@v8@@@Z 00000001800234c0 f i _nodert_generated.obj
 0001:000225e0       ??$IsWinRtWrapperOf@PE$AAU?$IMapView@PE$AAVString@Platform@@PE$AAVObject@2@@Collections@Foundation@Windows@@@Utils@NodeRT@@YA_NV?$Local@VValue@v8@@@v8@@@Z 00000001800235e0 f i _nodert_generated.obj
 0001:00022700       ??$IsWinRtWrapperOf@PE$AAU?$IVectorView@PE$AAVPasswordCredential@Credentials@Security@Windows@@@Collections@Foundation@Windows@@@Utils@NodeRT@@YA_NV?$Local@VValue@v8@@@v8@@@Z 0000000180023700 f i _nodert_generated.obj
 0001:00022820       ??$IsWinRtWrapperOf@PE$AAU?$IMapView@PE$AAVString@Platform@@PE$AAV12@@Collections@Foundation@Windows@@@Utils@NodeRT@@YA_NV?$Local@VValue@v8@@@v8@@@Z 0000000180023820 f i _nodert_generated.obj
 0001:00022940       ??$IsWinRtWrapperOf@PE$AAU?$IKeyValuePair@PE$AAVString@Platform@@PE$AAV12@@Collections@Foundation@Windows@@@Utils@NodeRT@@YA_NV?$Local@VValue@v8@@@v8@@@Z 0000000180023940 f i _nodert_generated.obj
 0001:00022a60       ??$IsWinRtWrapperOf@PE$AAU?$IIterator@PE$AAU?$IKeyValuePair@PE$AAVString@Platform@@PE$AAV12@@Collections@Foundation@Windows@@@Collections@Foundation@Windows@@@Utils@NodeRT@@YA_NV?$Local@VValue@v8@@@v8@@@Z 0000000180023a60 f i _nodert_generated.obj
 0001:00022b80       ??$IsWinRtWrapperOf@PE$AAU?$IIterator@PE$AAVPasswordCredential@Credentials@Security@Windows@@@Collections@Foundation@Windows@@@Utils@NodeRT@@YA_NV?$Local@VValue@v8@@@v8@@@Z 0000000180023b80 f i _nodert_generated.obj
 0001:00022ca0       ?_Delete_this@?$_Ref_count_obj@U?$_Task_impl@PE$AAUIRandomAccessStream@Streams@Storage@Windows@@@details@Concurrency@@@std@@EEAAXXZ 0000000180023ca0 f i _nodert_generated.obj
 0001:00022ca0       ?_Delete_this@?$_Ref_count_obj@U?$_Task_impl@_N@details@Concurrency@@@std@@EEAAXXZ 0000000180023ca0 f i _nodert_generated.obj
 0001:00022ca0       ?_Delete_this@?$_Ref_count_del@V?$Persistent@VObject@v8@@V?$NonCopyablePersistentTraits@VObject@v8@@@2@@Nan@@V<lambda_2faf0822b5cc46d5dceecb0ebfe022d1>@@@std@@EEAAXXZ 0000000180023ca0 f i _nodert_generated.obj
 0001:00022ca0       ?_Delete_this@?$_Ref_count_obj@U?$_Task_impl@PE$AAVKeyCredentialRetrievalResult@Credentials@Security@Windows@@@details@Concurrency@@@std@@EEAAXXZ 0000000180023ca0 f i _nodert_generated.obj
 0001:00022ca0       ?_Delete_this@?$_Ref_count_obj@U?$_Task_impl@PE$AAVKeyCredentialOperationResult@Credentials@Security@Windows@@@details@Concurrency@@@std@@EEAAXXZ 0000000180023ca0 f i _nodert_generated.obj
 0001:00022ca0       ?_Delete_this@?$_Ref_count_obj@U?$_Task_impl@PE$AAVKeyCredentialAttestationResult@Credentials@Security@Windows@@@details@Concurrency@@@std@@EEAAXXZ 0000000180023ca0 f i _nodert_generated.obj
 0001:00022ca0       ?_Delete_this@?$_Ref_count_obj@U?$_Task_impl@E@details@Concurrency@@@std@@EEAAXXZ 0000000180023ca0 f i _nodert_generated.obj
 0001:00022ca0       ?_Delete_this@?$_Ref_count_obj@U_ExceptionHolder@details@Concurrency@@@std@@EEAAXXZ 0000000180023ca0 f i _nodert_generated.obj
 0001:00022cc0       ?_Destroy@?$_Ref_count_obj@U?$_Task_impl@_N@details@Concurrency@@@std@@EEAAXXZ 0000000180023cc0 f i _nodert_generated.obj
 0001:00022cc0       ?_Destroy@?$_Ref_count_obj@U?$_Task_impl@PE$AAVKeyCredentialOperationResult@Credentials@Security@Windows@@@details@Concurrency@@@std@@EEAAXXZ 0000000180023cc0 f i _nodert_generated.obj
 0001:00022cc0       ?_Destroy@?$_Ref_count_obj@U?$_Task_impl@PE$AAVKeyCredentialAttestationResult@Credentials@Security@Windows@@@details@Concurrency@@@std@@EEAAXXZ 0000000180023cc0 f i _nodert_generated.obj
 0001:00022cc0       ?_Destroy@?$_Ref_count_obj@U?$_Task_impl@E@details@Concurrency@@@std@@EEAAXXZ 0000000180023cc0 f i _nodert_generated.obj
 0001:00022cc0       ?_Destroy@?$_Ref_count_obj@U?$_Task_impl@PE$AAVKeyCredentialRetrievalResult@Credentials@Security@Windows@@@details@Concurrency@@@std@@EEAAXXZ 0000000180023cc0 f i _nodert_generated.obj
 0001:00022cc0       ?_Destroy@?$_Ref_count_obj@U?$_Task_impl@PE$AAUIRandomAccessStream@Streams@Storage@Windows@@@details@Concurrency@@@std@@EEAAXXZ 0000000180023cc0 f i _nodert_generated.obj
 0001:00022cd0       ?Invoke@?$__abi_FunctorCapture@V<lambda_af8508c7722addee579d0ffcec46034b>@@XPE$AAUIAsyncAction@Foundation@Windows@@W4AsyncStatus@34@@Details@Platform@@UEAAXPE$AAUIAsyncAction@Foundation@Windows@@W4AsyncStatus@56@@Z 0000000180023cd0 f i _nodert_generated.obj
 0001:00022d20       ??B?$Box@_J@Platform@@QE$AAA_JXZ 0000000180023d20 f i _nodert_generated.obj
 0001:00022de0       ?Invoke@?$__abi_FunctorCapture@V<lambda_8678a9e0aeb3c1994638923b376d2aa1>@@XPE$AAU?$IObservableMap@PE$AAVString@Platform@@PE$AAVObject@2@@Collections@Foundation@Windows@@PE$AAU?$IMapChangedEventArgs@PE$AAVString@Platform@@@345@@Details@Platform@@UEAAXPE$AAU?$IObservableMap@PE$AAVString@Platform@@PE$AAVObject@2@@Collections@Foundation@Windows@@PE$AAU?$IMapChangedEventArgs@PE$AAVString@Platform@@@567@@Z 0000000180023de0 f i _nodert_generated.obj
 0001:00022df0       ??0?$__abi_FunctorCapture@V<lambda_8678a9e0aeb3c1994638923b376d2aa1>@@XPE$AAU?$IObservableMap@PE$AAVString@Platform@@PE$AAVObject@2@@Collections@Foundation@Windows@@PE$AAU?$IMapChangedEventArgs@PE$AAVString@Platform@@@345@@Details@Platform@@QEAA@V<lambda_8678a9e0aeb3c1994638923b376d2aa1>@@@Z 0000000180023df0 f i _nodert_generated.obj
 0001:00022e90       ?_Destroy@?$_Ref_count_obj@U_ExceptionHolder@details@Concurrency@@@std@@EEAAXXZ 0000000180023e90 f i _nodert_generated.obj
 0001:00022ea0       ??1?$_Func_class@XV?$task@PE$AAUIRandomAccessStream@Streams@Storage@Windows@@@Concurrency@@@std@@QEAA@XZ 0000000180023ea0 f i _nodert_generated.obj
 0001:00022ea0       ??1?$function@$$A6AXV?$task@PE$AAUIRandomAccessStream@Streams@Storage@Windows@@@Concurrency@@@Z@std@@QEAA@XZ 0000000180023ea0 f i _nodert_generated.obj
 0001:00022f00       ??1?$function@$$A6AXV?$task@_N@Concurrency@@@Z@std@@QEAA@XZ 0000000180023f00 f i _nodert_generated.obj
 0001:00022f00       ??1?$_Func_class@XV?$task@_N@Concurrency@@@std@@QEAA@XZ 0000000180023f00 f i _nodert_generated.obj
 0001:00022f60       ??1?$function@$$A6AXV?$task@PE$AAVKeyCredentialAttestationResult@Credentials@Security@Windows@@@Concurrency@@@Z@std@@QEAA@XZ 0000000180023f60 f i _nodert_generated.obj
 0001:00022f60       ??1?$_Func_class@XV?$task@PE$AAVKeyCredentialAttestationResult@Credentials@Security@Windows@@@Concurrency@@@std@@QEAA@XZ 0000000180023f60 f i _nodert_generated.obj
 0001:00022fc0       ??1?$_Func_class@XV?$task@PE$AAVKeyCredentialOperationResult@Credentials@Security@Windows@@@Concurrency@@@std@@QEAA@XZ 0000000180023fc0 f i _nodert_generated.obj
 0001:00022fc0       ??1?$function@$$A6AXV?$task@PE$AAVKeyCredentialOperationResult@Credentials@Security@Windows@@@Concurrency@@@Z@std@@QEAA@XZ 0000000180023fc0 f i _nodert_generated.obj
 0001:00023020       ?_SetUnwrappedAsyncOp@?$_Task_impl@E@details@Concurrency@@QEAAXPE$AAU?$IAsyncOperation@E@Foundation@Windows@@@Z 0000000180024020 f i _nodert_generated.obj
 0001:00023150       ??_E?$__abi_FunctorCapture@V<lambda_af8508c7722addee579d0ffcec46034b>@@XPE$AAUIAsyncAction@Foundation@Windows@@W4AsyncStatus@34@@Details@Platform@@UEAAPEAXI@Z 0000000180024150 f i * CIL library *:* CIL module *
 0001:00023150       ??_G?$__abi_FunctorCapture@V<lambda_af8508c7722addee579d0ffcec46034b>@@XPE$AAUIAsyncAction@Foundation@Windows@@W4AsyncStatus@34@@Details@Platform@@UEAAPEAXI@Z 0000000180024150 f i _nodert_generated.obj
 0001:000231b0       ??_G?$__abi_FunctorCapture@V<lambda_43ab25c1adb7f0973938ee962788b436>@@XPE$AAU?$IAsyncOperation@PE$AAVKeyCredentialAttestationResult@Credentials@Security@Windows@@@Foundation@Windows@@W4AsyncStatus@34@@Details@Platform@@UEAAPEAXI@Z 00000001800241b0 f i _nodert_generated.obj
 0001:000231b0       ??_E?$__abi_FunctorCapture@V<lambda_622dcd01706df0ad4e9faa2cac78f8d3>@@XPE$AAU?$IAsyncOperation@PE$AAVKeyCredentialOperationResult@Credentials@Security@Windows@@@Foundation@Windows@@W4AsyncStatus@34@@Details@Platform@@UEAAPEAXI@Z 00000001800241b0 f i * CIL library *:* CIL module *
 0001:000231b0       ??_G?$__abi_FunctorCapture@V<lambda_2b98d90c94c1151452b829038abfb7b9>@@XPE$AAU?$IAsyncOperation@PE$AAVKeyCredentialRetrievalResult@Credentials@Security@Windows@@@Foundation@Windows@@W4AsyncStatus@34@@Details@Platform@@UEAAPEAXI@Z 00000001800241b0 f i _nodert_generated.obj
 0001:000231b0       ??_E?$__abi_FunctorCapture@V<lambda_9c267cdafd8e064f323ec4e1c7ae30d4>@@XPE$AAU?$IAsyncOperation@_N@Foundation@Windows@@W4AsyncStatus@34@@Details@Platform@@UEAAPEAXI@Z 00000001800241b0 f i * CIL library *:* CIL module *
 0001:000231b0       ??_E?$__abi_FunctorCapture@V<lambda_2b98d90c94c1151452b829038abfb7b9>@@XPE$AAU?$IAsyncOperation@PE$AAVKeyCredentialRetrievalResult@Credentials@Security@Windows@@@Foundation@Windows@@W4AsyncStatus@34@@Details@Platform@@UEAAPEAXI@Z 00000001800241b0 f i * CIL library *:* CIL module *
 0001:000231b0       ??_G?$__abi_FunctorCapture@V<lambda_622dcd01706df0ad4e9faa2cac78f8d3>@@XPE$AAU?$IAsyncOperation@PE$AAVKeyCredentialOperationResult@Credentials@Security@Windows@@@Foundation@Windows@@W4AsyncStatus@34@@Details@Platform@@UEAAPEAXI@Z 00000001800241b0 f i _nodert_generated.obj
 0001:000231b0       ??_E?$__abi_FunctorCapture@V<lambda_43ab25c1adb7f0973938ee962788b436>@@XPE$AAU?$IAsyncOperation@PE$AAVKeyCredentialAttestationResult@Credentials@Security@Windows@@@Foundation@Windows@@W4AsyncStatus@34@@Details@Platform@@UEAAPEAXI@Z 00000001800241b0 f i * CIL library *:* CIL module *
 0001:000231b0       ??_G?$__abi_FunctorCapture@V<lambda_9c267cdafd8e064f323ec4e1c7ae30d4>@@XPE$AAU?$IAsyncOperation@_N@Foundation@Windows@@W4AsyncStatus@34@@Details@Platform@@UEAAPEAXI@Z 00000001800241b0 f i _nodert_generated.obj
 0001:000231b0       ??_G?$__abi_FunctorCapture@V<lambda_8678a9e0aeb3c1994638923b376d2aa1>@@XPE$AAU?$IObservableMap@PE$AAVString@Platform@@PE$AAVObject@2@@Collections@Foundation@Windows@@PE$AAU?$IMapChangedEventArgs@PE$AAVString@Platform@@@345@@Details@Platform@@UEAAPEAXI@Z 00000001800241b0 f i _nodert_generated.obj
 0001:000231b0       ??_G?$__abi_FunctorCapture@V<lambda_db80035d952e9a216ce91aaae9489895>@@XPE$AAU?$IAsyncOperation@E@Foundation@Windows@@W4AsyncStatus@34@@Details@Platform@@UEAAPEAXI@Z 00000001800241b0 f i _nodert_generated.obj
 0001:000231b0       ??_E?$__abi_FunctorCapture@V<lambda_8678a9e0aeb3c1994638923b376d2aa1>@@XPE$AAU?$IObservableMap@PE$AAVString@Platform@@PE$AAVObject@2@@Collections@Foundation@Windows@@PE$AAU?$IMapChangedEventArgs@PE$AAVString@Platform@@@345@@Details@Platform@@UEAAPEAXI@Z 00000001800241b0 f i * CIL library *:* CIL module *
 0001:000231b0       ??_E?$__abi_FunctorCapture@V<lambda_fd18366eea5f0418880043da18fa5bb0>@@XPE$AAU?$IAsyncOperation@PE$AAUIRandomAccessStream@Streams@Storage@Windows@@@Foundation@Windows@@W4AsyncStatus@34@@Details@Platform@@UEAAPEAXI@Z 00000001800241b0 f i * CIL library *:* CIL module *
 0001:000231b0       ??_E?$__abi_FunctorCapture@V<lambda_db80035d952e9a216ce91aaae9489895>@@XPE$AAU?$IAsyncOperation@E@Foundation@Windows@@W4AsyncStatus@34@@Details@Platform@@UEAAPEAXI@Z 00000001800241b0 f i * CIL library *:* CIL module *
 0001:000231b0       ??_G?$__abi_FunctorCapture@V<lambda_fd18366eea5f0418880043da18fa5bb0>@@XPE$AAU?$IAsyncOperation@PE$AAUIRandomAccessStream@Streams@Storage@Windows@@@Foundation@Windows@@W4AsyncStatus@34@@Details@Platform@@UEAAPEAXI@Z 00000001800241b0 f i _nodert_generated.obj
 0001:000231f0       ??1?$__abi_FunctorCapture@V<lambda_2b98d90c94c1151452b829038abfb7b9>@@XPE$AAU?$IAsyncOperation@PE$AAVKeyCredentialRetrievalResult@Credentials@Security@Windows@@@Foundation@Windows@@W4AsyncStatus@34@@Details@Platform@@UEAA@XZ 00000001800241f0 f i _nodert_generated.obj
 0001:000231f0       ??1?$__abi_FunctorCapture@V<lambda_9c267cdafd8e064f323ec4e1c7ae30d4>@@XPE$AAU?$IAsyncOperation@_N@Foundation@Windows@@W4AsyncStatus@34@@Details@Platform@@UEAA@XZ 00000001800241f0 f i _nodert_generated.obj
 0001:000231f0       ??1?$__abi_FunctorCapture@V<lambda_fd18366eea5f0418880043da18fa5bb0>@@XPE$AAU?$IAsyncOperation@PE$AAUIRandomAccessStream@Streams@Storage@Windows@@@Foundation@Windows@@W4AsyncStatus@34@@Details@Platform@@UEAA@XZ 00000001800241f0 f i _nodert_generated.obj
 0001:000231f0       ??1?$__abi_FunctorCapture@V<lambda_43ab25c1adb7f0973938ee962788b436>@@XPE$AAU?$IAsyncOperation@PE$AAVKeyCredentialAttestationResult@Credentials@Security@Windows@@@Foundation@Windows@@W4AsyncStatus@34@@Details@Platform@@UEAA@XZ 00000001800241f0 f i _nodert_generated.obj
 0001:000231f0       ??1?$__abi_FunctorCapture@V<lambda_db80035d952e9a216ce91aaae9489895>@@XPE$AAU?$IAsyncOperation@E@Foundation@Windows@@W4AsyncStatus@34@@Details@Platform@@UEAA@XZ 00000001800241f0 f i _nodert_generated.obj
 0001:000231f0       ??1?$__abi_FunctorCapture@V<lambda_8678a9e0aeb3c1994638923b376d2aa1>@@XPE$AAU?$IObservableMap@PE$AAVString@Platform@@PE$AAVObject@2@@Collections@Foundation@Windows@@PE$AAU?$IMapChangedEventArgs@PE$AAVString@Platform@@@345@@Details@Platform@@UEAA@XZ 00000001800241f0 f i _nodert_generated.obj
 0001:000231f0       ??1?$__abi_FunctorCapture@V<lambda_622dcd01706df0ad4e9faa2cac78f8d3>@@XPE$AAU?$IAsyncOperation@PE$AAVKeyCredentialOperationResult@Credentials@Security@Windows@@@Foundation@Windows@@W4AsyncStatus@34@@Details@Platform@@UEAA@XZ 00000001800241f0 f i _nodert_generated.obj
 0001:00023270       ?_Reset0@?$_Ptr_base@U?$_Task_impl@PE$AAVKeyCredentialAttestationResult@Credentials@Security@Windows@@@details@Concurrency@@@std@@QEAAXPEAU?$_Task_impl@PE$AAVKeyCredentialAttestationResult@Credentials@Security@Windows@@@details@Concurrency@@PEAV_Ref_count_base@2@@Z 0000000180024270 f i _nodert_generated.obj
 0001:00023270       ?_Reset0@?$_Ptr_base@Uscheduler_interface@Concurrency@@@std@@QEAAXPEAUscheduler_interface@Concurrency@@PEAV_Ref_count_base@2@@Z 0000000180024270 f i _nodert_generated.obj
 0001:00023270       ?_Reset0@?$_Ptr_base@U?$_Task_impl@_N@details@Concurrency@@@std@@QEAAXPEAU?$_Task_impl@_N@details@Concurrency@@PEAV_Ref_count_base@2@@Z 0000000180024270 f i _nodert_generated.obj
 0001:00023270       ?_Reset0@?$_Ptr_base@U_ExceptionHolder@details@Concurrency@@@std@@QEAAXPEAU_ExceptionHolder@details@Concurrency@@PEAV_Ref_count_base@2@@Z 0000000180024270 f i _nodert_generated.obj
 0001:00023270       ?_Reset0@?$_Ptr_base@U?$_Task_impl@E@details@Concurrency@@@std@@QEAAXPEAU?$_Task_impl@E@details@Concurrency@@PEAV_Ref_count_base@2@@Z 0000000180024270 f i _nodert_generated.obj
 0001:00023270       ?_Reset0@?$_Ptr_base@U?$_Task_impl@PE$AAUIRandomAccessStream@Streams@Storage@Windows@@@details@Concurrency@@@std@@QEAAXPEAU?$_Task_impl@PE$AAUIRandomAccessStream@Streams@Storage@Windows@@@details@Concurrency@@PEAV_Ref_count_base@2@@Z 0000000180024270 f i _nodert_generated.obj
 0001:00023270       ?_Reset0@?$_Ptr_base@U?$_Task_impl@PE$AAVKeyCredentialOperationResult@Credentials@Security@Windows@@@details@Concurrency@@@std@@QEAAXPEAU?$_Task_impl@PE$AAVKeyCredentialOperationResult@Credentials@Security@Windows@@@details@Concurrency@@PEAV_Ref_count_base@2@@Z 0000000180024270 f i _nodert_generated.obj
 0001:00023270       ?_Reset0@?$_Ptr_base@U?$_Task_impl@PE$AAVKeyCredentialRetrievalResult@Credentials@Security@Windows@@@details@Concurrency@@@std@@QEAAXPEAU?$_Task_impl@PE$AAVKeyCredentialRetrievalResult@Credentials@Security@Windows@@@details@Concurrency@@PEAV_Ref_count_base@2@@Z 0000000180024270 f i _nodert_generated.obj
 0001:00023270       ?_Reset0@?$_Ptr_base@V?$Persistent@VObject@v8@@V?$NonCopyablePersistentTraits@VObject@v8@@@2@@Nan@@@std@@QEAAXPEAV?$Persistent@VObject@v8@@V?$NonCopyablePersistentTraits@VObject@v8@@@2@@Nan@@PEAV_Ref_count_base@2@@Z 0000000180024270 f i _nodert_generated.obj
 0001:00023270       ?_Reset0@?$_Ptr_base@U_Task_impl_base@details@Concurrency@@@std@@QEAAXPEAU_Task_impl_base@details@Concurrency@@PEAV_Ref_count_base@2@@Z 0000000180024270 f i _nodert_generated.obj
 0001:00023300       ?_Swap@?$_Func_class@X$$V@std@@IEAAXAEAV12@@Z 0000000180024300 f i _nodert_generated.obj
 0001:00023440       ??$_ThenImpl@XV?$function@$$A6AXV?$task@X@Concurrency@@@Z@std@@@?$task@E@Concurrency@@AEBA?AV?$task@X@1@AEBV?$function@$$A6AXV?$task@X@Concurrency@@@Z@std@@AEAU_ThenImplOptions@details@1@@Z 0000000180024440 f i _nodert_generated.obj
 0001:00023560       ??$SetMethodAux@V?$Local@VObject@v8@@@v8@@@imp@Nan@@YAXV?$Local@VObject@v8@@@v8@@V?$Local@VString@v8@@@3@V?$Local@VFunctionTemplate@v8@@@3@ZZ 0000000180024560 f i _nodert_generated.obj
 0001:000235b0       ??$?0PE$AAU?$IAsyncOperation@PE$AAVKeyCredentialOperationResult@Credentials@Security@Windows@@@Foundation@Windows@@@?$task@PE$AAVKeyCredentialOperationResult@Credentials@Security@Windows@@@Concurrency@@QEAA@PE$AAU?$IAsyncOperation@PE$AAVKeyCredentialOperationResult@Credentials@Security@Windows@@@Foundation@Windows@@AEBVtask_options@1@@Z 00000001800245b0 f i _nodert_generated.obj
 0001:00023780       ??$_ThenImpl@PE$AAVKeyCredentialOperationResult@Credentials@Security@Windows@@V?$function@$$A6AXV?$task@PE$AAVKeyCredentialOperationResult@Credentials@Security@Windows@@@Concurrency@@@Z@std@@@?$task@PE$AAVKeyCredentialOperationResult@Credentials@Security@Windows@@@Concurrency@@AEBA?AV?$task@X@1@AEBV?$function@$$A6AXV?$task@PE$AAVKeyCredentialOperationResult@Credentials@Security@Windows@@@Concurrency@@@Z@std@@AEAU_ThenImplOptions@details@1@@Z 0000000180024780 f i _nodert_generated.obj
 0001:000238a0       ??$?0PE$AAU?$IAsyncOperation@PE$AAVKeyCredentialAttestationResult@Credentials@Security@Windows@@@Foundation@Windows@@@?$task@PE$AAVKeyCredentialAttestationResult@Credentials@Security@Windows@@@Concurrency@@QEAA@PE$AAU?$IAsyncOperation@PE$AAVKeyCredentialAttestationResult@Credentials@Security@Windows@@@Foundation@Windows@@AEBVtask_options@1@@Z 00000001800248a0 f i _nodert_generated.obj
 0001:00023a70       ??$_ThenImpl@PE$AAVKeyCredentialAttestationResult@Credentials@Security@Windows@@V?$function@$$A6AXV?$task@PE$AAVKeyCredentialAttestationResult@Credentials@Security@Windows@@@Concurrency@@@Z@std@@@?$task@PE$AAVKeyCredentialAttestationResult@Credentials@Security@Windows@@@Concurrency@@AEBA?AV?$task@X@1@AEBV?$function@$$A6AXV?$task@PE$AAVKeyCredentialAttestationResult@Credentials@Security@Windows@@@Concurrency@@@Z@std@@AEAU_ThenImplOptions@details@1@@Z 0000000180024a70 f i _nodert_generated.obj
 0001:00023b90       ??$?0PE$AAU?$IAsyncOperation@_N@Foundation@Windows@@@?$task@_N@Concurrency@@QEAA@PE$AAU?$IAsyncOperation@_N@Foundation@Windows@@AEBVtask_options@1@@Z 0000000180024b90 f i _nodert_generated.obj
 0001:00023d60       ??$_ThenImpl@_NV?$function@$$A6AXV?$task@_N@Concurrency@@@Z@std@@@?$task@_N@Concurrency@@AEBA?AV?$task@X@1@AEBV?$function@$$A6AXV?$task@_N@Concurrency@@@Z@std@@AEAU_ThenImplOptions@details@1@@Z 0000000180024d60 f i _nodert_generated.obj
 0001:00023e80       ??$?0PE$AAU?$IAsyncOperation@PE$AAVKeyCredentialRetrievalResult@Credentials@Security@Windows@@@Foundation@Windows@@@?$task@PE$AAVKeyCredentialRetrievalResult@Credentials@Security@Windows@@@Concurrency@@QEAA@PE$AAU?$IAsyncOperation@PE$AAVKeyCredentialRetrievalResult@Credentials@Security@Windows@@@Foundation@Windows@@AEBVtask_options@1@@Z 0000000180024e80 f i _nodert_generated.obj
 0001:00024050       ??$_ThenImpl@PE$AAVKeyCredentialRetrievalResult@Credentials@Security@Windows@@V?$function@$$A6AXV?$task@PE$AAVKeyCredentialRetrievalResult@Credentials@Security@Windows@@@Concurrency@@@Z@std@@@?$task@PE$AAVKeyCredentialRetrievalResult@Credentials@Security@Windows@@@Concurrency@@AEBA?AV?$task@X@1@AEBV?$function@$$A6AXV?$task@PE$AAVKeyCredentialRetrievalResult@Credentials@Security@Windows@@@Concurrency@@@Z@std@@AEAU_ThenImplOptions@details@1@@Z 0000000180025050 f i _nodert_generated.obj
 0001:00024170       ??$?0PE$AAU?$IAsyncOperation@PE$AAUIRandomAccessStream@Streams@Storage@Windows@@@Foundation@Windows@@@?$task@PE$AAUIRandomAccessStream@Streams@Storage@Windows@@@Concurrency@@QEAA@PE$AAU?$IAsyncOperation@PE$AAUIRandomAccessStream@Streams@Storage@Windows@@@Foundation@Windows@@AEBVtask_options@1@@Z 0000000180025170 f i _nodert_generated.obj
 0001:00024340       ??$_ThenImpl@PE$AAUIRandomAccessStream@Streams@Storage@Windows@@V?$function@$$A6AXV?$task@PE$AAUIRandomAccessStream@Streams@Storage@Windows@@@Concurrency@@@Z@std@@@?$task@PE$AAUIRandomAccessStream@Streams@Storage@Windows@@@Concurrency@@AEBA?AV?$task@X@1@AEBV?$function@$$A6AXV?$task@PE$AAUIRandomAccessStream@Streams@Storage@Windows@@@Concurrency@@@Z@std@@AEAU_ThenImplOptions@details@1@@Z 0000000180025340 f i _nodert_generated.obj
 0001:00024460       ??$make_exception_ptr@PE$AAVException@Platform@@@std@@YA?AVexception_ptr@0@PE$AAVException@Platform@@@Z 0000000180025460 f i _nodert_generated.obj
 0001:000244c0       ??$?0V<lambda_db80035d952e9a216ce91aaae9489895>@@@?$AsyncOperationCompletedHandler@E@Foundation@Windows@@QE$AAA@V<lambda_db80035d952e9a216ce91aaae9489895>@@W4CallbackContext@Platform@@_N@Z 00000001800254c0 f i _nodert_generated.obj
 0001:000245c0       ??$?4V<lambda_fcddfbb588d6d178324b6e9cbb1f8253>@@XX@?$function@$$A6AXXZ@std@@QEAAAEAV01@$$QEAV<lambda_fcddfbb588d6d178324b6e9cbb1f8253>@@@Z 00000001800255c0 f i _nodert_generated.obj
 0001:00024690       ??_E?$_Ref_count_obj@U_ExceptionHolder@details@Concurrency@@@std@@UEAAPEAXI@Z 0000000180025690 f i * CIL library *:* CIL module *
 0001:00024690       ??_G?$_Ref_count_obj@U_ExceptionHolder@details@Concurrency@@@std@@UEAAPEAXI@Z 0000000180025690 f i _nodert_generated.obj
 0001:000246c0       ??_G?$_Ref_count_obj@U?$_Task_impl@PE$AAVKeyCredentialRetrievalResult@Credentials@Security@Windows@@@details@Concurrency@@@std@@UEAAPEAXI@Z 00000001800256c0 f i _nodert_generated.obj
 0001:000246c0       ??_G?$_Ref_count_obj@U?$_Task_impl@PE$AAVKeyCredentialAttestationResult@Credentials@Security@Windows@@@details@Concurrency@@@std@@UEAAPEAXI@Z 00000001800256c0 f i _nodert_generated.obj
 0001:000246c0       ??_G?$_Ref_count_obj@U?$_Task_impl@PE$AAVKeyCredentialOperationResult@Credentials@Security@Windows@@@details@Concurrency@@@std@@UEAAPEAXI@Z 00000001800256c0 f i _nodert_generated.obj
 0001:000246c0       ??_E?$_Ref_count_obj@U?$_Task_impl@PE$AAVKeyCredentialOperationResult@Credentials@Security@Windows@@@details@Concurrency@@@std@@UEAAPEAXI@Z 00000001800256c0 f i * CIL library *:* CIL module *
 0001:000246c0       ??_E?$_Ref_count_obj@U?$_Task_impl@_N@details@Concurrency@@@std@@UEAAPEAXI@Z 00000001800256c0 f i * CIL library *:* CIL module *
 0001:000246c0       ??_E?$_Ref_count_obj@U?$_Task_impl@PE$AAVKeyCredentialAttestationResult@Credentials@Security@Windows@@@details@Concurrency@@@std@@UEAAPEAXI@Z 00000001800256c0 f i * CIL library *:* CIL module *
 0001:000246c0       ??_E?$_Ref_count_obj@U?$_Task_impl@E@details@Concurrency@@@std@@UEAAPEAXI@Z 00000001800256c0 f i * CIL library *:* CIL module *
 0001:000246c0       ??_E?$_Ref_count_obj@U?$_Task_impl@PE$AAVKeyCredentialRetrievalResult@Credentials@Security@Windows@@@details@Concurrency@@@std@@UEAAPEAXI@Z 00000001800256c0 f i * CIL library *:* CIL module *
 0001:000246c0       ??_G?$_Ref_count_obj@U?$_Task_impl@E@details@Concurrency@@@std@@UEAAPEAXI@Z 00000001800256c0 f i _nodert_generated.obj
 0001:000246c0       ??_G?$_Ref_count_obj@U?$_Task_impl@_N@details@Concurrency@@@std@@UEAAPEAXI@Z 00000001800256c0 f i _nodert_generated.obj
 0001:000246f0       ?Invoke@?$__abi_FunctorCapture@V<lambda_9c267cdafd8e064f323ec4e1c7ae30d4>@@XPE$AAU?$IAsyncOperation@_N@Foundation@Windows@@W4AsyncStatus@34@@Details@Platform@@UEAAXPE$AAU?$IAsyncOperation@_N@Foundation@Windows@@W4AsyncStatus@56@@Z 00000001800256f0 f i _nodert_generated.obj
 0001:000246f0       ?Invoke@?$__abi_FunctorCapture@V<lambda_db80035d952e9a216ce91aaae9489895>@@XPE$AAU?$IAsyncOperation@E@Foundation@Windows@@W4AsyncStatus@34@@Details@Platform@@UEAAXPE$AAU?$IAsyncOperation@E@Foundation@Windows@@W4AsyncStatus@56@@Z 00000001800256f0 f i _nodert_generated.obj
 0001:00024700       ??0?$__abi_FunctorCapture@V<lambda_db80035d952e9a216ce91aaae9489895>@@XPE$AAU?$IAsyncOperation@E@Foundation@Windows@@W4AsyncStatus@34@@Details@Platform@@QEAA@V<lambda_db80035d952e9a216ce91aaae9489895>@@@Z 0000000180025700 f i _nodert_generated.obj
 0001:000247a0       ?_Destroy@?$_Ref_count_del@V?$Persistent@VObject@v8@@V?$NonCopyablePersistentTraits@VObject@v8@@@2@@Nan@@V<lambda_2faf0822b5cc46d5dceecb0ebfe022d1>@@@std@@EEAAXXZ 00000001800257a0 f i _nodert_generated.obj
 0001:000247e0       ?_Get_deleter@?$_Ref_count_del@V?$Persistent@VObject@v8@@V?$NonCopyablePersistentTraits@VObject@v8@@@2@@Nan@@V<lambda_2faf0822b5cc46d5dceecb0ebfe022d1>@@@std@@UEBAPEAXAEBVtype_info@@@Z 00000001800257e0 f i _nodert_generated.obj
 0001:00024810       ?_GetTaskImplBase@?$_PPLTaskHandle@EU?$_ContinuationTaskHandle@_NXV?$function@$$A6AXV?$task@_N@Concurrency@@@Z@std@@U?$integral_constant@_N$00@2@U_TypeSelectorNoAsync@details@Concurrency@@@?$task@_N@Concurrency@@U_ContinuationTaskHandleBase@details@3@@details@Concurrency@@UEBA?AV?$shared_ptr@U_Task_impl_base@details@Concurrency@@@std@@XZ 0000000180025810 f i _nodert_generated.obj
 0001:00024810       ?_GetTaskImplBase@?$_PPLTaskHandle@EU?$_ContinuationTaskHandle@PE$AAVKeyCredentialOperationResult@Credentials@Security@Windows@@XV?$function@$$A6AXV?$task@PE$AAVKeyCredentialOperationResult@Credentials@Security@Windows@@@Concurrency@@@Z@std@@U?$integral_constant@_N$00@6@U_TypeSelectorNoAsync@details@Concurrency@@@?$task@PE$AAVKeyCredentialOperationResult@Credentials@Security@Windows@@@Concurrency@@U_ContinuationTaskHandleBase@details@3@@details@Concurrency@@UEBA?AV?$shared_ptr@U_Task_impl_base@details@Concurrency@@@std@@XZ 0000000180025810 f i _nodert_generated.obj
 0001:00024810       ?_GetTaskImplBase@?$_PPLTaskHandle@EU?$_ContinuationTaskHandle@PE$AAVKeyCredentialAttestationResult@Credentials@Security@Windows@@XV?$function@$$A6AXV?$task@PE$AAVKeyCredentialAttestationResult@Credentials@Security@Windows@@@Concurrency@@@Z@std@@U?$integral_constant@_N$00@6@U_TypeSelectorNoAsync@details@Concurrency@@@?$task@PE$AAVKeyCredentialAttestationResult@Credentials@Security@Windows@@@Concurrency@@U_ContinuationTaskHandleBase@details@3@@details@Concurrency@@UEBA?AV?$shared_ptr@U_Task_impl_base@details@Concurrency@@@std@@XZ 0000000180025810 f i _nodert_generated.obj
 0001:00024810       ?_GetTaskImplBase@?$_PPLTaskHandle@EU?$_ContinuationTaskHandle@PE$AAUIRandomAccessStream@Streams@Storage@Windows@@XV?$function@$$A6AXV?$task@PE$AAUIRandomAccessStream@Streams@Storage@Windows@@@Concurrency@@@Z@std@@U?$integral_constant@_N$00@6@U_TypeSelectorNoAsync@details@Concurrency@@@?$task@PE$AAUIRandomAccessStream@Streams@Storage@Windows@@@Concurrency@@U_ContinuationTaskHandleBase@details@3@@details@Concurrency@@UEBA?AV?$shared_ptr@U_Task_impl_base@details@Concurrency@@@std@@XZ 0000000180025810 f i _nodert_generated.obj
 0001:00024810       ?_GetTaskImplBase@?$_PPLTaskHandle@EU?$_ContinuationTaskHandle@PE$AAVKeyCredentialRetrievalResult@Credentials@Security@Windows@@XV?$function@$$A6AXV?$task@PE$AAVKeyCredentialRetrievalResult@Credentials@Security@Windows@@@Concurrency@@@Z@std@@U?$integral_constant@_N$00@6@U_TypeSelectorNoAsync@details@Concurrency@@@?$task@PE$AAVKeyCredentialRetrievalResult@Credentials@Security@Windows@@@Concurrency@@U_ContinuationTaskHandleBase@details@3@@details@Concurrency@@UEBA?AV?$shared_ptr@U_Task_impl_base@details@Concurrency@@@std@@XZ 0000000180025810 f i _nodert_generated.obj
 0001:00024810       ?_GetTaskImplBase@?$_PPLTaskHandle@EU?$_ContinuationTaskHandle@XXV?$function@$$A6AXV?$task@X@Concurrency@@@Z@std@@U?$integral_constant@_N$00@2@U_TypeSelectorNoAsync@details@Concurrency@@@?$task@E@Concurrency@@U_ContinuationTaskHandleBase@details@3@@details@Concurrency@@UEBA?AV?$shared_ptr@U_Task_impl_base@details@Concurrency@@@std@@XZ 0000000180025810 f i _nodert_generated.obj
 0001:00024850       ?invoke@?$_PPLTaskHandle@EU?$_ContinuationTaskHandle@PE$AAUIRandomAccessStream@Streams@Storage@Windows@@XV?$function@$$A6AXV?$task@PE$AAUIRandomAccessStream@Streams@Storage@Windows@@@Concurrency@@@Z@std@@U?$integral_constant@_N$00@6@U_TypeSelectorNoAsync@details@Concurrency@@@?$task@PE$AAUIRandomAccessStream@Streams@Storage@Windows@@@Concurrency@@U_ContinuationTaskHandleBase@details@3@@details@Concurrency@@UEBAXXZ 0000000180025850 f i _nodert_generated.obj
 0001:00024940       ??1?$_PPLTaskHandle@EU?$_ContinuationTaskHandle@PE$AAUIRandomAccessStream@Streams@Storage@Windows@@XV?$function@$$A6AXV?$task@PE$AAUIRandomAccessStream@Streams@Storage@Windows@@@Concurrency@@@Z@std@@U?$integral_constant@_N$00@6@U_TypeSelectorNoAsync@details@Concurrency@@@?$task@PE$AAUIRandomAccessStream@Streams@Storage@Windows@@@Concurrency@@U_ContinuationTaskHandleBase@details@3@@details@Concurrency@@UEAA@XZ 0000000180025940 f i _nodert_generated.obj
 0001:000249e0       ??1?$_ContinuationTaskHandle@PE$AAUIRandomAccessStream@Streams@Storage@Windows@@XV?$function@$$A6AXV?$task@PE$AAUIRandomAccessStream@Streams@Storage@Windows@@@Concurrency@@@Z@std@@U?$integral_constant@_N$00@6@U_TypeSelectorNoAsync@details@Concurrency@@@?$task@PE$AAUIRandomAccessStream@Streams@Storage@Windows@@@Concurrency@@UEAA@XZ 00000001800259e0 f i _nodert_generated.obj
 0001:00024aa0       ??0?$_ContinuationTaskHandle@PE$AAUIRandomAccessStream@Streams@Storage@Windows@@XV?$function@$$A6AXV?$task@PE$AAUIRandomAccessStream@Streams@Storage@Windows@@@Concurrency@@@Z@std@@U?$integral_constant@_N$00@6@U_TypeSelectorNoAsync@details@Concurrency@@@?$task@PE$AAUIRandomAccessStream@Streams@Storage@Windows@@@Concurrency@@QEAA@AEBV?$shared_ptr@U?$_Task_impl@PE$AAUIRandomAccessStream@Streams@Storage@Windows@@@details@Concurrency@@@std@@AEBV?$shared_ptr@U?$_Task_impl@E@details@Concurrency@@@4@AEBV?$function@$$A6AXV?$task@PE$AAUIRandomAccessStream@Streams@Storage@Windows@@@Concurrency@@@Z@4@AEBVtask_continuation_context@2@W4_TaskInliningMode@details@2@@Z 0000000180025aa0 f i _nodert_generated.obj
 0001:00024bc0       ?invoke@?$_PPLTaskHandle@EU?$_ContinuationTaskHandle@PE$AAVKeyCredentialRetrievalResult@Credentials@Security@Windows@@XV?$function@$$A6AXV?$task@PE$AAVKeyCredentialRetrievalResult@Credentials@Security@Windows@@@Concurrency@@@Z@std@@U?$integral_constant@_N$00@6@U_TypeSelectorNoAsync@details@Concurrency@@@?$task@PE$AAVKeyCredentialRetrievalResult@Credentials@Security@Windows@@@Concurrency@@U_ContinuationTaskHandleBase@details@3@@details@Concurrency@@UEBAXXZ 0000000180025bc0 f i _nodert_generated.obj
 0001:00024cb0       ??1?$_PPLTaskHandle@EU?$_ContinuationTaskHandle@PE$AAVKeyCredentialRetrievalResult@Credentials@Security@Windows@@XV?$function@$$A6AXV?$task@PE$AAVKeyCredentialRetrievalResult@Credentials@Security@Windows@@@Concurrency@@@Z@std@@U?$integral_constant@_N$00@6@U_TypeSelectorNoAsync@details@Concurrency@@@?$task@PE$AAVKeyCredentialRetrievalResult@Credentials@Security@Windows@@@Concurrency@@U_ContinuationTaskHandleBase@details@3@@details@Concurrency@@UEAA@XZ 0000000180025cb0 f i _nodert_generated.obj
 0001:00024d50       ??1?$_ContinuationTaskHandle@PE$AAVKeyCredentialRetrievalResult@Credentials@Security@Windows@@XV?$function@$$A6AXV?$task@PE$AAVKeyCredentialRetrievalResult@Credentials@Security@Windows@@@Concurrency@@@Z@std@@U?$integral_constant@_N$00@6@U_TypeSelectorNoAsync@details@Concurrency@@@?$task@PE$AAVKeyCredentialRetrievalResult@Credentials@Security@Windows@@@Concurrency@@UEAA@XZ 0000000180025d50 f i _nodert_generated.obj
 0001:00024df0       ??0?$_ContinuationTaskHandle@PE$AAVKeyCredentialRetrievalResult@Credentials@Security@Windows@@XV?$function@$$A6AXV?$task@PE$AAVKeyCredentialRetrievalResult@Credentials@Security@Windows@@@Concurrency@@@Z@std@@U?$integral_constant@_N$00@6@U_TypeSelectorNoAsync@details@Concurrency@@@?$task@PE$AAVKeyCredentialRetrievalResult@Credentials@Security@Windows@@@Concurrency@@QEAA@AEBV?$shared_ptr@U?$_Task_impl@PE$AAVKeyCredentialRetrievalResult@Credentials@Security@Windows@@@details@Concurrency@@@std@@AEBV?$shared_ptr@U?$_Task_impl@E@details@Concurrency@@@4@AEBV?$function@$$A6AXV?$task@PE$AAVKeyCredentialRetrievalResult@Credentials@Security@Windows@@@Concurrency@@@Z@4@AEBVtask_continuation_context@2@W4_TaskInliningMode@details@2@@Z 0000000180025df0 f i _nodert_generated.obj
 0001:00024ef0       ?invoke@?$_PPLTaskHandle@EU?$_ContinuationTaskHandle@_NXV?$function@$$A6AXV?$task@_N@Concurrency@@@Z@std@@U?$integral_constant@_N$00@2@U_TypeSelectorNoAsync@details@Concurrency@@@?$task@_N@Concurrency@@U_ContinuationTaskHandleBase@details@3@@details@Concurrency@@UEBAXXZ 0000000180025ef0 f i _nodert_generated.obj
 0001:00024fe0       ??1?$_PPLTaskHandle@EU?$_ContinuationTaskHandle@_NXV?$function@$$A6AXV?$task@_N@Concurrency@@@Z@std@@U?$integral_constant@_N$00@2@U_TypeSelectorNoAsync@details@Concurrency@@@?$task@_N@Concurrency@@U_ContinuationTaskHandleBase@details@3@@details@Concurrency@@UEAA@XZ 0000000180025fe0 f i _nodert_generated.obj
 0001:00025080       ??1?$_ContinuationTaskHandle@_NXV?$function@$$A6AXV?$task@_N@Concurrency@@@Z@std@@U?$integral_constant@_N$00@2@U_TypeSelectorNoAsync@details@Concurrency@@@?$task@_N@Concurrency@@UEAA@XZ 0000000180026080 f i _nodert_generated.obj
 0001:00025140       ??0?$_ContinuationTaskHandle@_NXV?$function@$$A6AXV?$task@_N@Concurrency@@@Z@std@@U?$integral_constant@_N$00@2@U_TypeSelectorNoAsync@details@Concurrency@@@?$task@_N@Concurrency@@QEAA@AEBV?$shared_ptr@U?$_Task_impl@_N@details@Concurrency@@@std@@AEBV?$shared_ptr@U?$_Task_impl@E@details@Concurrency@@@4@AEBV?$function@$$A6AXV?$task@_N@Concurrency@@@Z@4@AEBVtask_continuation_context@2@W4_TaskInliningMode@details@2@@Z 0000000180026140 f i _nodert_generated.obj
 0001:00025260       ?invoke@?$_PPLTaskHandle@EU?$_ContinuationTaskHandle@PE$AAVKeyCredentialAttestationResult@Credentials@Security@Windows@@XV?$function@$$A6AXV?$task@PE$AAVKeyCredentialAttestationResult@Credentials@Security@Windows@@@Concurrency@@@Z@std@@U?$integral_constant@_N$00@6@U_TypeSelectorNoAsync@details@Concurrency@@@?$task@PE$AAVKeyCredentialAttestationResult@Credentials@Security@Windows@@@Concurrency@@U_ContinuationTaskHandleBase@details@3@@details@Concurrency@@UEBAXXZ 0000000180026260 f i _nodert_generated.obj
 0001:00025350       ??1?$_PPLTaskHandle@EU?$_ContinuationTaskHandle@PE$AAVKeyCredentialAttestationResult@Credentials@Security@Windows@@XV?$function@$$A6AXV?$task@PE$AAVKeyCredentialAttestationResult@Credentials@Security@Windows@@@Concurrency@@@Z@std@@U?$integral_constant@_N$00@6@U_TypeSelectorNoAsync@details@Concurrency@@@?$task@PE$AAVKeyCredentialAttestationResult@Credentials@Security@Windows@@@Concurrency@@U_ContinuationTaskHandleBase@details@3@@details@Concurrency@@UEAA@XZ 0000000180026350 f i _nodert_generated.obj
 0001:000253f0       ??1?$_ContinuationTaskHandle@PE$AAVKeyCredentialAttestationResult@Credentials@Security@Windows@@XV?$function@$$A6AXV?$task@PE$AAVKeyCredentialAttestationResult@Credentials@Security@Windows@@@Concurrency@@@Z@std@@U?$integral_constant@_N$00@6@U_TypeSelectorNoAsync@details@Concurrency@@@?$task@PE$AAVKeyCredentialAttestationResult@Credentials@Security@Windows@@@Concurrency@@UEAA@XZ 00000001800263f0 f i _nodert_generated.obj
 0001:000254b0       ??0?$_ContinuationTaskHandle@PE$AAVKeyCredentialAttestationResult@Credentials@Security@Windows@@XV?$function@$$A6AXV?$task@PE$AAVKeyCredentialAttestationResult@Credentials@Security@Windows@@@Concurrency@@@Z@std@@U?$integral_constant@_N$00@6@U_TypeSelectorNoAsync@details@Concurrency@@@?$task@PE$AAVKeyCredentialAttestationResult@Credentials@Security@Windows@@@Concurrency@@QEAA@AEBV?$shared_ptr@U?$_Task_impl@PE$AAVKeyCredentialAttestationResult@Credentials@Security@Windows@@@details@Concurrency@@@std@@AEBV?$shared_ptr@U?$_Task_impl@E@details@Concurrency@@@4@AEBV?$function@$$A6AXV?$task@PE$AAVKeyCredentialAttestationResult@Credentials@Security@Windows@@@Concurrency@@@Z@4@AEBVtask_continuation_context@2@W4_TaskInliningMode@details@2@@Z 00000001800264b0 f i _nodert_generated.obj
 0001:000255d0       ?invoke@?$_PPLTaskHandle@EU?$_ContinuationTaskHandle@PE$AAVKeyCredentialOperationResult@Credentials@Security@Windows@@XV?$function@$$A6AXV?$task@PE$AAVKeyCredentialOperationResult@Credentials@Security@Windows@@@Concurrency@@@Z@std@@U?$integral_constant@_N$00@6@U_TypeSelectorNoAsync@details@Concurrency@@@?$task@PE$AAVKeyCredentialOperationResult@Credentials@Security@Windows@@@Concurrency@@U_ContinuationTaskHandleBase@details@3@@details@Concurrency@@UEBAXXZ 00000001800265d0 f i _nodert_generated.obj
 0001:000256c0       ??1?$_PPLTaskHandle@EU?$_ContinuationTaskHandle@PE$AAVKeyCredentialOperationResult@Credentials@Security@Windows@@XV?$function@$$A6AXV?$task@PE$AAVKeyCredentialOperationResult@Credentials@Security@Windows@@@Concurrency@@@Z@std@@U?$integral_constant@_N$00@6@U_TypeSelectorNoAsync@details@Concurrency@@@?$task@PE$AAVKeyCredentialOperationResult@Credentials@Security@Windows@@@Concurrency@@U_ContinuationTaskHandleBase@details@3@@details@Concurrency@@UEAA@XZ 00000001800266c0 f i _nodert_generated.obj
 0001:00025760       ??1?$_ContinuationTaskHandle@PE$AAVKeyCredentialOperationResult@Credentials@Security@Windows@@XV?$function@$$A6AXV?$task@PE$AAVKeyCredentialOperationResult@Credentials@Security@Windows@@@Concurrency@@@Z@std@@U?$integral_constant@_N$00@6@U_TypeSelectorNoAsync@details@Concurrency@@@?$task@PE$AAVKeyCredentialOperationResult@Credentials@Security@Windows@@@Concurrency@@UEAA@XZ 0000000180026760 f i _nodert_generated.obj
 0001:00025820       ??0?$_ContinuationTaskHandle@PE$AAVKeyCredentialOperationResult@Credentials@Security@Windows@@XV?$function@$$A6AXV?$task@PE$AAVKeyCredentialOperationResult@Credentials@Security@Windows@@@Concurrency@@@Z@std@@U?$integral_constant@_N$00@6@U_TypeSelectorNoAsync@details@Concurrency@@@?$task@PE$AAVKeyCredentialOperationResult@Credentials@Security@Windows@@@Concurrency@@QEAA@AEBV?$shared_ptr@U?$_Task_impl@PE$AAVKeyCredentialOperationResult@Credentials@Security@Windows@@@details@Concurrency@@@std@@AEBV?$shared_ptr@U?$_Task_impl@E@details@Concurrency@@@4@AEBV?$function@$$A6AXV?$task@PE$AAVKeyCredentialOperationResult@Credentials@Security@Windows@@@Concurrency@@@Z@4@AEBVtask_continuation_context@2@W4_TaskInliningMode@details@2@@Z 0000000180026820 f i _nodert_generated.obj
 0001:00025940       ?invoke@?$_PPLTaskHandle@EU?$_ContinuationTaskHandle@XXV?$function@$$A6AXV?$task@X@Concurrency@@@Z@std@@U?$integral_constant@_N$00@2@U_TypeSelectorNoAsync@details@Concurrency@@@?$task@E@Concurrency@@U_ContinuationTaskHandleBase@details@3@@details@Concurrency@@UEBAXXZ 0000000180026940 f i _nodert_generated.obj
 0001:00025a30       ??1?$_PPLTaskHandle@EU?$_ContinuationTaskHandle@XXV?$function@$$A6AXV?$task@X@Concurrency@@@Z@std@@U?$integral_constant@_N$00@2@U_TypeSelectorNoAsync@details@Concurrency@@@?$task@E@Concurrency@@U_ContinuationTaskHandleBase@details@3@@details@Concurrency@@UEAA@XZ 0000000180026a30 f i _nodert_generated.obj
 0001:00025ad0       ??1?$_ContinuationTaskHandle@XXV?$function@$$A6AXV?$task@X@Concurrency@@@Z@std@@U?$integral_constant@_N$00@2@U_TypeSelectorNoAsync@details@Concurrency@@@?$task@E@Concurrency@@UEAA@XZ 0000000180026ad0 f i _nodert_generated.obj
 0001:00025b70       ??0?$_ContinuationTaskHandle@XXV?$function@$$A6AXV?$task@X@Concurrency@@@Z@std@@U?$integral_constant@_N$00@2@U_TypeSelectorNoAsync@details@Concurrency@@@?$task@E@Concurrency@@QEAA@AEBV?$shared_ptr@U?$_Task_impl@E@details@Concurrency@@@std@@0AEBV?$function@$$A6AXV?$task@X@Concurrency@@@Z@4@AEBVtask_continuation_context@2@W4_TaskInliningMode@details@2@@Z 0000000180026b70 f i _nodert_generated.obj
 0001:00025c70       ?_CreateImpl@?$task@PE$AAUIRandomAccessStream@Streams@Storage@Windows@@@Concurrency@@QEAAXPEAV_CancellationTokenState@details@2@Uscheduler_ptr@2@@Z 0000000180026c70 f i _nodert_generated.obj
 0001:00025db0       ?_CreateImpl@?$task@PE$AAVKeyCredentialRetrievalResult@Credentials@Security@Windows@@@Concurrency@@QEAAXPEAV_CancellationTokenState@details@2@Uscheduler_ptr@2@@Z 0000000180026db0 f i _nodert_generated.obj
 0001:00025ef0       ?_CreateImpl@?$task@PE$AAVKeyCredentialAttestationResult@Credentials@Security@Windows@@@Concurrency@@QEAAXPEAV_CancellationTokenState@details@2@Uscheduler_ptr@2@@Z 0000000180026ef0 f i _nodert_generated.obj
 0001:00026030       ?_CreateImpl@?$task@PE$AAVKeyCredentialOperationResult@Credentials@Security@Windows@@@Concurrency@@QEAAXPEAV_CancellationTokenState@details@2@Uscheduler_ptr@2@@Z 0000000180027030 f i _nodert_generated.obj
 0001:00026170       ?_CreateImpl@?$task@_N@Concurrency@@QEAAXPEAV_CancellationTokenState@details@2@Uscheduler_ptr@2@@Z 0000000180027170 f i _nodert_generated.obj
 0001:000262b0       ??0?$_Task_impl@E@details@Concurrency@@QEAA@PEAV_CancellationTokenState@12@Uscheduler_ptr@2@@Z 00000001800272b0 f i _nodert_generated.obj
 0001:00026360       ??_E?$_Ref_count_del@V?$Persistent@VObject@v8@@V?$NonCopyablePersistentTraits@VObject@v8@@@2@@Nan@@V<lambda_2faf0822b5cc46d5dceecb0ebfe022d1>@@@std@@UEAAPEAXI@Z 0000000180027360 f i * CIL library *:* CIL module *
 0001:00026360       ??_G?$_Ref_count_del@V?$Persistent@VObject@v8@@V?$NonCopyablePersistentTraits@VObject@v8@@@2@@Nan@@V<lambda_2faf0822b5cc46d5dceecb0ebfe022d1>@@@std@@UEAAPEAXI@Z 0000000180027360 f i _nodert_generated.obj
 0001:00026390       ??_G?$_PPLTaskHandle@EU?$_ContinuationTaskHandle@PE$AAUIRandomAccessStream@Streams@Storage@Windows@@XV?$function@$$A6AXV?$task@PE$AAUIRandomAccessStream@Streams@Storage@Windows@@@Concurrency@@@Z@std@@U?$integral_constant@_N$00@6@U_TypeSelectorNoAsync@details@Concurrency@@@?$task@PE$AAUIRandomAccessStream@Streams@Storage@Windows@@@Concurrency@@U_ContinuationTaskHandleBase@details@3@@details@Concurrency@@UEAAPEAXI@Z 0000000180027390 f i _nodert_generated.obj
 0001:00026390       ??_E?$_PPLTaskHandle@EU?$_ContinuationTaskHandle@PE$AAUIRandomAccessStream@Streams@Storage@Windows@@XV?$function@$$A6AXV?$task@PE$AAUIRandomAccessStream@Streams@Storage@Windows@@@Concurrency@@@Z@std@@U?$integral_constant@_N$00@6@U_TypeSelectorNoAsync@details@Concurrency@@@?$task@PE$AAUIRandomAccessStream@Streams@Storage@Windows@@@Concurrency@@U_ContinuationTaskHandleBase@details@3@@details@Concurrency@@UEAAPEAXI@Z 0000000180027390 f i * CIL library *:* CIL module *
 0001:000263d0       ??_G?$_ContinuationTaskHandle@PE$AAUIRandomAccessStream@Streams@Storage@Windows@@XV?$function@$$A6AXV?$task@PE$AAUIRandomAccessStream@Streams@Storage@Windows@@@Concurrency@@@Z@std@@U?$integral_constant@_N$00@6@U_TypeSelectorNoAsync@details@Concurrency@@@?$task@PE$AAUIRandomAccessStream@Streams@Storage@Windows@@@Concurrency@@UEAAPEAXI@Z 00000001800273d0 f i _nodert_generated.obj
 0001:000263d0       ??_E?$_ContinuationTaskHandle@PE$AAUIRandomAccessStream@Streams@Storage@Windows@@XV?$function@$$A6AXV?$task@PE$AAUIRandomAccessStream@Streams@Storage@Windows@@@Concurrency@@@Z@std@@U?$integral_constant@_N$00@6@U_TypeSelectorNoAsync@details@Concurrency@@@?$task@PE$AAUIRandomAccessStream@Streams@Storage@Windows@@@Concurrency@@UEAAPEAXI@Z 00000001800273d0 f i * CIL library *:* CIL module *
 0001:00026410       ??_G?$_PPLTaskHandle@EU?$_ContinuationTaskHandle@PE$AAVKeyCredentialRetrievalResult@Credentials@Security@Windows@@XV?$function@$$A6AXV?$task@PE$AAVKeyCredentialRetrievalResult@Credentials@Security@Windows@@@Concurrency@@@Z@std@@U?$integral_constant@_N$00@6@U_TypeSelectorNoAsync@details@Concurrency@@@?$task@PE$AAVKeyCredentialRetrievalResult@Credentials@Security@Windows@@@Concurrency@@U_ContinuationTaskHandleBase@details@3@@details@Concurrency@@UEAAPEAXI@Z 0000000180027410 f i _nodert_generated.obj
 0001:00026410       ??_E?$_PPLTaskHandle@EU?$_ContinuationTaskHandle@PE$AAVKeyCredentialRetrievalResult@Credentials@Security@Windows@@XV?$function@$$A6AXV?$task@PE$AAVKeyCredentialRetrievalResult@Credentials@Security@Windows@@@Concurrency@@@Z@std@@U?$integral_constant@_N$00@6@U_TypeSelectorNoAsync@details@Concurrency@@@?$task@PE$AAVKeyCredentialRetrievalResult@Credentials@Security@Windows@@@Concurrency@@U_ContinuationTaskHandleBase@details@3@@details@Concurrency@@UEAAPEAXI@Z 0000000180027410 f i * CIL library *:* CIL module *
 0001:00026450       ??_E?$_ContinuationTaskHandle@PE$AAVKeyCredentialRetrievalResult@Credentials@Security@Windows@@XV?$function@$$A6AXV?$task@PE$AAVKeyCredentialRetrievalResult@Credentials@Security@Windows@@@Concurrency@@@Z@std@@U?$integral_constant@_N$00@6@U_TypeSelectorNoAsync@details@Concurrency@@@?$task@PE$AAVKeyCredentialRetrievalResult@Credentials@Security@Windows@@@Concurrency@@UEAAPEAXI@Z 0000000180027450 f i * CIL library *:* CIL module *
 0001:00026450       ??_G?$_ContinuationTaskHandle@PE$AAVKeyCredentialRetrievalResult@Credentials@Security@Windows@@XV?$function@$$A6AXV?$task@PE$AAVKeyCredentialRetrievalResult@Credentials@Security@Windows@@@Concurrency@@@Z@std@@U?$integral_constant@_N$00@6@U_TypeSelectorNoAsync@details@Concurrency@@@?$task@PE$AAVKeyCredentialRetrievalResult@Credentials@Security@Windows@@@Concurrency@@UEAAPEAXI@Z 0000000180027450 f i _nodert_generated.obj
 0001:00026490       ??_G?$_PPLTaskHandle@EU?$_ContinuationTaskHandle@_NXV?$function@$$A6AXV?$task@_N@Concurrency@@@Z@std@@U?$integral_constant@_N$00@2@U_TypeSelectorNoAsync@details@Concurrency@@@?$task@_N@Concurrency@@U_ContinuationTaskHandleBase@details@3@@details@Concurrency@@UEAAPEAXI@Z 0000000180027490 f i _nodert_generated.obj
 0001:00026490       ??_E?$_PPLTaskHandle@EU?$_ContinuationTaskHandle@_NXV?$function@$$A6AXV?$task@_N@Concurrency@@@Z@std@@U?$integral_constant@_N$00@2@U_TypeSelectorNoAsync@details@Concurrency@@@?$task@_N@Concurrency@@U_ContinuationTaskHandleBase@details@3@@details@Concurrency@@UEAAPEAXI@Z 0000000180027490 f i * CIL library *:* CIL module *
 0001:000264d0       ??_G?$_ContinuationTaskHandle@_NXV?$function@$$A6AXV?$task@_N@Concurrency@@@Z@std@@U?$integral_constant@_N$00@2@U_TypeSelectorNoAsync@details@Concurrency@@@?$task@_N@Concurrency@@UEAAPEAXI@Z 00000001800274d0 f i _nodert_generated.obj
 0001:000264d0       ??_E?$_ContinuationTaskHandle@_NXV?$function@$$A6AXV?$task@_N@Concurrency@@@Z@std@@U?$integral_constant@_N$00@2@U_TypeSelectorNoAsync@details@Concurrency@@@?$task@_N@Concurrency@@UEAAPEAXI@Z 00000001800274d0 f i * CIL library *:* CIL module *
 0001:00026510       ??_G?$_PPLTaskHandle@EU?$_ContinuationTaskHandle@PE$AAVKeyCredentialAttestationResult@Credentials@Security@Windows@@XV?$function@$$A6AXV?$task@PE$AAVKeyCredentialAttestationResult@Credentials@Security@Windows@@@Concurrency@@@Z@std@@U?$integral_constant@_N$00@6@U_TypeSelectorNoAsync@details@Concurrency@@@?$task@PE$AAVKeyCredentialAttestationResult@Credentials@Security@Windows@@@Concurrency@@U_ContinuationTaskHandleBase@details@3@@details@Concurrency@@UEAAPEAXI@Z 0000000180027510 f i _nodert_generated.obj
 0001:00026510       ??_E?$_PPLTaskHandle@EU?$_ContinuationTaskHandle@PE$AAVKeyCredentialAttestationResult@Credentials@Security@Windows@@XV?$function@$$A6AXV?$task@PE$AAVKeyCredentialAttestationResult@Credentials@Security@Windows@@@Concurrency@@@Z@std@@U?$integral_constant@_N$00@6@U_TypeSelectorNoAsync@details@Concurrency@@@?$task@PE$AAVKeyCredentialAttestationResult@Credentials@Security@Windows@@@Concurrency@@U_ContinuationTaskHandleBase@details@3@@details@Concurrency@@UEAAPEAXI@Z 0000000180027510 f i * CIL library *:* CIL module *
 0001:00026550       ??_G?$_ContinuationTaskHandle@PE$AAVKeyCredentialAttestationResult@Credentials@Security@Windows@@XV?$function@$$A6AXV?$task@PE$AAVKeyCredentialAttestationResult@Credentials@Security@Windows@@@Concurrency@@@Z@std@@U?$integral_constant@_N$00@6@U_TypeSelectorNoAsync@details@Concurrency@@@?$task@PE$AAVKeyCredentialAttestationResult@Credentials@Security@Windows@@@Concurrency@@UEAAPEAXI@Z 0000000180027550 f i _nodert_generated.obj
 0001:00026550       ??_E?$_ContinuationTaskHandle@PE$AAVKeyCredentialAttestationResult@Credentials@Security@Windows@@XV?$function@$$A6AXV?$task@PE$AAVKeyCredentialAttestationResult@Credentials@Security@Windows@@@Concurrency@@@Z@std@@U?$integral_constant@_N$00@6@U_TypeSelectorNoAsync@details@Concurrency@@@?$task@PE$AAVKeyCredentialAttestationResult@Credentials@Security@Windows@@@Concurrency@@UEAAPEAXI@Z 0000000180027550 f i * CIL library *:* CIL module *
 0001:00026590       ??_G?$_PPLTaskHandle@EU?$_ContinuationTaskHandle@PE$AAVKeyCredentialOperationResult@Credentials@Security@Windows@@XV?$function@$$A6AXV?$task@PE$AAVKeyCredentialOperationResult@Credentials@Security@Windows@@@Concurrency@@@Z@std@@U?$integral_constant@_N$00@6@U_TypeSelectorNoAsync@details@Concurrency@@@?$task@PE$AAVKeyCredentialOperationResult@Credentials@Security@Windows@@@Concurrency@@U_ContinuationTaskHandleBase@details@3@@details@Concurrency@@UEAAPEAXI@Z 0000000180027590 f i _nodert_generated.obj
 0001:00026590       ??_E?$_PPLTaskHandle@EU?$_ContinuationTaskHandle@PE$AAVKeyCredentialOperationResult@Credentials@Security@Windows@@XV?$function@$$A6AXV?$task@PE$AAVKeyCredentialOperationResult@Credentials@Security@Windows@@@Concurrency@@@Z@std@@U?$integral_constant@_N$00@6@U_TypeSelectorNoAsync@details@Concurrency@@@?$task@PE$AAVKeyCredentialOperationResult@Credentials@Security@Windows@@@Concurrency@@U_ContinuationTaskHandleBase@details@3@@details@Concurrency@@UEAAPEAXI@Z 0000000180027590 f i * CIL library *:* CIL module *
 0001:000265d0       ??_G?$_ContinuationTaskHandle@PE$AAVKeyCredentialOperationResult@Credentials@Security@Windows@@XV?$function@$$A6AXV?$task@PE$AAVKeyCredentialOperationResult@Credentials@Security@Windows@@@Concurrency@@@Z@std@@U?$integral_constant@_N$00@6@U_TypeSelectorNoAsync@details@Concurrency@@@?$task@PE$AAVKeyCredentialOperationResult@Credentials@Security@Windows@@@Concurrency@@UEAAPEAXI@Z 00000001800275d0 f i _nodert_generated.obj
 0001:000265d0       ??_E?$_ContinuationTaskHandle@PE$AAVKeyCredentialOperationResult@Credentials@Security@Windows@@XV?$function@$$A6AXV?$task@PE$AAVKeyCredentialOperationResult@Credentials@Security@Windows@@@Concurrency@@@Z@std@@U?$integral_constant@_N$00@6@U_TypeSelectorNoAsync@details@Concurrency@@@?$task@PE$AAVKeyCredentialOperationResult@Credentials@Security@Windows@@@Concurrency@@UEAAPEAXI@Z 00000001800275d0 f i * CIL library *:* CIL module *
 0001:00026610       ??_E?$_PPLTaskHandle@EU?$_ContinuationTaskHandle@XXV?$function@$$A6AXV?$task@X@Concurrency@@@Z@std@@U?$integral_constant@_N$00@2@U_TypeSelectorNoAsync@details@Concurrency@@@?$task@E@Concurrency@@U_ContinuationTaskHandleBase@details@3@@details@Concurrency@@UEAAPEAXI@Z 0000000180027610 f i * CIL library *:* CIL module *
 0001:00026610       ??_G?$_PPLTaskHandle@EU?$_ContinuationTaskHandle@XXV?$function@$$A6AXV?$task@X@Concurrency@@@Z@std@@U?$integral_constant@_N$00@2@U_TypeSelectorNoAsync@details@Concurrency@@@?$task@E@Concurrency@@U_ContinuationTaskHandleBase@details@3@@details@Concurrency@@UEAAPEAXI@Z 0000000180027610 f i _nodert_generated.obj
 0001:00026650       ??_G?$_ContinuationTaskHandle@XXV?$function@$$A6AXV?$task@X@Concurrency@@@Z@std@@U?$integral_constant@_N$00@2@U_TypeSelectorNoAsync@details@Concurrency@@@?$task@E@Concurrency@@UEAAPEAXI@Z 0000000180027650 f i _nodert_generated.obj
 0001:00026650       ??_E?$_ContinuationTaskHandle@XXV?$function@$$A6AXV?$task@X@Concurrency@@@Z@std@@U?$integral_constant@_N$00@2@U_TypeSelectorNoAsync@details@Concurrency@@@?$task@E@Concurrency@@UEAAPEAXI@Z 0000000180027650 f i * CIL library *:* CIL module *
 0001:00026690       ??0?$_PPLTaskHandle@EU?$_ContinuationTaskHandle@PE$AAUIRandomAccessStream@Streams@Storage@Windows@@XV?$function@$$A6AXV?$task@PE$AAUIRandomAccessStream@Streams@Storage@Windows@@@Concurrency@@@Z@std@@U?$integral_constant@_N$00@6@U_TypeSelectorNoAsync@details@Concurrency@@@?$task@PE$AAUIRandomAccessStream@Streams@Storage@Windows@@@Concurrency@@U_ContinuationTaskHandleBase@details@3@@details@Concurrency@@QEAA@AEBV?$shared_ptr@U?$_Task_impl@E@details@Concurrency@@@std@@@Z 0000000180027690 f i _nodert_generated.obj
 0001:00026720       ??0?$_PPLTaskHandle@EU?$_ContinuationTaskHandle@PE$AAVKeyCredentialRetrievalResult@Credentials@Security@Windows@@XV?$function@$$A6AXV?$task@PE$AAVKeyCredentialRetrievalResult@Credentials@Security@Windows@@@Concurrency@@@Z@std@@U?$integral_constant@_N$00@6@U_TypeSelectorNoAsync@details@Concurrency@@@?$task@PE$AAVKeyCredentialRetrievalResult@Credentials@Security@Windows@@@Concurrency@@U_ContinuationTaskHandleBase@details@3@@details@Concurrency@@QEAA@AEBV?$shared_ptr@U?$_Task_impl@E@details@Concurrency@@@std@@@Z 0000000180027720 f i _nodert_generated.obj
 0001:000267b0       ??0?$_PPLTaskHandle@EU?$_ContinuationTaskHandle@_NXV?$function@$$A6AXV?$task@_N@Concurrency@@@Z@std@@U?$integral_constant@_N$00@2@U_TypeSelectorNoAsync@details@Concurrency@@@?$task@_N@Concurrency@@U_ContinuationTaskHandleBase@details@3@@details@Concurrency@@QEAA@AEBV?$shared_ptr@U?$_Task_impl@E@details@Concurrency@@@std@@@Z 00000001800277b0 f i _nodert_generated.obj
 0001:00026840       ??0?$_PPLTaskHandle@EU?$_ContinuationTaskHandle@PE$AAVKeyCredentialAttestationResult@Credentials@Security@Windows@@XV?$function@$$A6AXV?$task@PE$AAVKeyCredentialAttestationResult@Credentials@Security@Windows@@@Concurrency@@@Z@std@@U?$integral_constant@_N$00@6@U_TypeSelectorNoAsync@details@Concurrency@@@?$task@PE$AAVKeyCredentialAttestationResult@Credentials@Security@Windows@@@Concurrency@@U_ContinuationTaskHandleBase@details@3@@details@Concurrency@@QEAA@AEBV?$shared_ptr@U?$_Task_impl@E@details@Concurrency@@@std@@@Z 0000000180027840 f i _nodert_generated.obj
 0001:000268d0       ??0?$_PPLTaskHandle@EU?$_ContinuationTaskHandle@PE$AAVKeyCredentialOperationResult@Credentials@Security@Windows@@XV?$function@$$A6AXV?$task@PE$AAVKeyCredentialOperationResult@Credentials@Security@Windows@@@Concurrency@@@Z@std@@U?$integral_constant@_N$00@6@U_TypeSelectorNoAsync@details@Concurrency@@@?$task@PE$AAVKeyCredentialOperationResult@Credentials@Security@Windows@@@Concurrency@@U_ContinuationTaskHandleBase@details@3@@details@Concurrency@@QEAA@AEBV?$shared_ptr@U?$_Task_impl@E@details@Concurrency@@@std@@@Z 00000001800278d0 f i _nodert_generated.obj
 0001:00026960       ??0?$_PPLTaskHandle@EU?$_ContinuationTaskHandle@XXV?$function@$$A6AXV?$task@X@Concurrency@@@Z@std@@U?$integral_constant@_N$00@2@U_TypeSelectorNoAsync@details@Concurrency@@@?$task@E@Concurrency@@U_ContinuationTaskHandleBase@details@3@@details@Concurrency@@QEAA@AEBV?$shared_ptr@U?$_Task_impl@E@details@Concurrency@@@std@@@Z 0000000180027960 f i _nodert_generated.obj
 0001:000269f0       ?_Make@?$_Task_ptr@PE$AAUIRandomAccessStream@Streams@Storage@Windows@@@details@Concurrency@@SA?AV?$shared_ptr@U?$_Task_impl@PE$AAUIRandomAccessStream@Streams@Storage@Windows@@@details@Concurrency@@@std@@PEAV_CancellationTokenState@23@Uscheduler_ptr@3@@Z 00000001800279f0 f i _nodert_generated.obj
 0001:00026a80       ?_Make@?$_Task_ptr@PE$AAVKeyCredentialRetrievalResult@Credentials@Security@Windows@@@details@Concurrency@@SA?AV?$shared_ptr@U?$_Task_impl@PE$AAVKeyCredentialRetrievalResult@Credentials@Security@Windows@@@details@Concurrency@@@std@@PEAV_CancellationTokenState@23@Uscheduler_ptr@3@@Z 0000000180027a80 f i _nodert_generated.obj
 0001:00026b10       ?_Make@?$_Task_ptr@PE$AAVKeyCredentialAttestationResult@Credentials@Security@Windows@@@details@Concurrency@@SA?AV?$shared_ptr@U?$_Task_impl@PE$AAVKeyCredentialAttestationResult@Credentials@Security@Windows@@@details@Concurrency@@@std@@PEAV_CancellationTokenState@23@Uscheduler_ptr@3@@Z 0000000180027b10 f i _nodert_generated.obj
 0001:00026ba0       ?_Make@?$_Task_ptr@PE$AAVKeyCredentialOperationResult@Credentials@Security@Windows@@@details@Concurrency@@SA?AV?$shared_ptr@U?$_Task_impl@PE$AAVKeyCredentialOperationResult@Credentials@Security@Windows@@@details@Concurrency@@@std@@PEAV_CancellationTokenState@23@Uscheduler_ptr@3@@Z 0000000180027ba0 f i _nodert_generated.obj
 0001:00026c30       ?_Make@?$_Task_ptr@_N@details@Concurrency@@SA?AV?$shared_ptr@U?$_Task_impl@_N@details@Concurrency@@@std@@PEAV_CancellationTokenState@23@Uscheduler_ptr@3@@Z 0000000180027c30 f i _nodert_generated.obj
 0001:00026cc0       ?_Continue@?$_ContinuationTaskHandle@PE$AAUIRandomAccessStream@Streams@Storage@Windows@@XV?$function@$$A6AXV?$task@PE$AAUIRandomAccessStream@Streams@Storage@Windows@@@Concurrency@@@Z@std@@U?$integral_constant@_N$00@6@U_TypeSelectorNoAsync@details@Concurrency@@@?$task@PE$AAUIRandomAccessStream@Streams@Storage@Windows@@@Concurrency@@QEBAXU?$integral_constant@_N$00@std@@U_TypeSelectorNoAsync@details@3@@Z 0000000180027cc0 f i _nodert_generated.obj
 0001:00026e20       ?_Continue@?$_ContinuationTaskHandle@PE$AAVKeyCredentialRetrievalResult@Credentials@Security@Windows@@XV?$function@$$A6AXV?$task@PE$AAVKeyCredentialRetrievalResult@Credentials@Security@Windows@@@Concurrency@@@Z@std@@U?$integral_constant@_N$00@6@U_TypeSelectorNoAsync@details@Concurrency@@@?$task@PE$AAVKeyCredentialRetrievalResult@Credentials@Security@Windows@@@Concurrency@@QEBAXU?$integral_constant@_N$00@std@@U_TypeSelectorNoAsync@details@3@@Z 0000000180027e20 f i _nodert_generated.obj
 0001:00026f90       ?_Continue@?$_ContinuationTaskHandle@_NXV?$function@$$A6AXV?$task@_N@Concurrency@@@Z@std@@U?$integral_constant@_N$00@2@U_TypeSelectorNoAsync@details@Concurrency@@@?$task@_N@Concurrency@@QEBAXU?$integral_constant@_N$00@std@@U_TypeSelectorNoAsync@details@3@@Z 0000000180027f90 f i _nodert_generated.obj
 0001:000270f0       ?_Continue@?$_ContinuationTaskHandle@PE$AAVKeyCredentialAttestationResult@Credentials@Security@Windows@@XV?$function@$$A6AXV?$task@PE$AAVKeyCredentialAttestationResult@Credentials@Security@Windows@@@Concurrency@@@Z@std@@U?$integral_constant@_N$00@6@U_TypeSelectorNoAsync@details@Concurrency@@@?$task@PE$AAVKeyCredentialAttestationResult@Credentials@Security@Windows@@@Concurrency@@QEBAXU?$integral_constant@_N$00@std@@U_TypeSelectorNoAsync@details@3@@Z 00000001800280f0 f i _nodert_generated.obj
 0001:00027250       ?_Continue@?$_ContinuationTaskHandle@PE$AAVKeyCredentialOperationResult@Credentials@Security@Windows@@XV?$function@$$A6AXV?$task@PE$AAVKeyCredentialOperationResult@Credentials@Security@Windows@@@Concurrency@@@Z@std@@U?$integral_constant@_N$00@6@U_TypeSelectorNoAsync@details@Concurrency@@@?$task@PE$AAVKeyCredentialOperationResult@Credentials@Security@Windows@@@Concurrency@@QEBAXU?$integral_constant@_N$00@std@@U_TypeSelectorNoAsync@details@3@@Z 0000000180028250 f i _nodert_generated.obj
 0001:000273b0       ?_Continue@?$_ContinuationTaskHandle@XXV?$function@$$A6AXV?$task@X@Concurrency@@@Z@std@@U?$integral_constant@_N$00@2@U_TypeSelectorNoAsync@details@Concurrency@@@?$task@E@Concurrency@@QEBAXU?$integral_constant@_N$00@std@@U_TypeSelectorNoAsync@details@3@@Z 00000001800283b0 f i _nodert_generated.obj
 0001:00027520       ??1?$function@$$A6AEV?$task@X@Concurrency@@@Z@std@@QEAA@XZ 0000000180028520 f i _nodert_generated.obj
 0001:00027520       ??1?$_Func_class@EV?$task@X@Concurrency@@@std@@QEAA@XZ 0000000180028520 f i _nodert_generated.obj
 0001:00027530       ?_Perform@?$_Continuation_func_transformer@V?$task@X@Concurrency@@X@Concurrency@@SA?AV?$function@$$A6AEV?$task@X@Concurrency@@@Z@std@@V?$function@$$A6AXV?$task@X@Concurrency@@@Z@4@@Z 0000000180028530 f i _nodert_generated.obj
 0001:00027590       ??1?$_Func_class@EV?$task@PE$AAVKeyCredentialOperationResult@Credentials@Security@Windows@@@Concurrency@@@std@@QEAA@XZ 0000000180028590 f i _nodert_generated.obj
 0001:00027590       ??1?$function@$$A6AEV?$task@PE$AAVKeyCredentialOperationResult@Credentials@Security@Windows@@@Concurrency@@@Z@std@@QEAA@XZ 0000000180028590 f i _nodert_generated.obj
 0001:000275d0       ?_Perform@?$_Continuation_func_transformer@V?$task@PE$AAVKeyCredentialOperationResult@Credentials@Security@Windows@@@Concurrency@@X@Concurrency@@SA?AV?$function@$$A6AEV?$task@PE$AAVKeyCredentialOperationResult@Credentials@Security@Windows@@@Concurrency@@@Z@std@@V?$function@$$A6AXV?$task@PE$AAVKeyCredentialOperationResult@Credentials@Security@Windows@@@Concurrency@@@Z@4@@Z 00000001800285d0 f i _nodert_generated.obj
 0001:00027650       ??1?$_Func_class@EV?$task@PE$AAVKeyCredentialAttestationResult@Credentials@Security@Windows@@@Concurrency@@@std@@QEAA@XZ 0000000180028650 f i _nodert_generated.obj
 0001:00027650       ??1?$function@$$A6AEV?$task@PE$AAVKeyCredentialAttestationResult@Credentials@Security@Windows@@@Concurrency@@@Z@std@@QEAA@XZ 0000000180028650 f i _nodert_generated.obj
 0001:00027690       ?_Perform@?$_Continuation_func_transformer@V?$task@PE$AAVKeyCredentialAttestationResult@Credentials@Security@Windows@@@Concurrency@@X@Concurrency@@SA?AV?$function@$$A6AEV?$task@PE$AAVKeyCredentialAttestationResult@Credentials@Security@Windows@@@Concurrency@@@Z@std@@V?$function@$$A6AXV?$task@PE$AAVKeyCredentialAttestationResult@Credentials@Security@Windows@@@Concurrency@@@Z@4@@Z 0000000180028690 f i _nodert_generated.obj
 0001:00027710       ??1?$function@$$A6AEV?$task@_N@Concurrency@@@Z@std@@QEAA@XZ 0000000180028710 f i _nodert_generated.obj
 0001:00027710       ??1?$_Func_class@EV?$task@_N@Concurrency@@@std@@QEAA@XZ 0000000180028710 f i _nodert_generated.obj
 0001:00027750       ?_Perform@?$_Continuation_func_transformer@V?$task@_N@Concurrency@@X@Concurrency@@SA?AV?$function@$$A6AEV?$task@_N@Concurrency@@@Z@std@@V?$function@$$A6AXV?$task@_N@Concurrency@@@Z@4@@Z 0000000180028750 f i _nodert_generated.obj
 0001:000277d0       ??1?$function@$$A6AEV?$task@PE$AAVKeyCredentialRetrievalResult@Credentials@Security@Windows@@@Concurrency@@@Z@std@@QEAA@XZ 00000001800287d0 f i _nodert_generated.obj
 0001:000277d0       ??1?$_Func_class@EV?$task@PE$AAVKeyCredentialRetrievalResult@Credentials@Security@Windows@@@Concurrency@@@std@@QEAA@XZ 00000001800287d0 f i _nodert_generated.obj
 0001:000277e0       ?_Perform@?$_Continuation_func_transformer@V?$task@PE$AAVKeyCredentialRetrievalResult@Credentials@Security@Windows@@@Concurrency@@X@Concurrency@@SA?AV?$function@$$A6AEV?$task@PE$AAVKeyCredentialRetrievalResult@Credentials@Security@Windows@@@Concurrency@@@Z@std@@V?$function@$$A6AXV?$task@PE$AAVKeyCredentialRetrievalResult@Credentials@Security@Windows@@@Concurrency@@@Z@4@@Z 00000001800287e0 f i _nodert_generated.obj
 0001:00027840       ??1?$_Func_class@EV?$task@PE$AAUIRandomAccessStream@Streams@Storage@Windows@@@Concurrency@@@std@@QEAA@XZ 0000000180028840 f i _nodert_generated.obj
 0001:00027840       ??1?$function@$$A6AEV?$task@PE$AAUIRandomAccessStream@Streams@Storage@Windows@@@Concurrency@@@Z@std@@QEAA@XZ 0000000180028840 f i _nodert_generated.obj
 0001:00027880       ?_Perform@?$_Continuation_func_transformer@V?$task@PE$AAUIRandomAccessStream@Streams@Storage@Windows@@@Concurrency@@X@Concurrency@@SA?AV?$function@$$A6AEV?$task@PE$AAUIRandomAccessStream@Streams@Storage@Windows@@@Concurrency@@@Z@std@@V?$function@$$A6AXV?$task@PE$AAUIRandomAccessStream@Streams@Storage@Windows@@@Concurrency@@@Z@4@@Z 0000000180028880 f i _nodert_generated.obj
 0001:00027900       ?_Tidy@?$_Func_class@EV?$task@X@Concurrency@@@std@@IEAAXXZ 0000000180028900 f i _nodert_generated.obj
 0001:00027980       ?_Tidy@?$_Func_class@EV?$task@PE$AAVKeyCredentialRetrievalResult@Credentials@Security@Windows@@@Concurrency@@@std@@IEAAXXZ 0000000180028980 f i _nodert_generated.obj
 0001:00027a00       ??$make_shared@U?$_Task_impl@PE$AAUIRandomAccessStream@Streams@Storage@Windows@@@details@Concurrency@@AEAPEAV_CancellationTokenState@23@AEAUscheduler_ptr@3@@std@@YA?AV?$shared_ptr@U?$_Task_impl@PE$AAUIRandomAccessStream@Streams@Storage@Windows@@@details@Concurrency@@@0@AEAPEAV_CancellationTokenState@details@Concurrency@@AEAUscheduler_ptr@4@@Z 0000000180028a00 f i _nodert_generated.obj
 0001:00027af0       ??$make_shared@U?$_Task_impl@PE$AAVKeyCredentialRetrievalResult@Credentials@Security@Windows@@@details@Concurrency@@AEAPEAV_CancellationTokenState@23@AEAUscheduler_ptr@3@@std@@YA?AV?$shared_ptr@U?$_Task_impl@PE$AAVKeyCredentialRetrievalResult@Credentials@Security@Windows@@@details@Concurrency@@@0@AEAPEAV_CancellationTokenState@details@Concurrency@@AEAUscheduler_ptr@4@@Z 0000000180028af0 f i _nodert_generated.obj
 0001:00027be0       ??$make_shared@U?$_Task_impl@PE$AAVKeyCredentialAttestationResult@Credentials@Security@Windows@@@details@Concurrency@@AEAPEAV_CancellationTokenState@23@AEAUscheduler_ptr@3@@std@@YA?AV?$shared_ptr@U?$_Task_impl@PE$AAVKeyCredentialAttestationResult@Credentials@Security@Windows@@@details@Concurrency@@@0@AEAPEAV_CancellationTokenState@details@Concurrency@@AEAUscheduler_ptr@4@@Z 0000000180028be0 f i _nodert_generated.obj
 0001:00027cd0       ??$make_shared@U?$_Task_impl@PE$AAVKeyCredentialOperationResult@Credentials@Security@Windows@@@details@Concurrency@@AEAPEAV_CancellationTokenState@23@AEAUscheduler_ptr@3@@std@@YA?AV?$shared_ptr@U?$_Task_impl@PE$AAVKeyCredentialOperationResult@Credentials@Security@Windows@@@details@Concurrency@@@0@AEAPEAV_CancellationTokenState@details@Concurrency@@AEAUscheduler_ptr@4@@Z 0000000180028cd0 f i _nodert_generated.obj
 0001:00027dc0       ??$make_shared@U?$_Task_impl@_N@details@Concurrency@@AEAPEAV_CancellationTokenState@23@AEAUscheduler_ptr@3@@std@@YA?AV?$shared_ptr@U?$_Task_impl@_N@details@Concurrency@@@0@AEAPEAV_CancellationTokenState@details@Concurrency@@AEAUscheduler_ptr@4@@Z 0000000180028dc0 f i _nodert_generated.obj
 0001:00027eb0       ??$_MakeTToUnitFunc@V?$task@PE$AAUIRandomAccessStream@Streams@Storage@Windows@@@Concurrency@@@details@Concurrency@@YA?AV?$function@$$A6AEV?$task@PE$AAUIRandomAccessStream@Streams@Storage@Windows@@@Concurrency@@@Z@std@@AEBV?$function@$$A6AXV?$task@PE$AAUIRandomAccessStream@Streams@Storage@Windows@@@Concurrency@@@Z@3@@Z 0000000180028eb0 f i _nodert_generated.obj
 0001:00027fd0       ??$_MakeTToUnitFunc@V?$task@PE$AAVKeyCredentialRetrievalResult@Credentials@Security@Windows@@@Concurrency@@@details@Concurrency@@YA?AV?$function@$$A6AEV?$task@PE$AAVKeyCredentialRetrievalResult@Credentials@Security@Windows@@@Concurrency@@@Z@std@@AEBV?$function@$$A6AXV?$task@PE$AAVKeyCredentialRetrievalResult@Credentials@Security@Windows@@@Concurrency@@@Z@3@@Z 0000000180028fd0 f i _nodert_generated.obj
 0001:00028150       ??$_MakeTToUnitFunc@V?$task@_N@Concurrency@@@details@Concurrency@@YA?AV?$function@$$A6AEV?$task@_N@Concurrency@@@Z@std@@AEBV?$function@$$A6AXV?$task@_N@Concurrency@@@Z@3@@Z 0000000180029150 f i _nodert_generated.obj
 0001:00028270       ??$_MakeTToUnitFunc@V?$task@PE$AAVKeyCredentialAttestationResult@Credentials@Security@Windows@@@Concurrency@@@details@Concurrency@@YA?AV?$function@$$A6AEV?$task@PE$AAVKeyCredentialAttestationResult@Credentials@Security@Windows@@@Concurrency@@@Z@std@@AEBV?$function@$$A6AXV?$task@PE$AAVKeyCredentialAttestationResult@Credentials@Security@Windows@@@Concurrency@@@Z@3@@Z 0000000180029270 f i _nodert_generated.obj
 0001:00028390       ??$_MakeTToUnitFunc@V?$task@PE$AAVKeyCredentialOperationResult@Credentials@Security@Windows@@@Concurrency@@@details@Concurrency@@YA?AV?$function@$$A6AEV?$task@PE$AAVKeyCredentialOperationResult@Credentials@Security@Windows@@@Concurrency@@@Z@std@@AEBV?$function@$$A6AXV?$task@PE$AAVKeyCredentialOperationResult@Credentials@Security@Windows@@@Concurrency@@@Z@3@@Z 0000000180029390 f i _nodert_generated.obj
 0001:000284b0       ??$_MakeTToUnitFunc@V?$task@X@Concurrency@@@details@Concurrency@@YA?AV?$function@$$A6AEV?$task@X@Concurrency@@@Z@std@@AEBV?$function@$$A6AXV?$task@X@Concurrency@@@Z@3@@Z 00000001800294b0 f i _nodert_generated.obj
 0001:00028700       ?_Delete_this@?$_Func_impl@V<lambda_31e5d09106ba1b018eab84dd43293d09>@@V?$allocator@H@std@@V?$Local@VValue@v8@@@v8@@PE$AAU?$IKeyValuePair@PE$AAVString@Platform@@PE$AAV12@@Collections@Foundation@Windows@@@std@@EEAAX_N@Z 0000000180029700 f i _nodert_generated.obj
 0001:00028730       ?_Get@?$_Func_impl@V<lambda_bc24d93c4ae52aa761b3a50bef053f9e>@@V?$allocator@H@std@@PE$AAVString@Platform@@V?$Local@VValue@v8@@@v8@@@std@@EEBAPEBXXZ 0000000180029730 f i _nodert_generated.obj
 0001:00028730       ?_Get@?$_Func_impl@V<lambda_cbae3cbe999e6f44f1e055d9bfc9ed60>@@V?$allocator@H@std@@V?$Local@VValue@v8@@@v8@@PE$AAVString@Platform@@@std@@EEBAPEBXXZ 0000000180029730 f i _nodert_generated.obj
 0001:00028730       ?_Get@?$_Func_impl@V<lambda_4eec289ec0f4deac3a510f156040991f>@@V?$allocator@H@std@@V?$Local@VValue@v8@@@v8@@PE$AAVString@Platform@@@std@@EEBAPEBXXZ 0000000180029730 f i _nodert_generated.obj
 0001:00028730       ?_Get@?$_Func_impl@V<lambda_0c35f08fa008bd0bd75f4471027a7740>@@V?$allocator@H@std@@X$$V@std@@EEBAPEBXXZ 0000000180029730 f i _nodert_generated.obj
 0001:00028730       ?_Get@?$_Func_impl@V<lambda_5acfe61f3b4ae200150b963d3f33cedd>@@V?$allocator@H@std@@XV?$function@$$A6AXHPEAV?$Local@VValue@v8@@@v8@@@Z@3@@std@@EEBAPEBXXZ 0000000180029730 f i _nodert_generated.obj
 0001:00028730       ?_Get@?$_Func_impl@V<lambda_74ae016dfde5e451a517e9bd4d394eaf>@@V?$allocator@H@std@@EV?$task@PE$AAUIRandomAccessStream@Streams@Storage@Windows@@@Concurrency@@@std@@EEBAPEBXXZ 0000000180029730 f i _nodert_generated.obj
 0001:00028730       ?_Get@?$_Func_impl@V<lambda_11ef064afb8153978348c7ae537beec7>@@V?$allocator@H@std@@_NV?$Local@VValue@v8@@@v8@@@std@@EEBAPEBXXZ 0000000180029730 f i _nodert_generated.obj
 0001:00028730       ?_Get@?$_Func_impl@V<lambda_763529b0c7473cbc215a52d189ac9b18>@@V?$allocator@H@std@@X$$V@std@@EEBAPEBXXZ 0000000180029730 f i _nodert_generated.obj
 0001:00028730       ?_Get@?$_Func_impl@V<lambda_949d2347ed2e144726609cfa5ee5b5bb>@@V?$allocator@H@std@@XV?$task@PE$AAVKeyCredentialRetrievalResult@Credentials@Security@Windows@@@Concurrency@@@std@@EEBAPEBXXZ 0000000180029730 f i _nodert_generated.obj
 0001:00028730       ?_Get@?$_Func_impl@V<lambda_5a75c12d63d0c3728b9cf388a8587909>@@V?$allocator@H@std@@EV?$task@PE$AAVKeyCredentialRetrievalResult@Credentials@Security@Windows@@@Concurrency@@@std@@EEBAPEBXXZ 0000000180029730 f i _nodert_generated.obj
 0001:00028730       ?_Get@?$_Func_impl@V<lambda_b07158aeb02b1c6d05124a961921958e>@@V?$allocator@H@std@@XV?$function@$$A6AXHPEAV?$Local@VValue@v8@@@v8@@@Z@3@@std@@EEBAPEBXXZ 0000000180029730 f i _nodert_generated.obj
 0001:00028730       ?_Get@?$_Func_impl@V<lambda_4e1e53d2c2d9ec5bbf3872e34247ab49>@@V?$allocator@H@std@@X$$V@std@@EEBAPEBXXZ 0000000180029730 f i _nodert_generated.obj
 0001:00028730       ?_Get@?$_Func_impl@V<lambda_a5363457c4d466f90c086109afe11dcf>@@V?$allocator@H@std@@X$$V@std@@EEBAPEBXXZ 0000000180029730 f i _nodert_generated.obj
 0001:00028730       ?_Get@?$_Func_impl@V<lambda_238a318ebb7e5433e50faddafa53240b>@@V?$allocator@H@std@@X$$V@std@@EEBAPEBXXZ 0000000180029730 f i _nodert_generated.obj
 0001:00028730       ?_Get@?$_Func_impl@V<lambda_b8e671108c61d14db13f18bcf080d2fc>@@V?$allocator@H@std@@XV?$function@$$A6AXHPEAV?$Local@VValue@v8@@@v8@@@Z@3@@std@@EEBAPEBXXZ 0000000180029730 f i _nodert_generated.obj
 0001:00028730       ?_Get@?$_Func_impl@V<lambda_b96afc2058126c8419999d664580aa66>@@V?$allocator@H@std@@PE$AAVPasswordCredential@Credentials@Security@Windows@@V?$Local@VValue@v8@@@v8@@@std@@EEBAPEBXXZ 0000000180029730 f i _nodert_generated.obj
 0001:00028730       ?_Get@?$_Func_impl@V<lambda_d4a8bb1d3b7ec2bea7766c2745f0ce11>@@V?$allocator@H@std@@EV?$task@X@Concurrency@@@std@@EEBAPEBXXZ 0000000180029730 f i _nodert_generated.obj
 0001:00028730       ?_Get@?$_Func_impl@V<lambda_9d079450eaf16b73597a4dc875594ea3>@@V?$allocator@H@std@@X$$V@std@@EEBAPEBXXZ 0000000180029730 f i _nodert_generated.obj
 0001:00028730       ?_Get@?$_Func_impl@V<lambda_9f0d7c63b31eb243109d420dd2c7387b>@@V?$allocator@H@std@@XV?$function@$$A6AXHPEAV?$Local@VValue@v8@@@v8@@@Z@3@@std@@EEBAPEBXXZ 0000000180029730 f i _nodert_generated.obj
 0001:00028730       ?_Get@?$_Func_impl@V<lambda_1de5d7763f0249f029274f13d652e2bc>@@V?$allocator@H@std@@_NV?$Local@VValue@v8@@@v8@@@std@@EEBAPEBXXZ 0000000180029730 f i _nodert_generated.obj
 0001:00028730       ?_Get@?$_Func_impl@V<lambda_d0cf62236daec0328959214a2f29896a>@@V?$allocator@H@std@@X$$V@std@@EEBAPEBXXZ 0000000180029730 f i _nodert_generated.obj
 0001:00028730       ?_Get@?$_Func_impl@V<lambda_c8cb0b9408af423b3d444d18815ef67e>@@V?$allocator@H@std@@PE$AAVPasswordCredential@Credentials@Security@Windows@@V?$Local@VValue@v8@@@v8@@@std@@EEBAPEBXXZ 0000000180029730 f i _nodert_generated.obj
 0001:00028730       ?_Get@?$_Func_impl@V<lambda_bb67c431194e1c455a3fe0f8878e740c>@@V?$allocator@H@std@@XV?$function@$$A6AXHPEAV?$Local@VValue@v8@@@v8@@@Z@3@@std@@EEBAPEBXXZ 0000000180029730 f i _nodert_generated.obj
 0001:00028730       ?_Get@?$_Func_impl@V<lambda_2b88f7f64ad9eedeacf2546afbf6e3c4>@@V?$allocator@H@std@@XV?$task@_N@Concurrency@@@std@@EEBAPEBXXZ 0000000180029730 f i _nodert_generated.obj
 0001:00028730       ?_Get@?$_Func_impl@V<lambda_fb18f48fd1b9342714bb64f8d4fd3c4c>@@V?$allocator@H@std@@XV?$function@$$A6AXHPEAV?$Local@VValue@v8@@@v8@@@Z@3@@std@@EEBAPEBXXZ 0000000180029730 f i _nodert_generated.obj
 0001:00028730       ?_Get@?$_Func_impl@V<lambda_96e3cb59543c51283fb296f13d4d1869>@@V?$allocator@H@std@@XV?$task@X@Concurrency@@@std@@EEBAPEBXXZ 0000000180029730 f i _nodert_generated.obj
 0001:00028730       ?_Get@?$_Func_impl@V<lambda_4c6397284cf12c71bb896defe34c667b>@@V?$allocator@H@std@@XV?$function@$$A6AXHPEAV?$Local@VValue@v8@@@v8@@@Z@3@@std@@EEBAPEBXXZ 0000000180029730 f i _nodert_generated.obj
 0001:00028730       ?_Get@?$_Func_impl@V<lambda_5a1c437f17fa466aabaf7b0153a0ecc3>@@V?$allocator@H@std@@EV?$task@_N@Concurrency@@@std@@EEBAPEBXXZ 0000000180029730 f i _nodert_generated.obj
 0001:00028730       ?_Get@?$_Func_impl@V<lambda_45b1e61327eaea63582b9eff8eb2000c>@@V?$allocator@H@std@@XV?$function@$$A6AXHPEAV?$Local@VValue@v8@@@v8@@@Z@3@@std@@EEBAPEBXXZ 0000000180029730 f i _nodert_generated.obj
 0001:00028730       ?_Get@?$_Func_impl@V<lambda_4547bc666ca5e819e2f94520da23e0f5>@@V?$allocator@H@std@@XV?$function@$$A6AXHPEAV?$Local@VValue@v8@@@v8@@@Z@3@@std@@EEBAPEBXXZ 0000000180029730 f i _nodert_generated.obj
 0001:00028730       ?_Get@?$_Func_impl@V<lambda_6c4ca31976c4ddd1031340f2696b2738>@@V?$allocator@H@std@@V?$Local@VValue@v8@@@v8@@PE$AAVPasswordCredential@Credentials@Security@Windows@@@std@@EEBAPEBXXZ 0000000180029730 f i _nodert_generated.obj
 0001:00028730       ?_Get@?$_Func_impl@V<lambda_b5018d04d4e39eb5f75ec04d69f7427c>@@V?$allocator@H@std@@XV?$function@$$A6AXHPEAV?$Local@VValue@v8@@@v8@@@Z@3@@std@@EEBAPEBXXZ 0000000180029730 f i _nodert_generated.obj
 0001:00028730       ?_Get@?$_Func_impl@V<lambda_7c85cdcc7b722a73124a4747dd95cece>@@V?$allocator@H@std@@V?$Local@VValue@v8@@@v8@@PE$AAU?$IKeyValuePair@PE$AAVString@Platform@@PE$AAVObject@2@@Collections@Foundation@Windows@@@std@@EEBAPEBXXZ 0000000180029730 f i _nodert_generated.obj
 0001:00028730       ?_Get@?$_Func_impl@V<lambda_31e5d09106ba1b018eab84dd43293d09>@@V?$allocator@H@std@@V?$Local@VValue@v8@@@v8@@PE$AAU?$IKeyValuePair@PE$AAVString@Platform@@PE$AAV12@@Collections@Foundation@Windows@@@std@@EEBAPEBXXZ 0000000180029730 f i _nodert_generated.obj
 0001:00028730       ?_Get@?$_Func_impl@V<lambda_74825967637e2960b17843ec2f8e7440>@@V?$allocator@H@std@@X$$V@std@@EEBAPEBXXZ 0000000180029730 f i _nodert_generated.obj
 0001:00028730       ?_Get@?$_Func_impl@V<lambda_c40472a1a0562fc548f4647b082fe665>@@V?$allocator@H@std@@_NV?$Local@VValue@v8@@@v8@@@std@@EEBAPEBXXZ 0000000180029730 f i _nodert_generated.obj
 0001:00028730       ?_Get@?$_Func_impl@V<lambda_2cdc3f7620d18cd97fbfc9d2d4690fa9>@@V?$allocator@H@std@@V?$Local@VValue@v8@@@v8@@PE$AAVString@Platform@@@std@@EEBAPEBXXZ 0000000180029730 f i _nodert_generated.obj
 0001:00028730       ?_Get@?$_Func_impl@V<lambda_a88ba152e427f8c2aef19e30e230b579>@@V?$allocator@H@std@@V?$Local@VValue@v8@@@v8@@PE$AAVObject@Platform@@@std@@EEBAPEBXXZ 0000000180029730 f i _nodert_generated.obj
 0001:00028730       ?_Get@?$_Func_impl@V<lambda_2898c1f942da5bb07e9851962fe02557>@@V?$allocator@H@std@@PE$AAVString@Platform@@V?$Local@VValue@v8@@@v8@@@std@@EEBAPEBXXZ 0000000180029730 f i _nodert_generated.obj
 0001:00028730       ?_Get@?$_Func_impl@V<lambda_9236e82175b1e8f0c25554990d6ee763>@@V?$allocator@H@std@@XV?$function@$$A6AXHPEAV?$Local@VValue@v8@@@v8@@@Z@3@@std@@EEBAPEBXXZ 0000000180029730 f i _nodert_generated.obj
 0001:00028730       ?_Get@?$_Func_impl@V<lambda_62960d9191954ca6d0aa9d8074ddd588>@@V?$allocator@H@std@@X$$V@std@@EEBAPEBXXZ 0000000180029730 f i _nodert_generated.obj
 0001:00028730       ?_Get@?$_Func_impl@V<lambda_54a3ae4835dd5cf44f02a0eeadada84b>@@V?$allocator@H@std@@XV?$task@PE$AAVKeyCredentialAttestationResult@Credentials@Security@Windows@@@Concurrency@@@std@@EEBAPEBXXZ 0000000180029730 f i _nodert_generated.obj
 0001:00028730       ?_Get@?$_Func_impl@V<lambda_d77f911d074d0f8d27a0b7999255def9>@@V?$allocator@H@std@@V?$Local@VValue@v8@@@v8@@PE$AAVString@Platform@@@std@@EEBAPEBXXZ 0000000180029730 f i _nodert_generated.obj
 0001:00028730       ?_Get@?$_Func_impl@V<lambda_0a2bdc002657507cd74ae718c4dfbbbd>@@V?$allocator@H@std@@XV?$task@PE$AAUIRandomAccessStream@Streams@Storage@Windows@@@Concurrency@@@std@@EEBAPEBXXZ 0000000180029730 f i _nodert_generated.obj
 0001:00028730       ?_Get@?$_Func_impl@V<lambda_c5918b628fcce4ef3413db30e465b55f>@@V?$allocator@H@std@@PE$AAVPasswordCredential@Credentials@Security@Windows@@V?$Local@VValue@v8@@@v8@@@std@@EEBAPEBXXZ 0000000180029730 f i _nodert_generated.obj
 0001:00028730       ?_Get@?$_Func_impl@V<lambda_0eab81cc34bebf16b98183cb52515b9a>@@V?$allocator@H@std@@XV?$task@PE$AAVKeyCredentialOperationResult@Credentials@Security@Windows@@@Concurrency@@@std@@EEBAPEBXXZ 0000000180029730 f i _nodert_generated.obj
 0001:00028730       ?_Get@?$_Func_impl@V<lambda_c4cafe4fdaee96e19a280e8ee0fbeed9>@@V?$allocator@H@std@@XV?$function@$$A6AXHPEAV?$Local@VValue@v8@@@v8@@@Z@3@@std@@EEBAPEBXXZ 0000000180029730 f i _nodert_generated.obj
 0001:00028730       ?_Get@?$_Func_impl@V<lambda_1af583cf6945007177c61d87505abd8e>@@V?$allocator@H@std@@XHPEAV?$Local@VValue@v8@@@v8@@@std@@EEBAPEBXXZ 0000000180029730 f i _nodert_generated.obj
 0001:00028730       ?_Get@?$_Func_impl@V<lambda_cf258e217e1de5665a08cbbb30d6b9d5>@@V?$allocator@H@std@@_NV?$Local@VValue@v8@@@v8@@@std@@EEBAPEBXXZ 0000000180029730 f i _nodert_generated.obj
 0001:00028730       ?_Get@?$_Func_impl@V<lambda_482f13ff60dffa567295a33f4fa5f717>@@V?$allocator@H@std@@XV?$function@$$A6AXHPEAV?$Local@VValue@v8@@@v8@@@Z@3@@std@@EEBAPEBXXZ 0000000180029730 f i _nodert_generated.obj
 0001:00028730       ?_Get@?$_Func_impl@V<lambda_90430bfa44bd46a48b7e1e4e5d6cf197>@@V?$allocator@H@std@@_NV?$Local@VValue@v8@@@v8@@@std@@EEBAPEBXXZ 0000000180029730 f i _nodert_generated.obj
 0001:00028730       ?_Get@?$_Func_impl@V<lambda_279101090ce1881c12ef39046e07b27f>@@V?$allocator@H@std@@XV?$function@$$A6AXHPEAV?$Local@VValue@v8@@@v8@@@Z@3@@std@@EEBAPEBXXZ 0000000180029730 f i _nodert_generated.obj
 0001:00028730       ?_Get@?$_Func_impl@V<lambda_bb3ea35c7a129712676a4a6472ecdc6a>@@V?$allocator@H@std@@X$$V@std@@EEBAPEBXXZ 0000000180029730 f i _nodert_generated.obj
 0001:00028730       ?_Get@?$_Func_impl@V<lambda_a4bb01c3bfce7d486672a1a98d0662e5>@@V?$allocator@H@std@@XV?$function@$$A6AXHPEAV?$Local@VValue@v8@@@v8@@@Z@3@@std@@EEBAPEBXXZ 0000000180029730 f i _nodert_generated.obj
 0001:00028730       ?_Get@?$_Func_impl@V<lambda_fcddfbb588d6d178324b6e9cbb1f8253>@@V?$allocator@H@std@@X$$V@std@@EEBAPEBXXZ 0000000180029730 f i _nodert_generated.obj
 0001:00028730       ?_Get@?$_Func_impl@V<lambda_894a72664415ba88315eb1ec400df9cb>@@V?$allocator@H@std@@_NV?$Local@VValue@v8@@@v8@@@std@@EEBAPEBXXZ 0000000180029730 f i _nodert_generated.obj
 0001:00028730       ?_Get@?$_Func_impl@V<lambda_0cda8732cc934001c51aae542286f6ed>@@V?$allocator@H@std@@XV?$task@X@Concurrency@@@std@@EEBAPEBXXZ 0000000180029730 f i _nodert_generated.obj
 0001:00028730       ?_Get@?$_Func_impl@V<lambda_ee2800ccd2b011420c5de0c63356449b>@@V?$allocator@H@std@@X$$V@std@@EEBAPEBXXZ 0000000180029730 f i _nodert_generated.obj
 0001:00028730       ?_Get@?$_Func_impl@V<lambda_c52071c61d3bfc4666f01eb279077e47>@@V?$allocator@H@std@@V?$Local@VValue@v8@@@v8@@PE$AAVPasswordCredential@Credentials@Security@Windows@@@std@@EEBAPEBXXZ 0000000180029730 f i _nodert_generated.obj
 0001:00028730       ?_Get@?$_Func_impl@V<lambda_fc55a96778b695da9907353a9fdacbca>@@V?$allocator@H@std@@X$$V@std@@EEBAPEBXXZ 0000000180029730 f i _nodert_generated.obj
 0001:00028730       ?_Get@?$_Func_impl@V<lambda_4c26654467069cc6eb8c50b38bff689e>@@V?$allocator@H@std@@EV?$task@PE$AAVKeyCredentialOperationResult@Credentials@Security@Windows@@@Concurrency@@@std@@EEBAPEBXXZ 0000000180029730 f i _nodert_generated.obj
 0001:00028730       ?_Get@?$_Func_impl@V<lambda_06afde9e14e9caafbc5fb4341b3d2c63>@@V?$allocator@H@std@@EV?$task@PE$AAVKeyCredentialAttestationResult@Credentials@Security@Windows@@@Concurrency@@@std@@EEBAPEBXXZ 0000000180029730 f i _nodert_generated.obj
 0001:00028730       ?_Get@?$_Func_impl@V<lambda_a6dafb187171873a34e5daaeebf06488>@@V?$allocator@H@std@@X$$V@std@@EEBAPEBXXZ 0000000180029730 f i _nodert_generated.obj
 0001:00028730       ?_Get@?$_Func_impl@V<lambda_e4093e3535e756778c15aedef34d51e2>@@V?$allocator@H@std@@XV?$task@PE$AAVKeyCredentialRetrievalResult@Credentials@Security@Windows@@@Concurrency@@@std@@EEBAPEBXXZ 0000000180029730 f i _nodert_generated.obj
 0001:00028730       ?_Get@?$_Func_impl@V<lambda_9992f129c8f6c76835a04b2eb18f630d>@@V?$allocator@H@std@@V?$Local@VValue@v8@@@v8@@PE$AAU?$IKeyValuePair@PE$AAVString@Platform@@PE$AAVObject@2@@Collections@Foundation@Windows@@@std@@EEBAPEBXXZ 0000000180029730 f i _nodert_generated.obj
 0001:00028730       ?_Get@?$_Func_impl@V<lambda_f8722d1b632f83f58f7ddae40deccbd6>@@V?$allocator@H@std@@X$$V@std@@EEBAPEBXXZ 0000000180029730 f i _nodert_generated.obj
 0001:00028730       ?_Get@?$_Func_impl@V<lambda_000a9465ab1c2d38e4219958767cbf46>@@V?$allocator@H@std@@XV?$function@$$A6AXHPEAV?$Local@VValue@v8@@@v8@@@Z@3@@std@@EEBAPEBXXZ 0000000180029730 f i _nodert_generated.obj
 0001:00028730       ?_Get@?$_Func_impl@V<lambda_bc7991a92a1c32ef2be42f4896124f6c>@@V?$allocator@H@std@@XV?$task@X@Concurrency@@@std@@EEBAPEBXXZ 0000000180029730 f i _nodert_generated.obj
 0001:00028730       ?_Get@?$_Func_impl@V<lambda_f25c37099038263181b5186a3fa41b37>@@V?$allocator@H@std@@X$$V@std@@EEBAPEBXXZ 0000000180029730 f i _nodert_generated.obj
 0001:00028730       ?_Get@?$_Func_impl@V<lambda_4d0f0461deb482ea0af5799ff4c0acbf>@@V?$allocator@H@std@@XV?$function@$$A6AXHPEAV?$Local@VValue@v8@@@v8@@@Z@3@@std@@EEBAPEBXXZ 0000000180029730 f i _nodert_generated.obj
 0001:00028730       ?_Get@?$_Func_impl@V<lambda_f0a5acfc950c43e1fbbb5ee2eed03371>@@V?$allocator@H@std@@XV?$function@$$A6AXHPEAV?$Local@VValue@v8@@@v8@@@Z@3@@std@@EEBAPEBXXZ 0000000180029730 f i _nodert_generated.obj
 0001:00028730       ?_Get@?$_Func_impl@V<lambda_565eee52b22ad36964fd06183f970011>@@V?$allocator@H@std@@X$$V@std@@EEBAPEBXXZ 0000000180029730 f i _nodert_generated.obj
 0001:00028730       ?_Get@?$_Func_impl@V<lambda_a04c7c9eaa4231a1dbbdd77e6ef06b31>@@V?$allocator@H@std@@V?$Local@VValue@v8@@@v8@@PE$AAVObject@Platform@@@std@@EEBAPEBXXZ 0000000180029730 f i _nodert_generated.obj
 0001:00028730       ?_Get@?$_Func_impl@V<lambda_242a2332dc3f1b4ea74cd4d02a1c6efe>@@V?$allocator@H@std@@V?$Local@VValue@v8@@@v8@@PE$AAVPasswordCredential@Credentials@Security@Windows@@@std@@EEBAPEBXXZ 0000000180029730 f i _nodert_generated.obj
 0001:00028740       ?_Target_type@?$_Func_impl@V<lambda_31e5d09106ba1b018eab84dd43293d09>@@V?$allocator@H@std@@V?$Local@VValue@v8@@@v8@@PE$AAU?$IKeyValuePair@PE$AAVString@Platform@@PE$AAV12@@Collections@Foundation@Windows@@@std@@EEBAAEBVtype_info@@XZ 0000000180029740 f i _nodert_generated.obj
 0001:00028750       ?_Do_call@?$_Func_impl@V<lambda_31e5d09106ba1b018eab84dd43293d09>@@V?$allocator@H@std@@V?$Local@VValue@v8@@@v8@@PE$AAU?$IKeyValuePair@PE$AAVString@Platform@@PE$AAV12@@Collections@Foundation@Windows@@@std@@EEAA?AV?$Local@VValue@v8@@@v8@@$$QEAPE$AAU?$IKeyValuePair@PE$AAVString@Platform@@PE$AAV12@@Collections@Foundation@Windows@@@Z 0000000180029750 f i _nodert_generated.obj
 0001:00028780       ?_Move@?$_Func_impl@V<lambda_31e5d09106ba1b018eab84dd43293d09>@@V?$allocator@H@std@@V?$Local@VValue@v8@@@v8@@PE$AAU?$IKeyValuePair@PE$AAVString@Platform@@PE$AAV12@@Collections@Foundation@Windows@@@std@@EEAAPEAV?$_Func_base@V?$Local@VValue@v8@@@v8@@PE$AAU?$IKeyValuePair@PE$AAVString@Platform@@PE$AAV12@@Collections@Foundation@Windows@@@2@PEAX@Z 0000000180029780 f i _nodert_generated.obj
 0001:000287d0       ?_Copy@?$_Func_impl@V<lambda_31e5d09106ba1b018eab84dd43293d09>@@V?$allocator@H@std@@V?$Local@VValue@v8@@@v8@@PE$AAU?$IKeyValuePair@PE$AAVString@Platform@@PE$AAV12@@Collections@Foundation@Windows@@@std@@EEBAPEAV?$_Func_base@V?$Local@VValue@v8@@@v8@@PE$AAU?$IKeyValuePair@PE$AAVString@Platform@@PE$AAV12@@Collections@Foundation@Windows@@@2@PEAX@Z 00000001800297d0 f i _nodert_generated.obj
 0001:00028830       ?_Delete_this@?$_Func_impl@V<lambda_7c85cdcc7b722a73124a4747dd95cece>@@V?$allocator@H@std@@V?$Local@VValue@v8@@@v8@@PE$AAU?$IKeyValuePair@PE$AAVString@Platform@@PE$AAVObject@2@@Collections@Foundation@Windows@@@std@@EEAAX_N@Z 0000000180029830 f i _nodert_generated.obj
 0001:00028860       ?_Target_type@?$_Func_impl@V<lambda_7c85cdcc7b722a73124a4747dd95cece>@@V?$allocator@H@std@@V?$Local@VValue@v8@@@v8@@PE$AAU?$IKeyValuePair@PE$AAVString@Platform@@PE$AAVObject@2@@Collections@Foundation@Windows@@@std@@EEBAAEBVtype_info@@XZ 0000000180029860 f i _nodert_generated.obj
 0001:00028870       ?_Do_call@?$_Func_impl@V<lambda_7c85cdcc7b722a73124a4747dd95cece>@@V?$allocator@H@std@@V?$Local@VValue@v8@@@v8@@PE$AAU?$IKeyValuePair@PE$AAVString@Platform@@PE$AAVObject@2@@Collections@Foundation@Windows@@@std@@EEAA?AV?$Local@VValue@v8@@@v8@@$$QEAPE$AAU?$IKeyValuePair@PE$AAVString@Platform@@PE$AAVObject@2@@Collections@Foundation@Windows@@@Z 0000000180029870 f i _nodert_generated.obj
 0001:000288a0       ?_Move@?$_Func_impl@V<lambda_7c85cdcc7b722a73124a4747dd95cece>@@V?$allocator@H@std@@V?$Local@VValue@v8@@@v8@@PE$AAU?$IKeyValuePair@PE$AAVString@Platform@@PE$AAVObject@2@@Collections@Foundation@Windows@@@std@@EEAAPEAV?$_Func_base@V?$Local@VValue@v8@@@v8@@PE$AAU?$IKeyValuePair@PE$AAVString@Platform@@PE$AAVObject@2@@Collections@Foundation@Windows@@@2@PEAX@Z 00000001800298a0 f i _nodert_generated.obj
 0001:000288f0       ?_Copy@?$_Func_impl@V<lambda_7c85cdcc7b722a73124a4747dd95cece>@@V?$allocator@H@std@@V?$Local@VValue@v8@@@v8@@PE$AAU?$IKeyValuePair@PE$AAVString@Platform@@PE$AAVObject@2@@Collections@Foundation@Windows@@@std@@EEBAPEAV?$_Func_base@V?$Local@VValue@v8@@@v8@@PE$AAU?$IKeyValuePair@PE$AAVString@Platform@@PE$AAVObject@2@@Collections@Foundation@Windows@@@2@PEAX@Z 00000001800298f0 f i _nodert_generated.obj
 0001:00028950       ?_Delete_this@?$_Func_impl@V<lambda_f8722d1b632f83f58f7ddae40deccbd6>@@V?$allocator@H@std@@X$$V@std@@EEAAX_N@Z 0000000180029950 f i _nodert_generated.obj
 0001:00028950       ?_Delete_this@?$_Func_impl@V<lambda_bb3ea35c7a129712676a4a6472ecdc6a>@@V?$allocator@H@std@@X$$V@std@@EEAAX_N@Z 0000000180029950 f i _nodert_generated.obj
 0001:00028950       ?_Delete_this@?$_Func_impl@V<lambda_763529b0c7473cbc215a52d189ac9b18>@@V?$allocator@H@std@@X$$V@std@@EEAAX_N@Z 0000000180029950 f i _nodert_generated.obj
 0001:00028950       ?_Delete_this@?$_Func_impl@V<lambda_a6dafb187171873a34e5daaeebf06488>@@V?$allocator@H@std@@X$$V@std@@EEAAX_N@Z 0000000180029950 f i _nodert_generated.obj
 0001:00028950       ?_Delete_this@?$_Func_impl@V<lambda_4e1e53d2c2d9ec5bbf3872e34247ab49>@@V?$allocator@H@std@@X$$V@std@@EEAAX_N@Z 0000000180029950 f i _nodert_generated.obj
 0001:00028950       ?_Delete_this@?$_Func_impl@V<lambda_565eee52b22ad36964fd06183f970011>@@V?$allocator@H@std@@X$$V@std@@EEAAX_N@Z 0000000180029950 f i _nodert_generated.obj
 0001:00028950       ?_Delete_this@?$_Func_impl@V<lambda_62960d9191954ca6d0aa9d8074ddd588>@@V?$allocator@H@std@@X$$V@std@@EEAAX_N@Z 0000000180029950 f i _nodert_generated.obj
 0001:00028950       ?_Delete_this@?$_Func_impl@V<lambda_ee2800ccd2b011420c5de0c63356449b>@@V?$allocator@H@std@@X$$V@std@@EEAAX_N@Z 0000000180029950 f i _nodert_generated.obj
 0001:00028970       ?_Target_type@?$_Func_impl@V<lambda_bb3ea35c7a129712676a4a6472ecdc6a>@@V?$allocator@H@std@@X$$V@std@@EEBAAEBVtype_info@@XZ 0000000180029970 f i _nodert_generated.obj
 0001:00028980       ?_Do_call@?$_Func_impl@V<lambda_f8722d1b632f83f58f7ddae40deccbd6>@@V?$allocator@H@std@@X$$V@std@@EEAAXXZ 0000000180029980 f i _nodert_generated.obj
 0001:00028980       ?_Do_call@?$_Func_impl@V<lambda_763529b0c7473cbc215a52d189ac9b18>@@V?$allocator@H@std@@X$$V@std@@EEAAXXZ 0000000180029980 f i _nodert_generated.obj
 0001:00028980       ?_Do_call@?$_Func_impl@V<lambda_bb3ea35c7a129712676a4a6472ecdc6a>@@V?$allocator@H@std@@X$$V@std@@EEAAXXZ 0000000180029980 f i _nodert_generated.obj
 0001:00028980       ?_Do_call@?$_Func_impl@V<lambda_4e1e53d2c2d9ec5bbf3872e34247ab49>@@V?$allocator@H@std@@X$$V@std@@EEAAXXZ 0000000180029980 f i _nodert_generated.obj
 0001:00028980       ?_Do_call@?$_Func_impl@V<lambda_a6dafb187171873a34e5daaeebf06488>@@V?$allocator@H@std@@X$$V@std@@EEAAXXZ 0000000180029980 f i _nodert_generated.obj
 0001:00028980       ?_Do_call@?$_Func_impl@V<lambda_565eee52b22ad36964fd06183f970011>@@V?$allocator@H@std@@X$$V@std@@EEAAXXZ 0000000180029980 f i _nodert_generated.obj
 0001:00028990       ?_Copy@?$_Func_impl@V<lambda_bb3ea35c7a129712676a4a6472ecdc6a>@@V?$allocator@H@std@@X$$V@std@@EEBAPEAV?$_Func_base@X$$V@2@PEAX@Z 0000000180029990 f i _nodert_generated.obj
 0001:00028990       ?_Move@?$_Func_impl@V<lambda_bb3ea35c7a129712676a4a6472ecdc6a>@@V?$allocator@H@std@@X$$V@std@@EEAAPEAV?$_Func_base@X$$V@2@PEAX@Z 0000000180029990 f i _nodert_generated.obj
 0001:000289b0       ?_Target_type@?$_Func_impl@V<lambda_4e1e53d2c2d9ec5bbf3872e34247ab49>@@V?$allocator@H@std@@X$$V@std@@EEBAAEBVtype_info@@XZ 00000001800299b0 f i _nodert_generated.obj
 0001:000289c0       ?_Move@?$_Func_impl@V<lambda_4e1e53d2c2d9ec5bbf3872e34247ab49>@@V?$allocator@H@std@@X$$V@std@@EEAAPEAV?$_Func_base@X$$V@2@PEAX@Z 00000001800299c0 f i _nodert_generated.obj
 0001:000289c0       ?_Copy@?$_Func_impl@V<lambda_4e1e53d2c2d9ec5bbf3872e34247ab49>@@V?$allocator@H@std@@X$$V@std@@EEBAPEAV?$_Func_base@X$$V@2@PEAX@Z 00000001800299c0 f i _nodert_generated.obj
 0001:000289e0       ?_Target_type@?$_Func_impl@V<lambda_a6dafb187171873a34e5daaeebf06488>@@V?$allocator@H@std@@X$$V@std@@EEBAAEBVtype_info@@XZ 00000001800299e0 f i _nodert_generated.obj
 0001:000289f0       ?_Copy@?$_Func_impl@V<lambda_a6dafb187171873a34e5daaeebf06488>@@V?$allocator@H@std@@X$$V@std@@EEBAPEAV?$_Func_base@X$$V@2@PEAX@Z 00000001800299f0 f i _nodert_generated.obj
 0001:000289f0       ?_Move@?$_Func_impl@V<lambda_a6dafb187171873a34e5daaeebf06488>@@V?$allocator@H@std@@X$$V@std@@EEAAPEAV?$_Func_base@X$$V@2@PEAX@Z 00000001800299f0 f i _nodert_generated.obj
 0001:00028a10       ?_Target_type@?$_Func_impl@V<lambda_f8722d1b632f83f58f7ddae40deccbd6>@@V?$allocator@H@std@@X$$V@std@@EEBAAEBVtype_info@@XZ 0000000180029a10 f i _nodert_generated.obj
 0001:00028a20       ?_Move@?$_Func_impl@V<lambda_f8722d1b632f83f58f7ddae40deccbd6>@@V?$allocator@H@std@@X$$V@std@@EEAAPEAV?$_Func_base@X$$V@2@PEAX@Z 0000000180029a20 f i _nodert_generated.obj
 0001:00028a20       ?_Copy@?$_Func_impl@V<lambda_f8722d1b632f83f58f7ddae40deccbd6>@@V?$allocator@H@std@@X$$V@std@@EEBAPEAV?$_Func_base@X$$V@2@PEAX@Z 0000000180029a20 f i _nodert_generated.obj
 0001:00028a40       ?_Target_type@?$_Func_impl@V<lambda_565eee52b22ad36964fd06183f970011>@@V?$allocator@H@std@@X$$V@std@@EEBAAEBVtype_info@@XZ 0000000180029a40 f i _nodert_generated.obj
 0001:00028a50       ?_Copy@?$_Func_impl@V<lambda_565eee52b22ad36964fd06183f970011>@@V?$allocator@H@std@@X$$V@std@@EEBAPEAV?$_Func_base@X$$V@2@PEAX@Z 0000000180029a50 f i _nodert_generated.obj
 0001:00028a50       ?_Move@?$_Func_impl@V<lambda_565eee52b22ad36964fd06183f970011>@@V?$allocator@H@std@@X$$V@std@@EEAAPEAV?$_Func_base@X$$V@2@PEAX@Z 0000000180029a50 f i _nodert_generated.obj
 0001:00028a70       ?_Target_type@?$_Func_impl@V<lambda_763529b0c7473cbc215a52d189ac9b18>@@V?$allocator@H@std@@X$$V@std@@EEBAAEBVtype_info@@XZ 0000000180029a70 f i _nodert_generated.obj
 0001:00028a80       ?_Move@?$_Func_impl@V<lambda_763529b0c7473cbc215a52d189ac9b18>@@V?$allocator@H@std@@X$$V@std@@EEAAPEAV?$_Func_base@X$$V@2@PEAX@Z 0000000180029a80 f i _nodert_generated.obj
 0001:00028a80       ?_Copy@?$_Func_impl@V<lambda_763529b0c7473cbc215a52d189ac9b18>@@V?$allocator@H@std@@X$$V@std@@EEBAPEAV?$_Func_base@X$$V@2@PEAX@Z 0000000180029a80 f i _nodert_generated.obj
 0001:00028aa0       ?_Delete_this@?$_Func_impl@V<lambda_74825967637e2960b17843ec2f8e7440>@@V?$allocator@H@std@@X$$V@std@@EEAAX_N@Z 0000000180029aa0 f i _nodert_generated.obj
 0001:00028af0       ?_Target_type@?$_Func_impl@V<lambda_74825967637e2960b17843ec2f8e7440>@@V?$allocator@H@std@@X$$V@std@@EEBAAEBVtype_info@@XZ 0000000180029af0 f i _nodert_generated.obj
 0001:00028b00       ?_Do_call@?$_Func_impl@V<lambda_74825967637e2960b17843ec2f8e7440>@@V?$allocator@H@std@@X$$V@std@@EEAAXXZ 0000000180029b00 f i _nodert_generated.obj
 0001:00028b10       ?_Move@?$_Func_impl@V<lambda_74825967637e2960b17843ec2f8e7440>@@V?$allocator@H@std@@X$$V@std@@EEAAPEAV?$_Func_base@X$$V@2@PEAX@Z 0000000180029b10 f i _nodert_generated.obj
 0001:00028b40       ?_Copy@?$_Func_impl@V<lambda_74825967637e2960b17843ec2f8e7440>@@V?$allocator@H@std@@X$$V@std@@EEBAPEAV?$_Func_base@X$$V@2@PEAX@Z 0000000180029b40 f i _nodert_generated.obj
 0001:00028b70       ?_Target_type@?$_Func_impl@V<lambda_62960d9191954ca6d0aa9d8074ddd588>@@V?$allocator@H@std@@X$$V@std@@EEBAAEBVtype_info@@XZ 0000000180029b70 f i _nodert_generated.obj
 0001:00028b80       ?_Do_call@?$_Func_impl@V<lambda_62960d9191954ca6d0aa9d8074ddd588>@@V?$allocator@H@std@@X$$V@std@@EEAAXXZ 0000000180029b80 f i _nodert_generated.obj
 0001:00028bd0       ?_Move@?$_Func_impl@V<lambda_62960d9191954ca6d0aa9d8074ddd588>@@V?$allocator@H@std@@X$$V@std@@EEAAPEAV?$_Func_base@X$$V@2@PEAX@Z 0000000180029bd0 f i _nodert_generated.obj
 0001:00028bd0       ?_Copy@?$_Func_impl@V<lambda_62960d9191954ca6d0aa9d8074ddd588>@@V?$allocator@H@std@@X$$V@std@@EEBAPEAV?$_Func_base@X$$V@2@PEAX@Z 0000000180029bd0 f i _nodert_generated.obj
 0001:00028bf0       ?_Delete_this@?$_Func_impl@V<lambda_9992f129c8f6c76835a04b2eb18f630d>@@V?$allocator@H@std@@V?$Local@VValue@v8@@@v8@@PE$AAU?$IKeyValuePair@PE$AAVString@Platform@@PE$AAVObject@2@@Collections@Foundation@Windows@@@std@@EEAAX_N@Z 0000000180029bf0 f i _nodert_generated.obj
 0001:00028c10       ?_Target_type@?$_Func_impl@V<lambda_9992f129c8f6c76835a04b2eb18f630d>@@V?$allocator@H@std@@V?$Local@VValue@v8@@@v8@@PE$AAU?$IKeyValuePair@PE$AAVString@Platform@@PE$AAVObject@2@@Collections@Foundation@Windows@@@std@@EEBAAEBVtype_info@@XZ 0000000180029c10 f i _nodert_generated.obj
 0001:00028c20       ?_Do_call@?$_Func_impl@V<lambda_9992f129c8f6c76835a04b2eb18f630d>@@V?$allocator@H@std@@V?$Local@VValue@v8@@@v8@@PE$AAU?$IKeyValuePair@PE$AAVString@Platform@@PE$AAVObject@2@@Collections@Foundation@Windows@@@std@@EEAA?AV?$Local@VValue@v8@@@v8@@$$QEAPE$AAU?$IKeyValuePair@PE$AAVString@Platform@@PE$AAVObject@2@@Collections@Foundation@Windows@@@Z 0000000180029c20 f i _nodert_generated.obj
 0001:00028c40       ?_Move@?$_Func_impl@V<lambda_9992f129c8f6c76835a04b2eb18f630d>@@V?$allocator@H@std@@V?$Local@VValue@v8@@@v8@@PE$AAU?$IKeyValuePair@PE$AAVString@Platform@@PE$AAVObject@2@@Collections@Foundation@Windows@@@std@@EEAAPEAV?$_Func_base@V?$Local@VValue@v8@@@v8@@PE$AAU?$IKeyValuePair@PE$AAVString@Platform@@PE$AAVObject@2@@Collections@Foundation@Windows@@@2@PEAX@Z 0000000180029c40 f i _nodert_generated.obj
 0001:00028c40       ?_Copy@?$_Func_impl@V<lambda_9992f129c8f6c76835a04b2eb18f630d>@@V?$allocator@H@std@@V?$Local@VValue@v8@@@v8@@PE$AAU?$IKeyValuePair@PE$AAVString@Platform@@PE$AAVObject@2@@Collections@Foundation@Windows@@@std@@EEBAPEAV?$_Func_base@V?$Local@VValue@v8@@@v8@@PE$AAU?$IKeyValuePair@PE$AAVString@Platform@@PE$AAVObject@2@@Collections@Foundation@Windows@@@2@PEAX@Z 0000000180029c40 f i _nodert_generated.obj
 0001:00028c60       ?_Delete_this@?$_Func_impl@V<lambda_a04c7c9eaa4231a1dbbdd77e6ef06b31>@@V?$allocator@H@std@@V?$Local@VValue@v8@@@v8@@PE$AAVObject@Platform@@@std@@EEAAX_N@Z 0000000180029c60 f i _nodert_generated.obj
 0001:00028c60       ?_Delete_this@?$_Func_impl@V<lambda_a88ba152e427f8c2aef19e30e230b579>@@V?$allocator@H@std@@V?$Local@VValue@v8@@@v8@@PE$AAVObject@Platform@@@std@@EEAAX_N@Z 0000000180029c60 f i _nodert_generated.obj
 0001:00028c80       ?_Target_type@?$_Func_impl@V<lambda_a88ba152e427f8c2aef19e30e230b579>@@V?$allocator@H@std@@V?$Local@VValue@v8@@@v8@@PE$AAVObject@Platform@@@std@@EEBAAEBVtype_info@@XZ 0000000180029c80 f i _nodert_generated.obj
 0001:00028c90       ?_Do_call@?$_Func_impl@V<lambda_a04c7c9eaa4231a1dbbdd77e6ef06b31>@@V?$allocator@H@std@@V?$Local@VValue@v8@@@v8@@PE$AAVObject@Platform@@@std@@EEAA?AV?$Local@VValue@v8@@@v8@@$$QEAPE$AAVObject@Platform@@@Z 0000000180029c90 f i _nodert_generated.obj
 0001:00028c90       ?_Do_call@?$_Func_impl@V<lambda_a88ba152e427f8c2aef19e30e230b579>@@V?$allocator@H@std@@V?$Local@VValue@v8@@@v8@@PE$AAVObject@Platform@@@std@@EEAA?AV?$Local@VValue@v8@@@v8@@$$QEAPE$AAVObject@Platform@@@Z 0000000180029c90 f i _nodert_generated.obj
 0001:00028cb0       ?_Copy@?$_Func_impl@V<lambda_a88ba152e427f8c2aef19e30e230b579>@@V?$allocator@H@std@@V?$Local@VValue@v8@@@v8@@PE$AAVObject@Platform@@@std@@EEBAPEAV?$_Func_base@V?$Local@VValue@v8@@@v8@@PE$AAVObject@Platform@@@2@PEAX@Z 0000000180029cb0 f i _nodert_generated.obj
 0001:00028cb0       ?_Move@?$_Func_impl@V<lambda_a88ba152e427f8c2aef19e30e230b579>@@V?$allocator@H@std@@V?$Local@VValue@v8@@@v8@@PE$AAVObject@Platform@@@std@@EEAAPEAV?$_Func_base@V?$Local@VValue@v8@@@v8@@PE$AAVObject@Platform@@@2@PEAX@Z 0000000180029cb0 f i _nodert_generated.obj
 0001:00028cd0       ?_Delete_this@?$_Func_impl@V<lambda_d77f911d074d0f8d27a0b7999255def9>@@V?$allocator@H@std@@V?$Local@VValue@v8@@@v8@@PE$AAVString@Platform@@@std@@EEAAX_N@Z 0000000180029cd0 f i _nodert_generated.obj
 0001:00028cd0       ?_Delete_this@?$_Func_impl@V<lambda_4eec289ec0f4deac3a510f156040991f>@@V?$allocator@H@std@@V?$Local@VValue@v8@@@v8@@PE$AAVString@Platform@@@std@@EEAAX_N@Z 0000000180029cd0 f i _nodert_generated.obj
 0001:00028cd0       ?_Delete_this@?$_Func_impl@V<lambda_cbae3cbe999e6f44f1e055d9bfc9ed60>@@V?$allocator@H@std@@V?$Local@VValue@v8@@@v8@@PE$AAVString@Platform@@@std@@EEAAX_N@Z 0000000180029cd0 f i _nodert_generated.obj
 0001:00028cd0       ?_Delete_this@?$_Func_impl@V<lambda_2cdc3f7620d18cd97fbfc9d2d4690fa9>@@V?$allocator@H@std@@V?$Local@VValue@v8@@@v8@@PE$AAVString@Platform@@@std@@EEAAX_N@Z 0000000180029cd0 f i _nodert_generated.obj
 0001:00028cf0       ?_Target_type@?$_Func_impl@V<lambda_4eec289ec0f4deac3a510f156040991f>@@V?$allocator@H@std@@V?$Local@VValue@v8@@@v8@@PE$AAVString@Platform@@@std@@EEBAAEBVtype_info@@XZ 0000000180029cf0 f i _nodert_generated.obj
 0001:00028d00       ?_Do_call@?$_Func_impl@V<lambda_d77f911d074d0f8d27a0b7999255def9>@@V?$allocator@H@std@@V?$Local@VValue@v8@@@v8@@PE$AAVString@Platform@@@std@@EEAA?AV?$Local@VValue@v8@@@v8@@$$QEAPE$AAVString@Platform@@@Z 0000000180029d00 f i _nodert_generated.obj
 0001:00028d00       ?_Do_call@?$_Func_impl@V<lambda_2cdc3f7620d18cd97fbfc9d2d4690fa9>@@V?$allocator@H@std@@V?$Local@VValue@v8@@@v8@@PE$AAVString@Platform@@@std@@EEAA?AV?$Local@VValue@v8@@@v8@@$$QEAPE$AAVString@Platform@@@Z 0000000180029d00 f i _nodert_generated.obj
 0001:00028d00       ?_Do_call@?$_Func_impl@V<lambda_4eec289ec0f4deac3a510f156040991f>@@V?$allocator@H@std@@V?$Local@VValue@v8@@@v8@@PE$AAVString@Platform@@@std@@EEAA?AV?$Local@VValue@v8@@@v8@@$$QEAPE$AAVString@Platform@@@Z 0000000180029d00 f i _nodert_generated.obj
 0001:00028d00       ?_Do_call@?$_Func_impl@V<lambda_cbae3cbe999e6f44f1e055d9bfc9ed60>@@V?$allocator@H@std@@V?$Local@VValue@v8@@@v8@@PE$AAVString@Platform@@@std@@EEAA?AV?$Local@VValue@v8@@@v8@@$$QEAPE$AAVString@Platform@@@Z 0000000180029d00 f i _nodert_generated.obj
 0001:00028d70       ?_Move@?$_Func_impl@V<lambda_4eec289ec0f4deac3a510f156040991f>@@V?$allocator@H@std@@V?$Local@VValue@v8@@@v8@@PE$AAVString@Platform@@@std@@EEAAPEAV?$_Func_base@V?$Local@VValue@v8@@@v8@@PE$AAVString@Platform@@@2@PEAX@Z 0000000180029d70 f i _nodert_generated.obj
 0001:00028d70       ?_Copy@?$_Func_impl@V<lambda_4eec289ec0f4deac3a510f156040991f>@@V?$allocator@H@std@@V?$Local@VValue@v8@@@v8@@PE$AAVString@Platform@@@std@@EEBAPEAV?$_Func_base@V?$Local@VValue@v8@@@v8@@PE$AAVString@Platform@@@2@PEAX@Z 0000000180029d70 f i _nodert_generated.obj
 0001:00028d90       ?_Target_type@?$_Func_impl@V<lambda_a04c7c9eaa4231a1dbbdd77e6ef06b31>@@V?$allocator@H@std@@V?$Local@VValue@v8@@@v8@@PE$AAVObject@Platform@@@std@@EEBAAEBVtype_info@@XZ 0000000180029d90 f i _nodert_generated.obj
 0001:00028da0       ?_Copy@?$_Func_impl@V<lambda_a04c7c9eaa4231a1dbbdd77e6ef06b31>@@V?$allocator@H@std@@V?$Local@VValue@v8@@@v8@@PE$AAVObject@Platform@@@std@@EEBAPEAV?$_Func_base@V?$Local@VValue@v8@@@v8@@PE$AAVObject@Platform@@@2@PEAX@Z 0000000180029da0 f i _nodert_generated.obj
 0001:00028da0       ?_Move@?$_Func_impl@V<lambda_a04c7c9eaa4231a1dbbdd77e6ef06b31>@@V?$allocator@H@std@@V?$Local@VValue@v8@@@v8@@PE$AAVObject@Platform@@@std@@EEAAPEAV?$_Func_base@V?$Local@VValue@v8@@@v8@@PE$AAVObject@Platform@@@2@PEAX@Z 0000000180029da0 f i _nodert_generated.obj
 0001:00028dc0       ?_Delete_this@?$_Func_impl@V<lambda_bc24d93c4ae52aa761b3a50bef053f9e>@@V?$allocator@H@std@@PE$AAVString@Platform@@V?$Local@VValue@v8@@@v8@@@std@@EEAAX_N@Z 0000000180029dc0 f i _nodert_generated.obj
 0001:00028dc0       ?_Delete_this@?$_Func_impl@V<lambda_2898c1f942da5bb07e9851962fe02557>@@V?$allocator@H@std@@PE$AAVString@Platform@@V?$Local@VValue@v8@@@v8@@@std@@EEAAX_N@Z 0000000180029dc0 f i _nodert_generated.obj
 0001:00028de0       ?_Target_type@?$_Func_impl@V<lambda_bc24d93c4ae52aa761b3a50bef053f9e>@@V?$allocator@H@std@@PE$AAVString@Platform@@V?$Local@VValue@v8@@@v8@@@std@@EEBAAEBVtype_info@@XZ 0000000180029de0 f i _nodert_generated.obj
 0001:00028df0       ?_Do_call@?$_Func_impl@V<lambda_bc24d93c4ae52aa761b3a50bef053f9e>@@V?$allocator@H@std@@PE$AAVString@Platform@@V?$Local@VValue@v8@@@v8@@@std@@EEAAPE$AAVString@Platform@@$$QEAV?$Local@VValue@v8@@@v8@@@Z 0000000180029df0 f i _nodert_generated.obj
 0001:00028df0       ?_Do_call@?$_Func_impl@V<lambda_2898c1f942da5bb07e9851962fe02557>@@V?$allocator@H@std@@PE$AAVString@Platform@@V?$Local@VValue@v8@@@v8@@@std@@EEAAPE$AAVString@Platform@@$$QEAV?$Local@VValue@v8@@@v8@@@Z 0000000180029df0 f i _nodert_generated.obj
 0001:00028e30       ?_Copy@?$_Func_impl@V<lambda_bc24d93c4ae52aa761b3a50bef053f9e>@@V?$allocator@H@std@@PE$AAVString@Platform@@V?$Local@VValue@v8@@@v8@@@std@@EEBAPEAV?$_Func_base@PE$AAVString@Platform@@V?$Local@VValue@v8@@@v8@@@2@PEAX@Z 0000000180029e30 f i _nodert_generated.obj
 0001:00028e30       ?_Move@?$_Func_impl@V<lambda_bc24d93c4ae52aa761b3a50bef053f9e>@@V?$allocator@H@std@@PE$AAVString@Platform@@V?$Local@VValue@v8@@@v8@@@std@@EEAAPEAV?$_Func_base@PE$AAVString@Platform@@V?$Local@VValue@v8@@@v8@@@2@PEAX@Z 0000000180029e30 f i _nodert_generated.obj
 0001:00028e50       ?_Delete_this@?$_Func_impl@V<lambda_c40472a1a0562fc548f4647b082fe665>@@V?$allocator@H@std@@_NV?$Local@VValue@v8@@@v8@@@std@@EEAAX_N@Z 0000000180029e50 f i _nodert_generated.obj
 0001:00028e50       ?_Delete_this@?$_Func_impl@V<lambda_894a72664415ba88315eb1ec400df9cb>@@V?$allocator@H@std@@_NV?$Local@VValue@v8@@@v8@@@std@@EEAAX_N@Z 0000000180029e50 f i _nodert_generated.obj
 0001:00028e50       ?_Delete_this@?$_Func_impl@V<lambda_1de5d7763f0249f029274f13d652e2bc>@@V?$allocator@H@std@@_NV?$Local@VValue@v8@@@v8@@@std@@EEAAX_N@Z 0000000180029e50 f i _nodert_generated.obj
 0001:00028e50       ?_Delete_this@?$_Func_impl@V<lambda_90430bfa44bd46a48b7e1e4e5d6cf197>@@V?$allocator@H@std@@_NV?$Local@VValue@v8@@@v8@@@std@@EEAAX_N@Z 0000000180029e50 f i _nodert_generated.obj
 0001:00028e50       ?_Delete_this@?$_Func_impl@V<lambda_11ef064afb8153978348c7ae537beec7>@@V?$allocator@H@std@@_NV?$Local@VValue@v8@@@v8@@@std@@EEAAX_N@Z 0000000180029e50 f i _nodert_generated.obj
 0001:00028e50       ?_Delete_this@?$_Func_impl@V<lambda_cf258e217e1de5665a08cbbb30d6b9d5>@@V?$allocator@H@std@@_NV?$Local@VValue@v8@@@v8@@@std@@EEAAX_N@Z 0000000180029e50 f i _nodert_generated.obj
 0001:00028e70       ?_Target_type@?$_Func_impl@V<lambda_cf258e217e1de5665a08cbbb30d6b9d5>@@V?$allocator@H@std@@_NV?$Local@VValue@v8@@@v8@@@std@@EEBAAEBVtype_info@@XZ 0000000180029e70 f i _nodert_generated.obj
 0001:00028e80       ?_Do_call@?$_Func_impl@V<lambda_cf258e217e1de5665a08cbbb30d6b9d5>@@V?$allocator@H@std@@_NV?$Local@VValue@v8@@@v8@@@std@@EEAA_N$$QEAV?$Local@VValue@v8@@@v8@@@Z 0000000180029e80 f i _nodert_generated.obj
 0001:00028e80       ?_Do_call@?$_Func_impl@V<lambda_1de5d7763f0249f029274f13d652e2bc>@@V?$allocator@H@std@@_NV?$Local@VValue@v8@@@v8@@@std@@EEAA_N$$QEAV?$Local@VValue@v8@@@v8@@@Z 0000000180029e80 f i _nodert_generated.obj
 0001:00028e80       ?_Do_call@?$_Func_impl@V<lambda_894a72664415ba88315eb1ec400df9cb>@@V?$allocator@H@std@@_NV?$Local@VValue@v8@@@v8@@@std@@EEAA_N$$QEAV?$Local@VValue@v8@@@v8@@@Z 0000000180029e80 f i _nodert_generated.obj
 0001:00028eb0       ?_Copy@?$_Func_impl@V<lambda_cf258e217e1de5665a08cbbb30d6b9d5>@@V?$allocator@H@std@@_NV?$Local@VValue@v8@@@v8@@@std@@EEBAPEAV?$_Func_base@_NV?$Local@VValue@v8@@@v8@@@2@PEAX@Z 0000000180029eb0 f i _nodert_generated.obj
 0001:00028eb0       ?_Move@?$_Func_impl@V<lambda_cf258e217e1de5665a08cbbb30d6b9d5>@@V?$allocator@H@std@@_NV?$Local@VValue@v8@@@v8@@@std@@EEAAPEAV?$_Func_base@_NV?$Local@VValue@v8@@@v8@@@2@PEAX@Z 0000000180029eb0 f i _nodert_generated.obj
 0001:00028ed0       ?_Target_type@?$_Func_impl@V<lambda_cbae3cbe999e6f44f1e055d9bfc9ed60>@@V?$allocator@H@std@@V?$Local@VValue@v8@@@v8@@PE$AAVString@Platform@@@std@@EEBAAEBVtype_info@@XZ 0000000180029ed0 f i _nodert_generated.obj
 0001:00028ee0       ?_Move@?$_Func_impl@V<lambda_cbae3cbe999e6f44f1e055d9bfc9ed60>@@V?$allocator@H@std@@V?$Local@VValue@v8@@@v8@@PE$AAVString@Platform@@@std@@EEAAPEAV?$_Func_base@V?$Local@VValue@v8@@@v8@@PE$AAVString@Platform@@@2@PEAX@Z 0000000180029ee0 f i _nodert_generated.obj
 0001:00028ee0       ?_Copy@?$_Func_impl@V<lambda_cbae3cbe999e6f44f1e055d9bfc9ed60>@@V?$allocator@H@std@@V?$Local@VValue@v8@@@v8@@PE$AAVString@Platform@@@std@@EEBAPEAV?$_Func_base@V?$Local@VValue@v8@@@v8@@PE$AAVString@Platform@@@2@PEAX@Z 0000000180029ee0 f i _nodert_generated.obj
 0001:00028f00       ?_Delete_this@?$_Func_impl@V<lambda_c5918b628fcce4ef3413db30e465b55f>@@V?$allocator@H@std@@PE$AAVPasswordCredential@Credentials@Security@Windows@@V?$Local@VValue@v8@@@v8@@@std@@EEAAX_N@Z 0000000180029f00 f i _nodert_generated.obj
 0001:00028f00       ?_Delete_this@?$_Func_impl@V<lambda_c8cb0b9408af423b3d444d18815ef67e>@@V?$allocator@H@std@@PE$AAVPasswordCredential@Credentials@Security@Windows@@V?$Local@VValue@v8@@@v8@@@std@@EEAAX_N@Z 0000000180029f00 f i _nodert_generated.obj
 0001:00028f00       ?_Delete_this@?$_Func_impl@V<lambda_b96afc2058126c8419999d664580aa66>@@V?$allocator@H@std@@PE$AAVPasswordCredential@Credentials@Security@Windows@@V?$Local@VValue@v8@@@v8@@@std@@EEAAX_N@Z 0000000180029f00 f i _nodert_generated.obj
 0001:00028f20       ?_Target_type@?$_Func_impl@V<lambda_b96afc2058126c8419999d664580aa66>@@V?$allocator@H@std@@PE$AAVPasswordCredential@Credentials@Security@Windows@@V?$Local@VValue@v8@@@v8@@@std@@EEBAAEBVtype_info@@XZ 0000000180029f20 f i _nodert_generated.obj
 0001:00028f30       ?_Do_call@?$_Func_impl@V<lambda_b96afc2058126c8419999d664580aa66>@@V?$allocator@H@std@@PE$AAVPasswordCredential@Credentials@Security@Windows@@V?$Local@VValue@v8@@@v8@@@std@@EEAAPE$AAVPasswordCredential@Credentials@Security@Windows@@$$QEAV?$Local@VValue@v8@@@v8@@@Z 0000000180029f30 f i _nodert_generated.obj
 0001:00028f30       ?_Do_call@?$_Func_impl@V<lambda_c8cb0b9408af423b3d444d18815ef67e>@@V?$allocator@H@std@@PE$AAVPasswordCredential@Credentials@Security@Windows@@V?$Local@VValue@v8@@@v8@@@std@@EEAAPE$AAVPasswordCredential@Credentials@Security@Windows@@$$QEAV?$Local@VValue@v8@@@v8@@@Z 0000000180029f30 f i _nodert_generated.obj
 0001:00028f30       ?_Do_call@?$_Func_impl@V<lambda_c5918b628fcce4ef3413db30e465b55f>@@V?$allocator@H@std@@PE$AAVPasswordCredential@Credentials@Security@Windows@@V?$Local@VValue@v8@@@v8@@@std@@EEAAPE$AAVPasswordCredential@Credentials@Security@Windows@@$$QEAV?$Local@VValue@v8@@@v8@@@Z 0000000180029f30 f i _nodert_generated.obj
 0001:00028f60       ?_Copy@?$_Func_impl@V<lambda_b96afc2058126c8419999d664580aa66>@@V?$allocator@H@std@@PE$AAVPasswordCredential@Credentials@Security@Windows@@V?$Local@VValue@v8@@@v8@@@std@@EEBAPEAV?$_Func_base@PE$AAVPasswordCredential@Credentials@Security@Windows@@V?$Local@VValue@v8@@@v8@@@2@PEAX@Z 0000000180029f60 f i _nodert_generated.obj
 0001:00028f60       ?_Move@?$_Func_impl@V<lambda_b96afc2058126c8419999d664580aa66>@@V?$allocator@H@std@@PE$AAVPasswordCredential@Credentials@Security@Windows@@V?$Local@VValue@v8@@@v8@@@std@@EEAAPEAV?$_Func_base@PE$AAVPasswordCredential@Credentials@Security@Windows@@V?$Local@VValue@v8@@@v8@@@2@PEAX@Z 0000000180029f60 f i _nodert_generated.obj
 0001:00028f80       ?_Target_type@?$_Func_impl@V<lambda_90430bfa44bd46a48b7e1e4e5d6cf197>@@V?$allocator@H@std@@_NV?$Local@VValue@v8@@@v8@@@std@@EEBAAEBVtype_info@@XZ 0000000180029f80 f i _nodert_generated.obj
 0001:00028f90       ?_Do_call@?$_Func_impl@V<lambda_c40472a1a0562fc548f4647b082fe665>@@V?$allocator@H@std@@_NV?$Local@VValue@v8@@@v8@@@std@@EEAA_N$$QEAV?$Local@VValue@v8@@@v8@@@Z 0000000180029f90 f i _nodert_generated.obj
 0001:00028f90       ?_Do_call@?$_Func_impl@V<lambda_11ef064afb8153978348c7ae537beec7>@@V?$allocator@H@std@@_NV?$Local@VValue@v8@@@v8@@@std@@EEAA_N$$QEAV?$Local@VValue@v8@@@v8@@@Z 0000000180029f90 f i _nodert_generated.obj
 0001:00028f90       ?_Do_call@?$_Func_impl@V<lambda_90430bfa44bd46a48b7e1e4e5d6cf197>@@V?$allocator@H@std@@_NV?$Local@VValue@v8@@@v8@@@std@@EEAA_N$$QEAV?$Local@VValue@v8@@@v8@@@Z 0000000180029f90 f i _nodert_generated.obj
 0001:00028fa0       ?_Move@?$_Func_impl@V<lambda_90430bfa44bd46a48b7e1e4e5d6cf197>@@V?$allocator@H@std@@_NV?$Local@VValue@v8@@@v8@@@std@@EEAAPEAV?$_Func_base@_NV?$Local@VValue@v8@@@v8@@@2@PEAX@Z 0000000180029fa0 f i _nodert_generated.obj
 0001:00028fa0       ?_Copy@?$_Func_impl@V<lambda_90430bfa44bd46a48b7e1e4e5d6cf197>@@V?$allocator@H@std@@_NV?$Local@VValue@v8@@@v8@@@std@@EEBAPEAV?$_Func_base@_NV?$Local@VValue@v8@@@v8@@@2@PEAX@Z 0000000180029fa0 f i _nodert_generated.obj
 0001:00028fc0       ?_Delete_this@?$_Func_impl@V<lambda_c52071c61d3bfc4666f01eb279077e47>@@V?$allocator@H@std@@V?$Local@VValue@v8@@@v8@@PE$AAVPasswordCredential@Credentials@Security@Windows@@@std@@EEAAX_N@Z 0000000180029fc0 f i _nodert_generated.obj
 0001:00028fc0       ?_Delete_this@?$_Func_impl@V<lambda_6c4ca31976c4ddd1031340f2696b2738>@@V?$allocator@H@std@@V?$Local@VValue@v8@@@v8@@PE$AAVPasswordCredential@Credentials@Security@Windows@@@std@@EEAAX_N@Z 0000000180029fc0 f i _nodert_generated.obj
 0001:00028fc0       ?_Delete_this@?$_Func_impl@V<lambda_242a2332dc3f1b4ea74cd4d02a1c6efe>@@V?$allocator@H@std@@V?$Local@VValue@v8@@@v8@@PE$AAVPasswordCredential@Credentials@Security@Windows@@@std@@EEAAX_N@Z 0000000180029fc0 f i _nodert_generated.obj
 0001:00028fe0       ?_Target_type@?$_Func_impl@V<lambda_6c4ca31976c4ddd1031340f2696b2738>@@V?$allocator@H@std@@V?$Local@VValue@v8@@@v8@@PE$AAVPasswordCredential@Credentials@Security@Windows@@@std@@EEBAAEBVtype_info@@XZ 0000000180029fe0 f i _nodert_generated.obj
 0001:00028ff0       ?_Do_call@?$_Func_impl@V<lambda_6c4ca31976c4ddd1031340f2696b2738>@@V?$allocator@H@std@@V?$Local@VValue@v8@@@v8@@PE$AAVPasswordCredential@Credentials@Security@Windows@@@std@@EEAA?AV?$Local@VValue@v8@@@v8@@$$QEAPE$AAVPasswordCredential@Credentials@Security@Windows@@@Z 0000000180029ff0 f i _nodert_generated.obj
 0001:00028ff0       ?_Do_call@?$_Func_impl@V<lambda_c52071c61d3bfc4666f01eb279077e47>@@V?$allocator@H@std@@V?$Local@VValue@v8@@@v8@@PE$AAVPasswordCredential@Credentials@Security@Windows@@@std@@EEAA?AV?$Local@VValue@v8@@@v8@@$$QEAPE$AAVPasswordCredential@Credentials@Security@Windows@@@Z 0000000180029ff0 f i _nodert_generated.obj
 0001:00028ff0       ?_Do_call@?$_Func_impl@V<lambda_242a2332dc3f1b4ea74cd4d02a1c6efe>@@V?$allocator@H@std@@V?$Local@VValue@v8@@@v8@@PE$AAVPasswordCredential@Credentials@Security@Windows@@@std@@EEAA?AV?$Local@VValue@v8@@@v8@@$$QEAPE$AAVPasswordCredential@Credentials@Security@Windows@@@Z 0000000180029ff0 f i _nodert_generated.obj
 0001:00029010       ?_Copy@?$_Func_impl@V<lambda_6c4ca31976c4ddd1031340f2696b2738>@@V?$allocator@H@std@@V?$Local@VValue@v8@@@v8@@PE$AAVPasswordCredential@Credentials@Security@Windows@@@std@@EEBAPEAV?$_Func_base@V?$Local@VValue@v8@@@v8@@PE$AAVPasswordCredential@Credentials@Security@Windows@@@2@PEAX@Z 000000018002a010 f i _nodert_generated.obj
 0001:00029010       ?_Move@?$_Func_impl@V<lambda_6c4ca31976c4ddd1031340f2696b2738>@@V?$allocator@H@std@@V?$Local@VValue@v8@@@v8@@PE$AAVPasswordCredential@Credentials@Security@Windows@@@std@@EEAAPEAV?$_Func_base@V?$Local@VValue@v8@@@v8@@PE$AAVPasswordCredential@Credentials@Security@Windows@@@2@PEAX@Z 000000018002a010 f i _nodert_generated.obj
 0001:00029030       ?_Target_type@?$_Func_impl@V<lambda_c8cb0b9408af423b3d444d18815ef67e>@@V?$allocator@H@std@@PE$AAVPasswordCredential@Credentials@Security@Windows@@V?$Local@VValue@v8@@@v8@@@std@@EEBAAEBVtype_info@@XZ 000000018002a030 f i _nodert_generated.obj
 0001:00029040       ?_Move@?$_Func_impl@V<lambda_c8cb0b9408af423b3d444d18815ef67e>@@V?$allocator@H@std@@PE$AAVPasswordCredential@Credentials@Security@Windows@@V?$Local@VValue@v8@@@v8@@@std@@EEAAPEAV?$_Func_base@PE$AAVPasswordCredential@Credentials@Security@Windows@@V?$Local@VValue@v8@@@v8@@@2@PEAX@Z 000000018002a040 f i _nodert_generated.obj
 0001:00029040       ?_Copy@?$_Func_impl@V<lambda_c8cb0b9408af423b3d444d18815ef67e>@@V?$allocator@H@std@@PE$AAVPasswordCredential@Credentials@Security@Windows@@V?$Local@VValue@v8@@@v8@@@std@@EEBAPEAV?$_Func_base@PE$AAVPasswordCredential@Credentials@Security@Windows@@V?$Local@VValue@v8@@@v8@@@2@PEAX@Z 000000018002a040 f i _nodert_generated.obj
 0001:00029060       ?_Target_type@?$_Func_impl@V<lambda_11ef064afb8153978348c7ae537beec7>@@V?$allocator@H@std@@_NV?$Local@VValue@v8@@@v8@@@std@@EEBAAEBVtype_info@@XZ 000000018002a060 f i _nodert_generated.obj
 0001:00029070       ?_Copy@?$_Func_impl@V<lambda_11ef064afb8153978348c7ae537beec7>@@V?$allocator@H@std@@_NV?$Local@VValue@v8@@@v8@@@std@@EEBAPEAV?$_Func_base@_NV?$Local@VValue@v8@@@v8@@@2@PEAX@Z 000000018002a070 f i _nodert_generated.obj
 0001:00029070       ?_Move@?$_Func_impl@V<lambda_11ef064afb8153978348c7ae537beec7>@@V?$allocator@H@std@@_NV?$Local@VValue@v8@@@v8@@@std@@EEAAPEAV?$_Func_base@_NV?$Local@VValue@v8@@@v8@@@2@PEAX@Z 000000018002a070 f i _nodert_generated.obj
 0001:00029090       ?_Target_type@?$_Func_impl@V<lambda_c52071c61d3bfc4666f01eb279077e47>@@V?$allocator@H@std@@V?$Local@VValue@v8@@@v8@@PE$AAVPasswordCredential@Credentials@Security@Windows@@@std@@EEBAAEBVtype_info@@XZ 000000018002a090 f i _nodert_generated.obj
 0001:000290a0       ?_Move@?$_Func_impl@V<lambda_c52071c61d3bfc4666f01eb279077e47>@@V?$allocator@H@std@@V?$Local@VValue@v8@@@v8@@PE$AAVPasswordCredential@Credentials@Security@Windows@@@std@@EEAAPEAV?$_Func_base@V?$Local@VValue@v8@@@v8@@PE$AAVPasswordCredential@Credentials@Security@Windows@@@2@PEAX@Z 000000018002a0a0 f i _nodert_generated.obj
 0001:000290a0       ?_Copy@?$_Func_impl@V<lambda_c52071c61d3bfc4666f01eb279077e47>@@V?$allocator@H@std@@V?$Local@VValue@v8@@@v8@@PE$AAVPasswordCredential@Credentials@Security@Windows@@@std@@EEBAPEAV?$_Func_base@V?$Local@VValue@v8@@@v8@@PE$AAVPasswordCredential@Credentials@Security@Windows@@@2@PEAX@Z 000000018002a0a0 f i _nodert_generated.obj
 0001:000290c0       ?_Target_type@?$_Func_impl@V<lambda_c5918b628fcce4ef3413db30e465b55f>@@V?$allocator@H@std@@PE$AAVPasswordCredential@Credentials@Security@Windows@@V?$Local@VValue@v8@@@v8@@@std@@EEBAAEBVtype_info@@XZ 000000018002a0c0 f i _nodert_generated.obj
 0001:000290d0       ?_Move@?$_Func_impl@V<lambda_c5918b628fcce4ef3413db30e465b55f>@@V?$allocator@H@std@@PE$AAVPasswordCredential@Credentials@Security@Windows@@V?$Local@VValue@v8@@@v8@@@std@@EEAAPEAV?$_Func_base@PE$AAVPasswordCredential@Credentials@Security@Windows@@V?$Local@VValue@v8@@@v8@@@2@PEAX@Z 000000018002a0d0 f i _nodert_generated.obj
 0001:000290d0       ?_Copy@?$_Func_impl@V<lambda_c5918b628fcce4ef3413db30e465b55f>@@V?$allocator@H@std@@PE$AAVPasswordCredential@Credentials@Security@Windows@@V?$Local@VValue@v8@@@v8@@@std@@EEBAPEAV?$_Func_base@PE$AAVPasswordCredential@Credentials@Security@Windows@@V?$Local@VValue@v8@@@v8@@@2@PEAX@Z 000000018002a0d0 f i _nodert_generated.obj
 0001:000290f0       ?_Target_type@?$_Func_impl@V<lambda_c40472a1a0562fc548f4647b082fe665>@@V?$allocator@H@std@@_NV?$Local@VValue@v8@@@v8@@@std@@EEBAAEBVtype_info@@XZ 000000018002a0f0 f i _nodert_generated.obj
 0001:00029100       ?_Copy@?$_Func_impl@V<lambda_c40472a1a0562fc548f4647b082fe665>@@V?$allocator@H@std@@_NV?$Local@VValue@v8@@@v8@@@std@@EEBAPEAV?$_Func_base@_NV?$Local@VValue@v8@@@v8@@@2@PEAX@Z 000000018002a100 f i _nodert_generated.obj
 0001:00029100       ?_Move@?$_Func_impl@V<lambda_c40472a1a0562fc548f4647b082fe665>@@V?$allocator@H@std@@_NV?$Local@VValue@v8@@@v8@@@std@@EEAAPEAV?$_Func_base@_NV?$Local@VValue@v8@@@v8@@@2@PEAX@Z 000000018002a100 f i _nodert_generated.obj
 0001:00029120       ?_Target_type@?$_Func_impl@V<lambda_242a2332dc3f1b4ea74cd4d02a1c6efe>@@V?$allocator@H@std@@V?$Local@VValue@v8@@@v8@@PE$AAVPasswordCredential@Credentials@Security@Windows@@@std@@EEBAAEBVtype_info@@XZ 000000018002a120 f i _nodert_generated.obj
 0001:00029130       ?_Copy@?$_Func_impl@V<lambda_242a2332dc3f1b4ea74cd4d02a1c6efe>@@V?$allocator@H@std@@V?$Local@VValue@v8@@@v8@@PE$AAVPasswordCredential@Credentials@Security@Windows@@@std@@EEBAPEAV?$_Func_base@V?$Local@VValue@v8@@@v8@@PE$AAVPasswordCredential@Credentials@Security@Windows@@@2@PEAX@Z 000000018002a130 f i _nodert_generated.obj
 0001:00029130       ?_Move@?$_Func_impl@V<lambda_242a2332dc3f1b4ea74cd4d02a1c6efe>@@V?$allocator@H@std@@V?$Local@VValue@v8@@@v8@@PE$AAVPasswordCredential@Credentials@Security@Windows@@@std@@EEAAPEAV?$_Func_base@V?$Local@VValue@v8@@@v8@@PE$AAVPasswordCredential@Credentials@Security@Windows@@@2@PEAX@Z 000000018002a130 f i _nodert_generated.obj
 0001:00029150       ?_Target_type@?$_Func_impl@V<lambda_2cdc3f7620d18cd97fbfc9d2d4690fa9>@@V?$allocator@H@std@@V?$Local@VValue@v8@@@v8@@PE$AAVString@Platform@@@std@@EEBAAEBVtype_info@@XZ 000000018002a150 f i _nodert_generated.obj
 0001:00029160       ?_Copy@?$_Func_impl@V<lambda_2cdc3f7620d18cd97fbfc9d2d4690fa9>@@V?$allocator@H@std@@V?$Local@VValue@v8@@@v8@@PE$AAVString@Platform@@@std@@EEBAPEAV?$_Func_base@V?$Local@VValue@v8@@@v8@@PE$AAVString@Platform@@@2@PEAX@Z 000000018002a160 f i _nodert_generated.obj
 0001:00029160       ?_Move@?$_Func_impl@V<lambda_2cdc3f7620d18cd97fbfc9d2d4690fa9>@@V?$allocator@H@std@@V?$Local@VValue@v8@@@v8@@PE$AAVString@Platform@@@std@@EEAAPEAV?$_Func_base@V?$Local@VValue@v8@@@v8@@PE$AAVString@Platform@@@2@PEAX@Z 000000018002a160 f i _nodert_generated.obj
 0001:00029180       ?_Target_type@?$_Func_impl@V<lambda_2898c1f942da5bb07e9851962fe02557>@@V?$allocator@H@std@@PE$AAVString@Platform@@V?$Local@VValue@v8@@@v8@@@std@@EEBAAEBVtype_info@@XZ 000000018002a180 f i _nodert_generated.obj
 0001:00029190       ?_Copy@?$_Func_impl@V<lambda_2898c1f942da5bb07e9851962fe02557>@@V?$allocator@H@std@@PE$AAVString@Platform@@V?$Local@VValue@v8@@@v8@@@std@@EEBAPEAV?$_Func_base@PE$AAVString@Platform@@V?$Local@VValue@v8@@@v8@@@2@PEAX@Z 000000018002a190 f i _nodert_generated.obj
 0001:00029190       ?_Move@?$_Func_impl@V<lambda_2898c1f942da5bb07e9851962fe02557>@@V?$allocator@H@std@@PE$AAVString@Platform@@V?$Local@VValue@v8@@@v8@@@std@@EEAAPEAV?$_Func_base@PE$AAVString@Platform@@V?$Local@VValue@v8@@@v8@@@2@PEAX@Z 000000018002a190 f i _nodert_generated.obj
 0001:000291b0       ?_Target_type@?$_Func_impl@V<lambda_894a72664415ba88315eb1ec400df9cb>@@V?$allocator@H@std@@_NV?$Local@VValue@v8@@@v8@@@std@@EEBAAEBVtype_info@@XZ 000000018002a1b0 f i _nodert_generated.obj
 0001:000291c0       ?_Move@?$_Func_impl@V<lambda_894a72664415ba88315eb1ec400df9cb>@@V?$allocator@H@std@@_NV?$Local@VValue@v8@@@v8@@@std@@EEAAPEAV?$_Func_base@_NV?$Local@VValue@v8@@@v8@@@2@PEAX@Z 000000018002a1c0 f i _nodert_generated.obj
 0001:000291c0       ?_Copy@?$_Func_impl@V<lambda_894a72664415ba88315eb1ec400df9cb>@@V?$allocator@H@std@@_NV?$Local@VValue@v8@@@v8@@@std@@EEBAPEAV?$_Func_base@_NV?$Local@VValue@v8@@@v8@@@2@PEAX@Z 000000018002a1c0 f i _nodert_generated.obj
 0001:000291e0       ?_Target_type@?$_Func_impl@V<lambda_d77f911d074d0f8d27a0b7999255def9>@@V?$allocator@H@std@@V?$Local@VValue@v8@@@v8@@PE$AAVString@Platform@@@std@@EEBAAEBVtype_info@@XZ 000000018002a1e0 f i _nodert_generated.obj
 0001:000291f0       ?_Copy@?$_Func_impl@V<lambda_d77f911d074d0f8d27a0b7999255def9>@@V?$allocator@H@std@@V?$Local@VValue@v8@@@v8@@PE$AAVString@Platform@@@std@@EEBAPEAV?$_Func_base@V?$Local@VValue@v8@@@v8@@PE$AAVString@Platform@@@2@PEAX@Z 000000018002a1f0 f i _nodert_generated.obj
 0001:000291f0       ?_Move@?$_Func_impl@V<lambda_d77f911d074d0f8d27a0b7999255def9>@@V?$allocator@H@std@@V?$Local@VValue@v8@@@v8@@PE$AAVString@Platform@@@std@@EEAAPEAV?$_Func_base@V?$Local@VValue@v8@@@v8@@PE$AAVString@Platform@@@2@PEAX@Z 000000018002a1f0 f i _nodert_generated.obj
 0001:00029210       ?_Delete_this@?$_Func_impl@V<lambda_4c6397284cf12c71bb896defe34c667b>@@V?$allocator@H@std@@XV?$function@$$A6AXHPEAV?$Local@VValue@v8@@@v8@@@Z@3@@std@@EEAAX_N@Z 000000018002a210 f i _nodert_generated.obj
 0001:00029270       ?_Target_type@?$_Func_impl@V<lambda_4c6397284cf12c71bb896defe34c667b>@@V?$allocator@H@std@@XV?$function@$$A6AXHPEAV?$Local@VValue@v8@@@v8@@@Z@3@@std@@EEBAAEBVtype_info@@XZ 000000018002a270 f i _nodert_generated.obj
 0001:00029280       ?_Do_call@?$_Func_impl@V<lambda_c4cafe4fdaee96e19a280e8ee0fbeed9>@@V?$allocator@H@std@@XV?$function@$$A6AXHPEAV?$Local@VValue@v8@@@v8@@@Z@3@@std@@EEAAX$$QEAV?$function@$$A6AXHPEAV?$Local@VValue@v8@@@v8@@@Z@2@@Z 000000018002a280 f i _nodert_generated.obj
 0001:00029280       ?_Do_call@?$_Func_impl@V<lambda_5acfe61f3b4ae200150b963d3f33cedd>@@V?$allocator@H@std@@XV?$function@$$A6AXHPEAV?$Local@VValue@v8@@@v8@@@Z@3@@std@@EEAAX$$QEAV?$function@$$A6AXHPEAV?$Local@VValue@v8@@@v8@@@Z@2@@Z 000000018002a280 f i _nodert_generated.obj
 0001:00029280       ?_Do_call@?$_Func_impl@V<lambda_bb67c431194e1c455a3fe0f8878e740c>@@V?$allocator@H@std@@XV?$function@$$A6AXHPEAV?$Local@VValue@v8@@@v8@@@Z@3@@std@@EEAAX$$QEAV?$function@$$A6AXHPEAV?$Local@VValue@v8@@@v8@@@Z@2@@Z 000000018002a280 f i _nodert_generated.obj
 0001:00029280       ?_Do_call@?$_Func_impl@V<lambda_000a9465ab1c2d38e4219958767cbf46>@@V?$allocator@H@std@@XV?$function@$$A6AXHPEAV?$Local@VValue@v8@@@v8@@@Z@3@@std@@EEAAX$$QEAV?$function@$$A6AXHPEAV?$Local@VValue@v8@@@v8@@@Z@2@@Z 000000018002a280 f i _nodert_generated.obj
 0001:00029280       ?_Do_call@?$_Func_impl@V<lambda_4c6397284cf12c71bb896defe34c667b>@@V?$allocator@H@std@@XV?$function@$$A6AXHPEAV?$Local@VValue@v8@@@v8@@@Z@3@@std@@EEAAX$$QEAV?$function@$$A6AXHPEAV?$Local@VValue@v8@@@v8@@@Z@2@@Z 000000018002a280 f i _nodert_generated.obj
 0001:00029280       ?_Do_call@?$_Func_impl@V<lambda_fb18f48fd1b9342714bb64f8d4fd3c4c>@@V?$allocator@H@std@@XV?$function@$$A6AXHPEAV?$Local@VValue@v8@@@v8@@@Z@3@@std@@EEAAX$$QEAV?$function@$$A6AXHPEAV?$Local@VValue@v8@@@v8@@@Z@2@@Z 000000018002a280 f i _nodert_generated.obj
 0001:00029280       ?_Do_call@?$_Func_impl@V<lambda_9236e82175b1e8f0c25554990d6ee763>@@V?$allocator@H@std@@XV?$function@$$A6AXHPEAV?$Local@VValue@v8@@@v8@@@Z@3@@std@@EEAAX$$QEAV?$function@$$A6AXHPEAV?$Local@VValue@v8@@@v8@@@Z@2@@Z 000000018002a280 f i _nodert_generated.obj
 0001:00029280       ?_Do_call@?$_Func_impl@V<lambda_a4bb01c3bfce7d486672a1a98d0662e5>@@V?$allocator@H@std@@XV?$function@$$A6AXHPEAV?$Local@VValue@v8@@@v8@@@Z@3@@std@@EEAAX$$QEAV?$function@$$A6AXHPEAV?$Local@VValue@v8@@@v8@@@Z@2@@Z 000000018002a280 f i _nodert_generated.obj
 0001:00029280       ?_Do_call@?$_Func_impl@V<lambda_4547bc666ca5e819e2f94520da23e0f5>@@V?$allocator@H@std@@XV?$function@$$A6AXHPEAV?$Local@VValue@v8@@@v8@@@Z@3@@std@@EEAAX$$QEAV?$function@$$A6AXHPEAV?$Local@VValue@v8@@@v8@@@Z@2@@Z 000000018002a280 f i _nodert_generated.obj
 0001:000292b0       ?_Move@?$_Func_impl@V<lambda_4c6397284cf12c71bb896defe34c667b>@@V?$allocator@H@std@@XV?$function@$$A6AXHPEAV?$Local@VValue@v8@@@v8@@@Z@3@@std@@EEAAPEAV?$_Func_base@XV?$function@$$A6AXHPEAV?$Local@VValue@v8@@@v8@@@Z@std@@@2@PEAX@Z 000000018002a2b0 f i _nodert_generated.obj
 0001:000292b0       ?_Copy@?$_Func_impl@V<lambda_4c6397284cf12c71bb896defe34c667b>@@V?$allocator@H@std@@XV?$function@$$A6AXHPEAV?$Local@VValue@v8@@@v8@@@Z@3@@std@@EEBAPEAV?$_Func_base@XV?$function@$$A6AXHPEAV?$Local@VValue@v8@@@v8@@@Z@std@@@2@PEAX@Z 000000018002a2b0 f i _nodert_generated.obj
 0001:00029300       ?_Delete_this@?$_Func_impl@V<lambda_b5018d04d4e39eb5f75ec04d69f7427c>@@V?$allocator@H@std@@XV?$function@$$A6AXHPEAV?$Local@VValue@v8@@@v8@@@Z@3@@std@@EEAAX_N@Z 000000018002a300 f i _nodert_generated.obj
 0001:00029300       ?_Delete_this@?$_Func_impl@V<lambda_279101090ce1881c12ef39046e07b27f>@@V?$allocator@H@std@@XV?$function@$$A6AXHPEAV?$Local@VValue@v8@@@v8@@@Z@3@@std@@EEAAX_N@Z 000000018002a300 f i _nodert_generated.obj
 0001:00029300       ?_Delete_this@?$_Func_impl@V<lambda_b07158aeb02b1c6d05124a961921958e>@@V?$allocator@H@std@@XV?$function@$$A6AXHPEAV?$Local@VValue@v8@@@v8@@@Z@3@@std@@EEAAX_N@Z 000000018002a300 f i _nodert_generated.obj
 0001:00029300       ?_Delete_this@?$_Func_impl@V<lambda_b8e671108c61d14db13f18bcf080d2fc>@@V?$allocator@H@std@@XV?$function@$$A6AXHPEAV?$Local@VValue@v8@@@v8@@@Z@3@@std@@EEAAX_N@Z 000000018002a300 f i _nodert_generated.obj
 0001:00029320       ?_Target_type@?$_Func_impl@V<lambda_279101090ce1881c12ef39046e07b27f>@@V?$allocator@H@std@@XV?$function@$$A6AXHPEAV?$Local@VValue@v8@@@v8@@@Z@3@@std@@EEBAAEBVtype_info@@XZ 000000018002a320 f i _nodert_generated.obj
 0001:00029330       ?_Do_call@?$_Func_impl@V<lambda_279101090ce1881c12ef39046e07b27f>@@V?$allocator@H@std@@XV?$function@$$A6AXHPEAV?$Local@VValue@v8@@@v8@@@Z@3@@std@@EEAAX$$QEAV?$function@$$A6AXHPEAV?$Local@VValue@v8@@@v8@@@Z@2@@Z 000000018002a330 f i _nodert_generated.obj
 0001:00029330       ?_Do_call@?$_Func_impl@V<lambda_b8e671108c61d14db13f18bcf080d2fc>@@V?$allocator@H@std@@XV?$function@$$A6AXHPEAV?$Local@VValue@v8@@@v8@@@Z@3@@std@@EEAAX$$QEAV?$function@$$A6AXHPEAV?$Local@VValue@v8@@@v8@@@Z@2@@Z 000000018002a330 f i _nodert_generated.obj
 0001:00029330       ?_Do_call@?$_Func_impl@V<lambda_b5018d04d4e39eb5f75ec04d69f7427c>@@V?$allocator@H@std@@XV?$function@$$A6AXHPEAV?$Local@VValue@v8@@@v8@@@Z@3@@std@@EEAAX$$QEAV?$function@$$A6AXHPEAV?$Local@VValue@v8@@@v8@@@Z@2@@Z 000000018002a330 f i _nodert_generated.obj
 0001:00029350       ?_Copy@?$_Func_impl@V<lambda_279101090ce1881c12ef39046e07b27f>@@V?$allocator@H@std@@XV?$function@$$A6AXHPEAV?$Local@VValue@v8@@@v8@@@Z@3@@std@@EEBAPEAV?$_Func_base@XV?$function@$$A6AXHPEAV?$Local@VValue@v8@@@v8@@@Z@std@@@2@PEAX@Z 000000018002a350 f i _nodert_generated.obj
 0001:00029350       ?_Move@?$_Func_impl@V<lambda_279101090ce1881c12ef39046e07b27f>@@V?$allocator@H@std@@XV?$function@$$A6AXHPEAV?$Local@VValue@v8@@@v8@@@Z@3@@std@@EEAAPEAV?$_Func_base@XV?$function@$$A6AXHPEAV?$Local@VValue@v8@@@v8@@@Z@std@@@2@PEAX@Z 000000018002a350 f i _nodert_generated.obj
 0001:00029370       ?_Delete_this@?$_Func_impl@V<lambda_000a9465ab1c2d38e4219958767cbf46>@@V?$allocator@H@std@@XV?$function@$$A6AXHPEAV?$Local@VValue@v8@@@v8@@@Z@3@@std@@EEAAX_N@Z 000000018002a370 f i _nodert_generated.obj
 0001:000293d0       ?_Target_type@?$_Func_impl@V<lambda_000a9465ab1c2d38e4219958767cbf46>@@V?$allocator@H@std@@XV?$function@$$A6AXHPEAV?$Local@VValue@v8@@@v8@@@Z@3@@std@@EEBAAEBVtype_info@@XZ 000000018002a3d0 f i _nodert_generated.obj
 0001:000293e0       ?_Copy@?$_Func_impl@V<lambda_000a9465ab1c2d38e4219958767cbf46>@@V?$allocator@H@std@@XV?$function@$$A6AXHPEAV?$Local@VValue@v8@@@v8@@@Z@3@@std@@EEBAPEAV?$_Func_base@XV?$function@$$A6AXHPEAV?$Local@VValue@v8@@@v8@@@Z@std@@@2@PEAX@Z 000000018002a3e0 f i _nodert_generated.obj
 0001:000293e0       ?_Move@?$_Func_impl@V<lambda_000a9465ab1c2d38e4219958767cbf46>@@V?$allocator@H@std@@XV?$function@$$A6AXHPEAV?$Local@VValue@v8@@@v8@@@Z@3@@std@@EEAAPEAV?$_Func_base@XV?$function@$$A6AXHPEAV?$Local@VValue@v8@@@v8@@@Z@std@@@2@PEAX@Z 000000018002a3e0 f i _nodert_generated.obj
 0001:00029430       ?_Delete_this@?$_Func_impl@V<lambda_45b1e61327eaea63582b9eff8eb2000c>@@V?$allocator@H@std@@XV?$function@$$A6AXHPEAV?$Local@VValue@v8@@@v8@@@Z@3@@std@@EEAAX_N@Z 000000018002a430 f i _nodert_generated.obj
 0001:00029490       ?_Target_type@?$_Func_impl@V<lambda_45b1e61327eaea63582b9eff8eb2000c>@@V?$allocator@H@std@@XV?$function@$$A6AXHPEAV?$Local@VValue@v8@@@v8@@@Z@3@@std@@EEBAAEBVtype_info@@XZ 000000018002a490 f i _nodert_generated.obj
 0001:000294a0       ?_Do_call@?$_Func_impl@V<lambda_45b1e61327eaea63582b9eff8eb2000c>@@V?$allocator@H@std@@XV?$function@$$A6AXHPEAV?$Local@VValue@v8@@@v8@@@Z@3@@std@@EEAAX$$QEAV?$function@$$A6AXHPEAV?$Local@VValue@v8@@@v8@@@Z@2@@Z 000000018002a4a0 f i _nodert_generated.obj
 0001:000294d0       ?_Copy@?$_Func_impl@V<lambda_45b1e61327eaea63582b9eff8eb2000c>@@V?$allocator@H@std@@XV?$function@$$A6AXHPEAV?$Local@VValue@v8@@@v8@@@Z@3@@std@@EEBAPEAV?$_Func_base@XV?$function@$$A6AXHPEAV?$Local@VValue@v8@@@v8@@@Z@std@@@2@PEAX@Z 000000018002a4d0 f i _nodert_generated.obj
 0001:000294d0       ?_Move@?$_Func_impl@V<lambda_45b1e61327eaea63582b9eff8eb2000c>@@V?$allocator@H@std@@XV?$function@$$A6AXHPEAV?$Local@VValue@v8@@@v8@@@Z@3@@std@@EEAAPEAV?$_Func_base@XV?$function@$$A6AXHPEAV?$Local@VValue@v8@@@v8@@@Z@std@@@2@PEAX@Z 000000018002a4d0 f i _nodert_generated.obj
 0001:00029520       ?_Delete_this@?$_Func_impl@V<lambda_c4cafe4fdaee96e19a280e8ee0fbeed9>@@V?$allocator@H@std@@XV?$function@$$A6AXHPEAV?$Local@VValue@v8@@@v8@@@Z@3@@std@@EEAAX_N@Z 000000018002a520 f i _nodert_generated.obj
 0001:00029580       ?_Target_type@?$_Func_impl@V<lambda_c4cafe4fdaee96e19a280e8ee0fbeed9>@@V?$allocator@H@std@@XV?$function@$$A6AXHPEAV?$Local@VValue@v8@@@v8@@@Z@3@@std@@EEBAAEBVtype_info@@XZ 000000018002a580 f i _nodert_generated.obj
 0001:00029590       ?_Copy@?$_Func_impl@V<lambda_c4cafe4fdaee96e19a280e8ee0fbeed9>@@V?$allocator@H@std@@XV?$function@$$A6AXHPEAV?$Local@VValue@v8@@@v8@@@Z@3@@std@@EEBAPEAV?$_Func_base@XV?$function@$$A6AXHPEAV?$Local@VValue@v8@@@v8@@@Z@std@@@2@PEAX@Z 000000018002a590 f i _nodert_generated.obj
 0001:00029590       ?_Move@?$_Func_impl@V<lambda_c4cafe4fdaee96e19a280e8ee0fbeed9>@@V?$allocator@H@std@@XV?$function@$$A6AXHPEAV?$Local@VValue@v8@@@v8@@@Z@3@@std@@EEAAPEAV?$_Func_base@XV?$function@$$A6AXHPEAV?$Local@VValue@v8@@@v8@@@Z@std@@@2@PEAX@Z 000000018002a590 f i _nodert_generated.obj
 0001:000295e0       ?_Target_type@?$_Func_impl@V<lambda_b8e671108c61d14db13f18bcf080d2fc>@@V?$allocator@H@std@@XV?$function@$$A6AXHPEAV?$Local@VValue@v8@@@v8@@@Z@3@@std@@EEBAAEBVtype_info@@XZ 000000018002a5e0 f i _nodert_generated.obj
 0001:000295f0       ?_Copy@?$_Func_impl@V<lambda_b8e671108c61d14db13f18bcf080d2fc>@@V?$allocator@H@std@@XV?$function@$$A6AXHPEAV?$Local@VValue@v8@@@v8@@@Z@3@@std@@EEBAPEAV?$_Func_base@XV?$function@$$A6AXHPEAV?$Local@VValue@v8@@@v8@@@Z@std@@@2@PEAX@Z 000000018002a5f0 f i _nodert_generated.obj
 0001:000295f0       ?_Move@?$_Func_impl@V<lambda_b8e671108c61d14db13f18bcf080d2fc>@@V?$allocator@H@std@@XV?$function@$$A6AXHPEAV?$Local@VValue@v8@@@v8@@@Z@3@@std@@EEAAPEAV?$_Func_base@XV?$function@$$A6AXHPEAV?$Local@VValue@v8@@@v8@@@Z@std@@@2@PEAX@Z 000000018002a5f0 f i _nodert_generated.obj
 0001:00029610       ?_Delete_this@?$_Func_impl@V<lambda_9236e82175b1e8f0c25554990d6ee763>@@V?$allocator@H@std@@XV?$function@$$A6AXHPEAV?$Local@VValue@v8@@@v8@@@Z@3@@std@@EEAAX_N@Z 000000018002a610 f i _nodert_generated.obj
 0001:00029670       ?_Target_type@?$_Func_impl@V<lambda_9236e82175b1e8f0c25554990d6ee763>@@V?$allocator@H@std@@XV?$function@$$A6AXHPEAV?$Local@VValue@v8@@@v8@@@Z@3@@std@@EEBAAEBVtype_info@@XZ 000000018002a670 f i _nodert_generated.obj
 0001:00029680       ?_Copy@?$_Func_impl@V<lambda_9236e82175b1e8f0c25554990d6ee763>@@V?$allocator@H@std@@XV?$function@$$A6AXHPEAV?$Local@VValue@v8@@@v8@@@Z@3@@std@@EEBAPEAV?$_Func_base@XV?$function@$$A6AXHPEAV?$Local@VValue@v8@@@v8@@@Z@std@@@2@PEAX@Z 000000018002a680 f i _nodert_generated.obj
 0001:00029680       ?_Move@?$_Func_impl@V<lambda_9236e82175b1e8f0c25554990d6ee763>@@V?$allocator@H@std@@XV?$function@$$A6AXHPEAV?$Local@VValue@v8@@@v8@@@Z@3@@std@@EEAAPEAV?$_Func_base@XV?$function@$$A6AXHPEAV?$Local@VValue@v8@@@v8@@@Z@std@@@2@PEAX@Z 000000018002a680 f i _nodert_generated.obj
 0001:000296d0       ?_Delete_this@?$_Func_impl@V<lambda_482f13ff60dffa567295a33f4fa5f717>@@V?$allocator@H@std@@XV?$function@$$A6AXHPEAV?$Local@VValue@v8@@@v8@@@Z@3@@std@@EEAAX_N@Z 000000018002a6d0 f i _nodert_generated.obj
 0001:00029730       ?_Target_type@?$_Func_impl@V<lambda_482f13ff60dffa567295a33f4fa5f717>@@V?$allocator@H@std@@XV?$function@$$A6AXHPEAV?$Local@VValue@v8@@@v8@@@Z@3@@std@@EEBAAEBVtype_info@@XZ 000000018002a730 f i _nodert_generated.obj
 0001:00029740       ?_Do_call@?$_Func_impl@V<lambda_482f13ff60dffa567295a33f4fa5f717>@@V?$allocator@H@std@@XV?$function@$$A6AXHPEAV?$Local@VValue@v8@@@v8@@@Z@3@@std@@EEAAX$$QEAV?$function@$$A6AXHPEAV?$Local@VValue@v8@@@v8@@@Z@2@@Z 000000018002a740 f i _nodert_generated.obj
 0001:00029740       ?_Do_call@?$_Func_impl@V<lambda_9f0d7c63b31eb243109d420dd2c7387b>@@V?$allocator@H@std@@XV?$function@$$A6AXHPEAV?$Local@VValue@v8@@@v8@@@Z@3@@std@@EEAAX$$QEAV?$function@$$A6AXHPEAV?$Local@VValue@v8@@@v8@@@Z@2@@Z 000000018002a740 f i _nodert_generated.obj
 0001:00029770       ?_Copy@?$_Func_impl@V<lambda_482f13ff60dffa567295a33f4fa5f717>@@V?$allocator@H@std@@XV?$function@$$A6AXHPEAV?$Local@VValue@v8@@@v8@@@Z@3@@std@@EEBAPEAV?$_Func_base@XV?$function@$$A6AXHPEAV?$Local@VValue@v8@@@v8@@@Z@std@@@2@PEAX@Z 000000018002a770 f i _nodert_generated.obj
 0001:00029770       ?_Move@?$_Func_impl@V<lambda_482f13ff60dffa567295a33f4fa5f717>@@V?$allocator@H@std@@XV?$function@$$A6AXHPEAV?$Local@VValue@v8@@@v8@@@Z@3@@std@@EEAAPEAV?$_Func_base@XV?$function@$$A6AXHPEAV?$Local@VValue@v8@@@v8@@@Z@std@@@2@PEAX@Z 000000018002a770 f i _nodert_generated.obj
 0001:000297c0       ?_Delete_this@?$_Func_impl@V<lambda_5acfe61f3b4ae200150b963d3f33cedd>@@V?$allocator@H@std@@XV?$function@$$A6AXHPEAV?$Local@VValue@v8@@@v8@@@Z@3@@std@@EEAAX_N@Z 000000018002a7c0 f i _nodert_generated.obj
 0001:00029820       ?_Target_type@?$_Func_impl@V<lambda_5acfe61f3b4ae200150b963d3f33cedd>@@V?$allocator@H@std@@XV?$function@$$A6AXHPEAV?$Local@VValue@v8@@@v8@@@Z@3@@std@@EEBAAEBVtype_info@@XZ 000000018002a820 f i _nodert_generated.obj
 0001:00029830       ?_Copy@?$_Func_impl@V<lambda_5acfe61f3b4ae200150b963d3f33cedd>@@V?$allocator@H@std@@XV?$function@$$A6AXHPEAV?$Local@VValue@v8@@@v8@@@Z@3@@std@@EEBAPEAV?$_Func_base@XV?$function@$$A6AXHPEAV?$Local@VValue@v8@@@v8@@@Z@std@@@2@PEAX@Z 000000018002a830 f i _nodert_generated.obj
 0001:00029830       ?_Move@?$_Func_impl@V<lambda_5acfe61f3b4ae200150b963d3f33cedd>@@V?$allocator@H@std@@XV?$function@$$A6AXHPEAV?$Local@VValue@v8@@@v8@@@Z@3@@std@@EEAAPEAV?$_Func_base@XV?$function@$$A6AXHPEAV?$Local@VValue@v8@@@v8@@@Z@std@@@2@PEAX@Z 000000018002a830 f i _nodert_generated.obj
 0001:00029880       ?_Delete_this@?$_Func_impl@V<lambda_9f0d7c63b31eb243109d420dd2c7387b>@@V?$allocator@H@std@@XV?$function@$$A6AXHPEAV?$Local@VValue@v8@@@v8@@@Z@3@@std@@EEAAX_N@Z 000000018002a880 f i _nodert_generated.obj
 0001:000298e0       ?_Target_type@?$_Func_impl@V<lambda_9f0d7c63b31eb243109d420dd2c7387b>@@V?$allocator@H@std@@XV?$function@$$A6AXHPEAV?$Local@VValue@v8@@@v8@@@Z@3@@std@@EEBAAEBVtype_info@@XZ 000000018002a8e0 f i _nodert_generated.obj
 0001:000298f0       ?_Move@?$_Func_impl@V<lambda_9f0d7c63b31eb243109d420dd2c7387b>@@V?$allocator@H@std@@XV?$function@$$A6AXHPEAV?$Local@VValue@v8@@@v8@@@Z@3@@std@@EEAAPEAV?$_Func_base@XV?$function@$$A6AXHPEAV?$Local@VValue@v8@@@v8@@@Z@std@@@2@PEAX@Z 000000018002a8f0 f i _nodert_generated.obj
 0001:000298f0       ?_Copy@?$_Func_impl@V<lambda_9f0d7c63b31eb243109d420dd2c7387b>@@V?$allocator@H@std@@XV?$function@$$A6AXHPEAV?$Local@VValue@v8@@@v8@@@Z@3@@std@@EEBAPEAV?$_Func_base@XV?$function@$$A6AXHPEAV?$Local@VValue@v8@@@v8@@@Z@std@@@2@PEAX@Z 000000018002a8f0 f i _nodert_generated.obj
 0001:00029940       ?_Delete_this@?$_Func_impl@V<lambda_4547bc666ca5e819e2f94520da23e0f5>@@V?$allocator@H@std@@XV?$function@$$A6AXHPEAV?$Local@VValue@v8@@@v8@@@Z@3@@std@@EEAAX_N@Z 000000018002a940 f i _nodert_generated.obj
 0001:000299a0       ?_Target_type@?$_Func_impl@V<lambda_4547bc666ca5e819e2f94520da23e0f5>@@V?$allocator@H@std@@XV?$function@$$A6AXHPEAV?$Local@VValue@v8@@@v8@@@Z@3@@std@@EEBAAEBVtype_info@@XZ 000000018002a9a0 f i _nodert_generated.obj
 0001:000299b0       ?_Move@?$_Func_impl@V<lambda_4547bc666ca5e819e2f94520da23e0f5>@@V?$allocator@H@std@@XV?$function@$$A6AXHPEAV?$Local@VValue@v8@@@v8@@@Z@3@@std@@EEAAPEAV?$_Func_base@XV?$function@$$A6AXHPEAV?$Local@VValue@v8@@@v8@@@Z@std@@@2@PEAX@Z 000000018002a9b0 f i _nodert_generated.obj
 0001:000299b0       ?_Copy@?$_Func_impl@V<lambda_4547bc666ca5e819e2f94520da23e0f5>@@V?$allocator@H@std@@XV?$function@$$A6AXHPEAV?$Local@VValue@v8@@@v8@@@Z@3@@std@@EEBAPEAV?$_Func_base@XV?$function@$$A6AXHPEAV?$Local@VValue@v8@@@v8@@@Z@std@@@2@PEAX@Z 000000018002a9b0 f i _nodert_generated.obj
 0001:00029a00       ?_Target_type@?$_Func_impl@V<lambda_b5018d04d4e39eb5f75ec04d69f7427c>@@V?$allocator@H@std@@XV?$function@$$A6AXHPEAV?$Local@VValue@v8@@@v8@@@Z@3@@std@@EEBAAEBVtype_info@@XZ 000000018002aa00 f i _nodert_generated.obj
 0001:00029a10       ?_Move@?$_Func_impl@V<lambda_b5018d04d4e39eb5f75ec04d69f7427c>@@V?$allocator@H@std@@XV?$function@$$A6AXHPEAV?$Local@VValue@v8@@@v8@@@Z@3@@std@@EEAAPEAV?$_Func_base@XV?$function@$$A6AXHPEAV?$Local@VValue@v8@@@v8@@@Z@std@@@2@PEAX@Z 000000018002aa10 f i _nodert_generated.obj
 0001:00029a10       ?_Copy@?$_Func_impl@V<lambda_b5018d04d4e39eb5f75ec04d69f7427c>@@V?$allocator@H@std@@XV?$function@$$A6AXHPEAV?$Local@VValue@v8@@@v8@@@Z@3@@std@@EEBAPEAV?$_Func_base@XV?$function@$$A6AXHPEAV?$Local@VValue@v8@@@v8@@@Z@std@@@2@PEAX@Z 000000018002aa10 f i _nodert_generated.obj
 0001:00029a30       ?_Delete_this@?$_Func_impl@V<lambda_fb18f48fd1b9342714bb64f8d4fd3c4c>@@V?$allocator@H@std@@XV?$function@$$A6AXHPEAV?$Local@VValue@v8@@@v8@@@Z@3@@std@@EEAAX_N@Z 000000018002aa30 f i _nodert_generated.obj
 0001:00029a90       ?_Target_type@?$_Func_impl@V<lambda_fb18f48fd1b9342714bb64f8d4fd3c4c>@@V?$allocator@H@std@@XV?$function@$$A6AXHPEAV?$Local@VValue@v8@@@v8@@@Z@3@@std@@EEBAAEBVtype_info@@XZ 000000018002aa90 f i _nodert_generated.obj
 0001:00029aa0       ?_Move@?$_Func_impl@V<lambda_fb18f48fd1b9342714bb64f8d4fd3c4c>@@V?$allocator@H@std@@XV?$function@$$A6AXHPEAV?$Local@VValue@v8@@@v8@@@Z@3@@std@@EEAAPEAV?$_Func_base@XV?$function@$$A6AXHPEAV?$Local@VValue@v8@@@v8@@@Z@std@@@2@PEAX@Z 000000018002aaa0 f i _nodert_generated.obj
 0001:00029aa0       ?_Copy@?$_Func_impl@V<lambda_fb18f48fd1b9342714bb64f8d4fd3c4c>@@V?$allocator@H@std@@XV?$function@$$A6AXHPEAV?$Local@VValue@v8@@@v8@@@Z@3@@std@@EEBAPEAV?$_Func_base@XV?$function@$$A6AXHPEAV?$Local@VValue@v8@@@v8@@@Z@std@@@2@PEAX@Z 000000018002aaa0 f i _nodert_generated.obj
 0001:00029af0       ?_Target_type@?$_Func_impl@V<lambda_b07158aeb02b1c6d05124a961921958e>@@V?$allocator@H@std@@XV?$function@$$A6AXHPEAV?$Local@VValue@v8@@@v8@@@Z@3@@std@@EEBAAEBVtype_info@@XZ 000000018002aaf0 f i _nodert_generated.obj
 0001:00029b00       ?_Do_call@?$_Func_impl@V<lambda_b07158aeb02b1c6d05124a961921958e>@@V?$allocator@H@std@@XV?$function@$$A6AXHPEAV?$Local@VValue@v8@@@v8@@@Z@3@@std@@EEAAX$$QEAV?$function@$$A6AXHPEAV?$Local@VValue@v8@@@v8@@@Z@2@@Z 000000018002ab00 f i _nodert_generated.obj
 0001:00029b30       ?_Copy@?$_Func_impl@V<lambda_b07158aeb02b1c6d05124a961921958e>@@V?$allocator@H@std@@XV?$function@$$A6AXHPEAV?$Local@VValue@v8@@@v8@@@Z@3@@std@@EEBAPEAV?$_Func_base@XV?$function@$$A6AXHPEAV?$Local@VValue@v8@@@v8@@@Z@std@@@2@PEAX@Z 000000018002ab30 f i _nodert_generated.obj
 0001:00029b30       ?_Move@?$_Func_impl@V<lambda_b07158aeb02b1c6d05124a961921958e>@@V?$allocator@H@std@@XV?$function@$$A6AXHPEAV?$Local@VValue@v8@@@v8@@@Z@3@@std@@EEAAPEAV?$_Func_base@XV?$function@$$A6AXHPEAV?$Local@VValue@v8@@@v8@@@Z@std@@@2@PEAX@Z 000000018002ab30 f i _nodert_generated.obj
 0001:00029b50       ?_Delete_this@?$_Func_impl@V<lambda_a4bb01c3bfce7d486672a1a98d0662e5>@@V?$allocator@H@std@@XV?$function@$$A6AXHPEAV?$Local@VValue@v8@@@v8@@@Z@3@@std@@EEAAX_N@Z 000000018002ab50 f i _nodert_generated.obj
 0001:00029bb0       ?_Target_type@?$_Func_impl@V<lambda_a4bb01c3bfce7d486672a1a98d0662e5>@@V?$allocator@H@std@@XV?$function@$$A6AXHPEAV?$Local@VValue@v8@@@v8@@@Z@3@@std@@EEBAAEBVtype_info@@XZ 000000018002abb0 f i _nodert_generated.obj
 0001:00029bc0       ?_Move@?$_Func_impl@V<lambda_a4bb01c3bfce7d486672a1a98d0662e5>@@V?$allocator@H@std@@XV?$function@$$A6AXHPEAV?$Local@VValue@v8@@@v8@@@Z@3@@std@@EEAAPEAV?$_Func_base@XV?$function@$$A6AXHPEAV?$Local@VValue@v8@@@v8@@@Z@std@@@2@PEAX@Z 000000018002abc0 f i _nodert_generated.obj
 0001:00029bc0       ?_Copy@?$_Func_impl@V<lambda_a4bb01c3bfce7d486672a1a98d0662e5>@@V?$allocator@H@std@@XV?$function@$$A6AXHPEAV?$Local@VValue@v8@@@v8@@@Z@3@@std@@EEBAPEAV?$_Func_base@XV?$function@$$A6AXHPEAV?$Local@VValue@v8@@@v8@@@Z@std@@@2@PEAX@Z 000000018002abc0 f i _nodert_generated.obj
 0001:00029c10       ?_Delete_this@?$_Func_impl@V<lambda_4d0f0461deb482ea0af5799ff4c0acbf>@@V?$allocator@H@std@@XV?$function@$$A6AXHPEAV?$Local@VValue@v8@@@v8@@@Z@3@@std@@EEAAX_N@Z 000000018002ac10 f i _nodert_generated.obj
 0001:00029c70       ?_Target_type@?$_Func_impl@V<lambda_4d0f0461deb482ea0af5799ff4c0acbf>@@V?$allocator@H@std@@XV?$function@$$A6AXHPEAV?$Local@VValue@v8@@@v8@@@Z@3@@std@@EEBAAEBVtype_info@@XZ 000000018002ac70 f i _nodert_generated.obj
 0001:00029c80       ?_Do_call@?$_Func_impl@V<lambda_4d0f0461deb482ea0af5799ff4c0acbf>@@V?$allocator@H@std@@XV?$function@$$A6AXHPEAV?$Local@VValue@v8@@@v8@@@Z@3@@std@@EEAAX$$QEAV?$function@$$A6AXHPEAV?$Local@VValue@v8@@@v8@@@Z@2@@Z 000000018002ac80 f i _nodert_generated.obj
 0001:00029cb0       ?_Move@?$_Func_impl@V<lambda_4d0f0461deb482ea0af5799ff4c0acbf>@@V?$allocator@H@std@@XV?$function@$$A6AXHPEAV?$Local@VValue@v8@@@v8@@@Z@3@@std@@EEAAPEAV?$_Func_base@XV?$function@$$A6AXHPEAV?$Local@VValue@v8@@@v8@@@Z@std@@@2@PEAX@Z 000000018002acb0 f i _nodert_generated.obj
 0001:00029cb0       ?_Copy@?$_Func_impl@V<lambda_4d0f0461deb482ea0af5799ff4c0acbf>@@V?$allocator@H@std@@XV?$function@$$A6AXHPEAV?$Local@VValue@v8@@@v8@@@Z@3@@std@@EEBAPEAV?$_Func_base@XV?$function@$$A6AXHPEAV?$Local@VValue@v8@@@v8@@@Z@std@@@2@PEAX@Z 000000018002acb0 f i _nodert_generated.obj
 0001:00029d00       ?_Delete_this@?$_Func_impl@V<lambda_bb67c431194e1c455a3fe0f8878e740c>@@V?$allocator@H@std@@XV?$function@$$A6AXHPEAV?$Local@VValue@v8@@@v8@@@Z@3@@std@@EEAAX_N@Z 000000018002ad00 f i _nodert_generated.obj
 0001:00029d60       ?_Target_type@?$_Func_impl@V<lambda_bb67c431194e1c455a3fe0f8878e740c>@@V?$allocator@H@std@@XV?$function@$$A6AXHPEAV?$Local@VValue@v8@@@v8@@@Z@3@@std@@EEBAAEBVtype_info@@XZ 000000018002ad60 f i _nodert_generated.obj
 0001:00029d70       ?_Move@?$_Func_impl@V<lambda_bb67c431194e1c455a3fe0f8878e740c>@@V?$allocator@H@std@@XV?$function@$$A6AXHPEAV?$Local@VValue@v8@@@v8@@@Z@3@@std@@EEAAPEAV?$_Func_base@XV?$function@$$A6AXHPEAV?$Local@VValue@v8@@@v8@@@Z@std@@@2@PEAX@Z 000000018002ad70 f i _nodert_generated.obj
 0001:00029d70       ?_Copy@?$_Func_impl@V<lambda_bb67c431194e1c455a3fe0f8878e740c>@@V?$allocator@H@std@@XV?$function@$$A6AXHPEAV?$Local@VValue@v8@@@v8@@@Z@3@@std@@EEBAPEAV?$_Func_base@XV?$function@$$A6AXHPEAV?$Local@VValue@v8@@@v8@@@Z@std@@@2@PEAX@Z 000000018002ad70 f i _nodert_generated.obj
 0001:00029dc0       ?_Delete_this@?$_Func_impl@V<lambda_f0a5acfc950c43e1fbbb5ee2eed03371>@@V?$allocator@H@std@@XV?$function@$$A6AXHPEAV?$Local@VValue@v8@@@v8@@@Z@3@@std@@EEAAX_N@Z 000000018002adc0 f i _nodert_generated.obj
 0001:00029e20       ?_Target_type@?$_Func_impl@V<lambda_f0a5acfc950c43e1fbbb5ee2eed03371>@@V?$allocator@H@std@@XV?$function@$$A6AXHPEAV?$Local@VValue@v8@@@v8@@@Z@3@@std@@EEBAAEBVtype_info@@XZ 000000018002ae20 f i _nodert_generated.obj
 0001:00029e30       ?_Do_call@?$_Func_impl@V<lambda_f0a5acfc950c43e1fbbb5ee2eed03371>@@V?$allocator@H@std@@XV?$function@$$A6AXHPEAV?$Local@VValue@v8@@@v8@@@Z@3@@std@@EEAAX$$QEAV?$function@$$A6AXHPEAV?$Local@VValue@v8@@@v8@@@Z@2@@Z 000000018002ae30 f i _nodert_generated.obj
 0001:00029e60       ?_Move@?$_Func_impl@V<lambda_f0a5acfc950c43e1fbbb5ee2eed03371>@@V?$allocator@H@std@@XV?$function@$$A6AXHPEAV?$Local@VValue@v8@@@v8@@@Z@3@@std@@EEAAPEAV?$_Func_base@XV?$function@$$A6AXHPEAV?$Local@VValue@v8@@@v8@@@Z@std@@@2@PEAX@Z 000000018002ae60 f i _nodert_generated.obj
 0001:00029e60       ?_Copy@?$_Func_impl@V<lambda_f0a5acfc950c43e1fbbb5ee2eed03371>@@V?$allocator@H@std@@XV?$function@$$A6AXHPEAV?$Local@VValue@v8@@@v8@@@Z@3@@std@@EEBAPEAV?$_Func_base@XV?$function@$$A6AXHPEAV?$Local@VValue@v8@@@v8@@@Z@std@@@2@PEAX@Z 000000018002ae60 f i _nodert_generated.obj
 0001:00029eb0       ?_Delete_this@?$_Func_impl@V<lambda_fc55a96778b695da9907353a9fdacbca>@@V?$allocator@H@std@@X$$V@std@@EEAAX_N@Z 000000018002aeb0 f i _nodert_generated.obj
 0001:00029f00       ?_Target_type@?$_Func_impl@V<lambda_fc55a96778b695da9907353a9fdacbca>@@V?$allocator@H@std@@X$$V@std@@EEBAAEBVtype_info@@XZ 000000018002af00 f i _nodert_generated.obj
 0001:00029f10       ?_Do_call@?$_Func_impl@V<lambda_fc55a96778b695da9907353a9fdacbca>@@V?$allocator@H@std@@X$$V@std@@EEAAXXZ 000000018002af10 f i _nodert_generated.obj
 0001:00029f20       ?_Move@?$_Func_impl@V<lambda_fc55a96778b695da9907353a9fdacbca>@@V?$allocator@H@std@@X$$V@std@@EEAAPEAV?$_Func_base@X$$V@2@PEAX@Z 000000018002af20 f i _nodert_generated.obj
 0001:00029f80       ?_Copy@?$_Func_impl@V<lambda_fc55a96778b695da9907353a9fdacbca>@@V?$allocator@H@std@@X$$V@std@@EEBAPEAV?$_Func_base@X$$V@2@PEAX@Z 000000018002af80 f i _nodert_generated.obj
 0001:00029fe0       ?_Delete_this@?$_Func_impl@V<lambda_1af583cf6945007177c61d87505abd8e>@@V?$allocator@H@std@@XHPEAV?$Local@VValue@v8@@@v8@@@std@@EEAAX_N@Z 000000018002afe0 f i _nodert_generated.obj
 0001:0002a000       ?_Target_type@?$_Func_impl@V<lambda_1af583cf6945007177c61d87505abd8e>@@V?$allocator@H@std@@XHPEAV?$Local@VValue@v8@@@v8@@@std@@EEBAAEBVtype_info@@XZ 000000018002b000 f i _nodert_generated.obj
 0001:0002a010       ?_Do_call@?$_Func_impl@V<lambda_1af583cf6945007177c61d87505abd8e>@@V?$allocator@H@std@@XHPEAV?$Local@VValue@v8@@@v8@@@std@@EEAAX$$QEAH$$QEAPEAV?$Local@VValue@v8@@@v8@@@Z 000000018002b010 f i _nodert_generated.obj
 0001:0002a020       ?_Copy@?$_Func_impl@V<lambda_1af583cf6945007177c61d87505abd8e>@@V?$allocator@H@std@@XHPEAV?$Local@VValue@v8@@@v8@@@std@@EEBAPEAV?$_Func_base@XHPEAV?$Local@VValue@v8@@@v8@@@2@PEAX@Z 000000018002b020 f i _nodert_generated.obj
 0001:0002a020       ?_Move@?$_Func_impl@V<lambda_1af583cf6945007177c61d87505abd8e>@@V?$allocator@H@std@@XHPEAV?$Local@VValue@v8@@@v8@@@std@@EEAAPEAV?$_Func_base@XHPEAV?$Local@VValue@v8@@@v8@@@2@PEAX@Z 000000018002b020 f i _nodert_generated.obj
 0001:0002a040       ?_Target_type@?$_Func_impl@V<lambda_1de5d7763f0249f029274f13d652e2bc>@@V?$allocator@H@std@@_NV?$Local@VValue@v8@@@v8@@@std@@EEBAAEBVtype_info@@XZ 000000018002b040 f i _nodert_generated.obj
 0001:0002a050       ?_Copy@?$_Func_impl@V<lambda_1de5d7763f0249f029274f13d652e2bc>@@V?$allocator@H@std@@_NV?$Local@VValue@v8@@@v8@@@std@@EEBAPEAV?$_Func_base@_NV?$Local@VValue@v8@@@v8@@@2@PEAX@Z 000000018002b050 f i _nodert_generated.obj
 0001:0002a050       ?_Move@?$_Func_impl@V<lambda_1de5d7763f0249f029274f13d652e2bc>@@V?$allocator@H@std@@_NV?$Local@VValue@v8@@@v8@@@std@@EEAAPEAV?$_Func_base@_NV?$Local@VValue@v8@@@v8@@@2@PEAX@Z 000000018002b050 f i _nodert_generated.obj
 0001:0002a070       ?_Target_type@?$_Func_impl@V<lambda_ee2800ccd2b011420c5de0c63356449b>@@V?$allocator@H@std@@X$$V@std@@EEBAAEBVtype_info@@XZ 000000018002b070 f i _nodert_generated.obj
 0001:0002a080       ?_Do_call@?$_Func_impl@V<lambda_ee2800ccd2b011420c5de0c63356449b>@@V?$allocator@H@std@@X$$V@std@@EEAAXXZ 000000018002b080 f i _nodert_generated.obj
 0001:0002a090       ?_Move@?$_Func_impl@V<lambda_ee2800ccd2b011420c5de0c63356449b>@@V?$allocator@H@std@@X$$V@std@@EEAAPEAV?$_Func_base@X$$V@2@PEAX@Z 000000018002b090 f i _nodert_generated.obj
 0001:0002a090       ?_Copy@?$_Func_impl@V<lambda_ee2800ccd2b011420c5de0c63356449b>@@V?$allocator@H@std@@X$$V@std@@EEBAPEAV?$_Func_base@X$$V@2@PEAX@Z 000000018002b090 f i _nodert_generated.obj
 0001:0002a0b0       ?_Delete_this@?$_Func_impl@V<lambda_f25c37099038263181b5186a3fa41b37>@@V?$allocator@H@std@@X$$V@std@@EEAAX_N@Z 000000018002b0b0 f i _nodert_generated.obj
 0001:0002a0e0       ?_Target_type@?$_Func_impl@V<lambda_f25c37099038263181b5186a3fa41b37>@@V?$allocator@H@std@@X$$V@std@@EEBAAEBVtype_info@@XZ 000000018002b0e0 f i _nodert_generated.obj
 0001:0002a0f0       ?_Do_call@?$_Func_impl@V<lambda_f25c37099038263181b5186a3fa41b37>@@V?$allocator@H@std@@X$$V@std@@EEAAXXZ 000000018002b0f0 f i _nodert_generated.obj
 0001:0002a130       ?_Move@?$_Func_impl@V<lambda_f25c37099038263181b5186a3fa41b37>@@V?$allocator@H@std@@X$$V@std@@EEAAPEAV?$_Func_base@X$$V@2@PEAX@Z 000000018002b130 f i _nodert_generated.obj
 0001:0002a170       ?_Copy@?$_Func_impl@V<lambda_f25c37099038263181b5186a3fa41b37>@@V?$allocator@H@std@@X$$V@std@@EEBAPEAV?$_Func_base@X$$V@2@PEAX@Z 000000018002b170 f i _nodert_generated.obj
 0001:0002a1c0       ??R?$_Func_class@EV?$task@X@Concurrency@@@std@@QEBAEV?$task@X@Concurrency@@@Z 000000018002b1c0 f i _nodert_generated.obj
 0001:0002a1c0       ??R?$_Func_class@EV?$task@PE$AAVKeyCredentialRetrievalResult@Credentials@Security@Windows@@@Concurrency@@@std@@QEBAEV?$task@PE$AAVKeyCredentialRetrievalResult@Credentials@Security@Windows@@@Concurrency@@@Z 000000018002b1c0 f i _nodert_generated.obj
 0001:0002a270       ??R?$_Func_class@EV?$task@PE$AAVKeyCredentialOperationResult@Credentials@Security@Windows@@@Concurrency@@@std@@QEBAEV?$task@PE$AAVKeyCredentialOperationResult@Credentials@Security@Windows@@@Concurrency@@@Z 000000018002b270 f i _nodert_generated.obj
 0001:0002a320       ??R?$_Func_class@EV?$task@PE$AAVKeyCredentialAttestationResult@Credentials@Security@Windows@@@Concurrency@@@std@@QEBAEV?$task@PE$AAVKeyCredentialAttestationResult@Credentials@Security@Windows@@@Concurrency@@@Z 000000018002b320 f i _nodert_generated.obj
 0001:0002a3d0       ??R?$_Func_class@EV?$task@_N@Concurrency@@@std@@QEBAEV?$task@_N@Concurrency@@@Z 000000018002b3d0 f i _nodert_generated.obj
 0001:0002a480       ??R?$_Func_class@EV?$task@PE$AAUIRandomAccessStream@Streams@Storage@Windows@@@Concurrency@@@std@@QEBAEV?$task@PE$AAUIRandomAccessStream@Streams@Storage@Windows@@@Concurrency@@@Z 000000018002b480 f i _nodert_generated.obj
 0001:0002a530       ??R?$_Func_class@XV?$task@PE$AAUIRandomAccessStream@Streams@Storage@Windows@@@Concurrency@@@std@@QEBAXV?$task@PE$AAUIRandomAccessStream@Streams@Storage@Windows@@@Concurrency@@@Z 000000018002b530 f i _nodert_generated.obj
 0001:0002a5e0       ??R?$_Func_class@XV?$task@_N@Concurrency@@@std@@QEBAXV?$task@_N@Concurrency@@@Z 000000018002b5e0 f i _nodert_generated.obj
 0001:0002a690       ??R?$_Func_class@XV?$task@PE$AAVKeyCredentialAttestationResult@Credentials@Security@Windows@@@Concurrency@@@std@@QEBAXV?$task@PE$AAVKeyCredentialAttestationResult@Credentials@Security@Windows@@@Concurrency@@@Z 000000018002b690 f i _nodert_generated.obj
 0001:0002a740       ??R?$_Func_class@XV?$task@PE$AAVKeyCredentialOperationResult@Credentials@Security@Windows@@@Concurrency@@@std@@QEBAXV?$task@PE$AAVKeyCredentialOperationResult@Credentials@Security@Windows@@@Concurrency@@@Z 000000018002b740 f i _nodert_generated.obj
 0001:0002a7f0       ?_TaskInitAsyncOp@?$task@PE$AAUIRandomAccessStream@Streams@Storage@Windows@@@Concurrency@@AEAAXPE$AAU?$IAsyncOperation@PE$AAUIRandomAccessStream@Streams@Storage@Windows@@@Foundation@Windows@@@Z 000000018002b7f0 f i _nodert_generated.obj
 0001:0002a8b0       ?_TaskInitAsyncOp@?$task@PE$AAVKeyCredentialRetrievalResult@Credentials@Security@Windows@@@Concurrency@@AEAAXPE$AAU?$IAsyncOperation@PE$AAVKeyCredentialRetrievalResult@Credentials@Security@Windows@@@Foundation@Windows@@@Z 000000018002b8b0 f i _nodert_generated.obj
 0001:0002a970       ?_TaskInitAsyncOp@?$task@PE$AAVKeyCredentialAttestationResult@Credentials@Security@Windows@@@Concurrency@@AEAAXPE$AAU?$IAsyncOperation@PE$AAVKeyCredentialAttestationResult@Credentials@Security@Windows@@@Foundation@Windows@@@Z 000000018002b970 f i _nodert_generated.obj
 0001:0002aa30       ?_TaskInitAsyncOp@?$task@PE$AAVKeyCredentialOperationResult@Credentials@Security@Windows@@@Concurrency@@AEAAXPE$AAU?$IAsyncOperation@PE$AAVKeyCredentialOperationResult@Credentials@Security@Windows@@@Foundation@Windows@@@Z 000000018002ba30 f i _nodert_generated.obj
 0001:0002aaf0       ?_TaskInitAsyncOp@?$task@_N@Concurrency@@AEAAXPE$AAU?$IAsyncOperation@_N@Foundation@Windows@@@Z 000000018002baf0 f i _nodert_generated.obj
 0001:0002abb0       ?__abi_Windows_Foundation_?$AsyncOperationCompletedHandler@_N___abi_IDelegate____abi_Invoke@?Q__abi_IDelegate@?$AsyncOperationCompletedHandler@_N@Foundation@Windows@@234@UE$AAAJPE$AAU?$IAsyncOperation@_N@34@W4AsyncStatus@34@@Z 000000018002bbb0 f i _nodert_generated.obj
 0001:0002ac00       ?__abi_QueryInterface@?$AsyncOperationCompletedHandler@_N@Foundation@Windows@@UE$AAAJAEAVGuid@Platform@@PEAPEAX@Z 000000018002bc00 f i _nodert_generated.obj
 0001:0002ad30       ?__abi_GetRuntimeClassName@?$AsyncOperationCompletedHandler@_N@Foundation@Windows@@UE$AAAJPEAPEAUHSTRING__@@@Z 000000018002bd30 f i _nodert_generated.obj
 0001:0002ad50       ?Invoke@?$AsyncOperationCompletedHandler@_N@Foundation@Windows@@UE$AAAXPE$AAU?$IAsyncOperation@_N@23@W4AsyncStatus@23@@Z 000000018002bd50 f i _nodert_generated.obj
 0001:0002ad90       ??$?0AEBV?$allocator@H@std@@V<lambda_1de5d7763f0249f029274f13d652e2bc>@@@?$_Compressed_pair@V?$allocator@H@std@@V<lambda_1de5d7763f0249f029274f13d652e2bc>@@$00@std@@QEAA@U_One_then_variadic_args_t@1@AEBV?$allocator@H@1@$$QEAV<lambda_1de5d7763f0249f029274f13d652e2bc>@@@Z 000000018002bd90 f i _nodert_generated.obj
 0001:0002ad90       ??$?0AEBV?$allocator@H@std@@@?$_Wrap_alloc@V?$allocator@V?$_Func_impl@V<lambda_1de5d7763f0249f029274f13d652e2bc>@@V?$allocator@H@std@@_NV?$Local@VValue@v8@@@v8@@@std@@@std@@@std@@QEAA@AEBV?$allocator@H@1@@Z 000000018002bd90 f i _nodert_generated.obj
 0001:0002ada0       ??$?0V<lambda_74ae016dfde5e451a517e9bd4d394eaf>@@EX@?$function@$$A6AEV?$task@PE$AAUIRandomAccessStream@Streams@Storage@Windows@@@Concurrency@@@Z@std@@QEAA@V<lambda_74ae016dfde5e451a517e9bd4d394eaf>@@@Z 000000018002bda0 f i _nodert_generated.obj
 0001:0002ae30       ??$?0V<lambda_5a1c437f17fa466aabaf7b0153a0ecc3>@@EX@?$function@$$A6AEV?$task@_N@Concurrency@@@Z@std@@QEAA@V<lambda_5a1c437f17fa466aabaf7b0153a0ecc3>@@@Z 000000018002be30 f i _nodert_generated.obj
 0001:0002aec0       ??$?0V<lambda_06afde9e14e9caafbc5fb4341b3d2c63>@@EX@?$function@$$A6AEV?$task@PE$AAVKeyCredentialAttestationResult@Credentials@Security@Windows@@@Concurrency@@@Z@std@@QEAA@V<lambda_06afde9e14e9caafbc5fb4341b3d2c63>@@@Z 000000018002bec0 f i _nodert_generated.obj
 0001:0002af50       ??$?0V<lambda_4c26654467069cc6eb8c50b38bff689e>@@EX@?$function@$$A6AEV?$task@PE$AAVKeyCredentialOperationResult@Credentials@Security@Windows@@@Concurrency@@@Z@std@@QEAA@V<lambda_4c26654467069cc6eb8c50b38bff689e>@@@Z 000000018002bf50 f i _nodert_generated.obj
 0001:0002afe0       ??$_Invoke_ret@PE$AAVString@Platform@@AEAV<lambda_bc24d93c4ae52aa761b3a50bef053f9e>@@V?$Local@VValue@v8@@@v8@@@std@@YAPE$AAVString@Platform@@U?$_Forced@PE$AAVString@Platform@@$0A@@0@AEAV<lambda_bc24d93c4ae52aa761b3a50bef053f9e>@@$$QEAV?$Local@VValue@v8@@@v8@@@Z 000000018002bfe0 f i _nodert_generated.obj
 0001:0002afe0       ??$_Invoke_ret@PE$AAVString@Platform@@AEAV<lambda_2898c1f942da5bb07e9851962fe02557>@@V?$Local@VValue@v8@@@v8@@@std@@YAPE$AAVString@Platform@@U?$_Forced@PE$AAVString@Platform@@$0A@@0@AEAV<lambda_2898c1f942da5bb07e9851962fe02557>@@$$QEAV?$Local@VValue@v8@@@v8@@@Z 000000018002bfe0 f i _nodert_generated.obj
 0001:0002b080       ??$_Invoke_ret@PE$AAVPasswordCredential@Credentials@Security@Windows@@AEAV<lambda_b96afc2058126c8419999d664580aa66>@@V?$Local@VValue@v8@@@v8@@@std@@YAPE$AAVPasswordCredential@Credentials@Security@Windows@@U?$_Forced@PE$AAVPasswordCredential@Credentials@Security@Windows@@$0A@@0@AEAV<lambda_b96afc2058126c8419999d664580aa66>@@$$QEAV?$Local@VValue@v8@@@v8@@@Z 000000018002c080 f i _nodert_generated.obj
 0001:0002b080       ??$_Invoke_ret@PE$AAVPasswordCredential@Credentials@Security@Windows@@AEAV<lambda_c5918b628fcce4ef3413db30e465b55f>@@V?$Local@VValue@v8@@@v8@@@std@@YAPE$AAVPasswordCredential@Credentials@Security@Windows@@U?$_Forced@PE$AAVPasswordCredential@Credentials@Security@Windows@@$0A@@0@AEAV<lambda_c5918b628fcce4ef3413db30e465b55f>@@$$QEAV?$Local@VValue@v8@@@v8@@@Z 000000018002c080 f i _nodert_generated.obj
 0001:0002b080       ??$_Invoke_ret@PE$AAVPasswordCredential@Credentials@Security@Windows@@AEAV<lambda_c8cb0b9408af423b3d444d18815ef67e>@@V?$Local@VValue@v8@@@v8@@@std@@YAPE$AAVPasswordCredential@Credentials@Security@Windows@@U?$_Forced@PE$AAVPasswordCredential@Credentials@Security@Windows@@$0A@@0@AEAV<lambda_c8cb0b9408af423b3d444d18815ef67e>@@$$QEAV?$Local@VValue@v8@@@v8@@@Z 000000018002c080 f i _nodert_generated.obj
 0001:0002b2a0       ?__abi_Windows_Foundation_?$AsyncOperationCompletedHandler@PE$AAUIRandomAccessStream@Streams@Storage@Windows@@___abi_IDelegate____abi_Invoke@?Q__abi_IDelegate@?$AsyncOperationCompletedHandler@PE$AAUIRandomAccessStream@Streams@Storage@Windows@@@Foundation@Windows@@234@UE$AAAJPE$AAU?$IAsyncOperation@PE$AAUIRandomAccessStream@Streams@Storage@Windows@@@34@W4AsyncStatus@34@@Z 000000018002c2a0 f i _nodert_generated.obj
 0001:0002b2f0       ?__abi_QueryInterface@?$AsyncOperationCompletedHandler@PE$AAUIRandomAccessStream@Streams@Storage@Windows@@@Foundation@Windows@@UE$AAAJAEAVGuid@Platform@@PEAPEAX@Z 000000018002c2f0 f i _nodert_generated.obj
 0001:0002b420       ?__abi_GetRuntimeClassName@?$AsyncOperationCompletedHandler@PE$AAUIRandomAccessStream@Streams@Storage@Windows@@@Foundation@Windows@@UE$AAAJPEAPEAUHSTRING__@@@Z 000000018002c420 f i _nodert_generated.obj
 0001:0002b440       ?Invoke@?$AsyncOperationCompletedHandler@PE$AAUIRandomAccessStream@Streams@Storage@Windows@@@Foundation@Windows@@UE$AAAXPE$AAU?$IAsyncOperation@PE$AAUIRandomAccessStream@Streams@Storage@Windows@@@23@W4AsyncStatus@23@@Z 000000018002c440 f i _nodert_generated.obj
 0001:0002b620       ?__abi_Windows_Foundation_?$AsyncOperationCompletedHandler@PE$AAVKeyCredentialRetrievalResult@Credentials@Security@Windows@@___abi_IDelegate____abi_Invoke@?Q__abi_IDelegate@?$AsyncOperationCompletedHandler@PE$AAVKeyCredentialRetrievalResult@Credentials@Security@Windows@@@Foundation@Windows@@234@UE$AAAJPE$AAU?$IAsyncOperation@PE$AAVKeyCredentialRetrievalResult@Credentials@Security@Windows@@@34@W4AsyncStatus@34@@Z 000000018002c620 f i _nodert_generated.obj
 0001:0002b670       ?__abi_QueryInterface@?$AsyncOperationCompletedHandler@PE$AAVKeyCredentialRetrievalResult@Credentials@Security@Windows@@@Foundation@Windows@@UE$AAAJAEAVGuid@Platform@@PEAPEAX@Z 000000018002c670 f i _nodert_generated.obj
 0001:0002b7a0       ?__abi_GetRuntimeClassName@?$AsyncOperationCompletedHandler@PE$AAVKeyCredentialRetrievalResult@Credentials@Security@Windows@@@Foundation@Windows@@UE$AAAJPEAPEAUHSTRING__@@@Z 000000018002c7a0 f i _nodert_generated.obj
 0001:0002b7c0       ?Invoke@?$AsyncOperationCompletedHandler@PE$AAVKeyCredentialRetrievalResult@Credentials@Security@Windows@@@Foundation@Windows@@UE$AAAXPE$AAU?$IAsyncOperation@PE$AAVKeyCredentialRetrievalResult@Credentials@Security@Windows@@@23@W4AsyncStatus@23@@Z 000000018002c7c0 f i _nodert_generated.obj
 0001:0002b800       ?__abi_Windows_Foundation_?$AsyncOperationCompletedHandler@PE$AAVKeyCredentialAttestationResult@Credentials@Security@Windows@@___abi_IDelegate____abi_Invoke@?Q__abi_IDelegate@?$AsyncOperationCompletedHandler@PE$AAVKeyCredentialAttestationResult@Credentials@Security@Windows@@@Foundation@Windows@@234@UE$AAAJPE$AAU?$IAsyncOperation@PE$AAVKeyCredentialAttestationResult@Credentials@Security@Windows@@@34@W4AsyncStatus@34@@Z 000000018002c800 f i _nodert_generated.obj
 0001:0002b850       ?__abi_QueryInterface@?$AsyncOperationCompletedHandler@PE$AAVKeyCredentialAttestationResult@Credentials@Security@Windows@@@Foundation@Windows@@UE$AAAJAEAVGuid@Platform@@PEAPEAX@Z 000000018002c850 f i _nodert_generated.obj
 0001:0002b980       ?__abi_GetRuntimeClassName@?$AsyncOperationCompletedHandler@PE$AAVKeyCredentialAttestationResult@Credentials@Security@Windows@@@Foundation@Windows@@UE$AAAJPEAPEAUHSTRING__@@@Z 000000018002c980 f i _nodert_generated.obj
 0001:0002b9a0       ?Invoke@?$AsyncOperationCompletedHandler@PE$AAVKeyCredentialAttestationResult@Credentials@Security@Windows@@@Foundation@Windows@@UE$AAAXPE$AAU?$IAsyncOperation@PE$AAVKeyCredentialAttestationResult@Credentials@Security@Windows@@@23@W4AsyncStatus@23@@Z 000000018002c9a0 f i _nodert_generated.obj
 0001:0002b9e0       ?__abi_Windows_Foundation_?$AsyncOperationCompletedHandler@PE$AAVKeyCredentialOperationResult@Credentials@Security@Windows@@___abi_IDelegate____abi_Invoke@?Q__abi_IDelegate@?$AsyncOperationCompletedHandler@PE$AAVKeyCredentialOperationResult@Credentials@Security@Windows@@@Foundation@Windows@@234@UE$AAAJPE$AAU?$IAsyncOperation@PE$AAVKeyCredentialOperationResult@Credentials@Security@Windows@@@34@W4AsyncStatus@34@@Z 000000018002c9e0 f i _nodert_generated.obj
 0001:0002ba30       ?__abi_QueryInterface@?$AsyncOperationCompletedHandler@PE$AAVKeyCredentialOperationResult@Credentials@Security@Windows@@@Foundation@Windows@@UE$AAAJAEAVGuid@Platform@@PEAPEAX@Z 000000018002ca30 f i _nodert_generated.obj
 0001:0002bb60       ?__abi_GetRuntimeClassName@?$AsyncOperationCompletedHandler@PE$AAVKeyCredentialOperationResult@Credentials@Security@Windows@@@Foundation@Windows@@UE$AAAJPEAPEAUHSTRING__@@@Z 000000018002cb60 f i _nodert_generated.obj
 0001:0002bb80       ?Invoke@?$AsyncOperationCompletedHandler@PE$AAVKeyCredentialOperationResult@Credentials@Security@Windows@@@Foundation@Windows@@UE$AAAXPE$AAU?$IAsyncOperation@PE$AAVKeyCredentialOperationResult@Credentials@Security@Windows@@@23@W4AsyncStatus@23@@Z 000000018002cb80 f i _nodert_generated.obj
 0001:0002bbc0       ??_G?$_Ref_count_obj@U?$_Task_impl@PE$AAUIRandomAccessStream@Streams@Storage@Windows@@@details@Concurrency@@@std@@UEAAPEAXI@Z 000000018002cbc0 f i _nodert_generated.obj
 0001:0002bbc0       ??_E?$_Ref_count_obj@U?$_Task_impl@PE$AAUIRandomAccessStream@Streams@Storage@Windows@@@details@Concurrency@@@std@@UEAAPEAXI@Z 000000018002cbc0 f i * CIL library *:* CIL module *
 0001:0002bbf0       ?_Delete_this@?$_Func_impl@V<lambda_0cda8732cc934001c51aae542286f6ed>@@V?$allocator@H@std@@XV?$task@X@Concurrency@@@std@@EEAAX_N@Z 000000018002cbf0 f i _nodert_generated.obj
 0001:0002bbf0       ?_Delete_this@?$_Func_impl@V<lambda_96e3cb59543c51283fb296f13d4d1869>@@V?$allocator@H@std@@XV?$task@X@Concurrency@@@std@@EEAAX_N@Z 000000018002cbf0 f i _nodert_generated.obj
 0001:0002bbf0       ?_Delete_this@?$_Func_impl@V<lambda_bc7991a92a1c32ef2be42f4896124f6c>@@V?$allocator@H@std@@XV?$task@X@Concurrency@@@std@@EEAAX_N@Z 000000018002cbf0 f i _nodert_generated.obj
 0001:0002bc10       ?_Target_type@?$_Func_impl@V<lambda_bc7991a92a1c32ef2be42f4896124f6c>@@V?$allocator@H@std@@XV?$task@X@Concurrency@@@std@@EEBAAEBVtype_info@@XZ 000000018002cc10 f i _nodert_generated.obj
 0001:0002bc20       ?_Do_call@?$_Func_impl@V<lambda_bc7991a92a1c32ef2be42f4896124f6c>@@V?$allocator@H@std@@XV?$task@X@Concurrency@@@std@@EEAAX$$QEAV?$task@X@Concurrency@@@Z 000000018002cc20 f i _nodert_generated.obj
 0001:0002bc60       ?_Move@?$_Func_impl@V<lambda_bc7991a92a1c32ef2be42f4896124f6c>@@V?$allocator@H@std@@XV?$task@X@Concurrency@@@std@@EEAAPEAV?$_Func_base@XV?$task@X@Concurrency@@@2@PEAX@Z 000000018002cc60 f i _nodert_generated.obj
 0001:0002bc60       ?_Copy@?$_Func_impl@V<lambda_bc7991a92a1c32ef2be42f4896124f6c>@@V?$allocator@H@std@@XV?$task@X@Concurrency@@@std@@EEBAPEAV?$_Func_base@XV?$task@X@Concurrency@@@2@PEAX@Z 000000018002cc60 f i _nodert_generated.obj
 0001:0002bc80       ?_Delete_this@?$_Func_impl@V<lambda_0a2bdc002657507cd74ae718c4dfbbbd>@@V?$allocator@H@std@@XV?$task@PE$AAUIRandomAccessStream@Streams@Storage@Windows@@@Concurrency@@@std@@EEAAX_N@Z 000000018002cc80 f i _nodert_generated.obj
 0001:0002bca0       ?_Target_type@?$_Func_impl@V<lambda_0a2bdc002657507cd74ae718c4dfbbbd>@@V?$allocator@H@std@@XV?$task@PE$AAUIRandomAccessStream@Streams@Storage@Windows@@@Concurrency@@@std@@EEBAAEBVtype_info@@XZ 000000018002cca0 f i _nodert_generated.obj
 0001:0002bcb0       ?_Do_call@?$_Func_impl@V<lambda_0a2bdc002657507cd74ae718c4dfbbbd>@@V?$allocator@H@std@@XV?$task@PE$AAUIRandomAccessStream@Streams@Storage@Windows@@@Concurrency@@@std@@EEAAX$$QEAV?$task@PE$AAUIRandomAccessStream@Streams@Storage@Windows@@@Concurrency@@@Z 000000018002ccb0 f i _nodert_generated.obj
 0001:0002bcf0       ?_Copy@?$_Func_impl@V<lambda_0a2bdc002657507cd74ae718c4dfbbbd>@@V?$allocator@H@std@@XV?$task@PE$AAUIRandomAccessStream@Streams@Storage@Windows@@@Concurrency@@@std@@EEBAPEAV?$_Func_base@XV?$task@PE$AAUIRandomAccessStream@Streams@Storage@Windows@@@Concurrency@@@2@PEAX@Z 000000018002ccf0 f i _nodert_generated.obj
 0001:0002bcf0       ?_Move@?$_Func_impl@V<lambda_0a2bdc002657507cd74ae718c4dfbbbd>@@V?$allocator@H@std@@XV?$task@PE$AAUIRandomAccessStream@Streams@Storage@Windows@@@Concurrency@@@std@@EEAAPEAV?$_Func_base@XV?$task@PE$AAUIRandomAccessStream@Streams@Storage@Windows@@@Concurrency@@@2@PEAX@Z 000000018002ccf0 f i _nodert_generated.obj
 0001:0002bd10       ?_Target_type@?$_Func_impl@V<lambda_0cda8732cc934001c51aae542286f6ed>@@V?$allocator@H@std@@XV?$task@X@Concurrency@@@std@@EEBAAEBVtype_info@@XZ 000000018002cd10 f i _nodert_generated.obj
 0001:0002bd20       ?_Do_call@?$_Func_impl@V<lambda_0cda8732cc934001c51aae542286f6ed>@@V?$allocator@H@std@@XV?$task@X@Concurrency@@@std@@EEAAX$$QEAV?$task@X@Concurrency@@@Z 000000018002cd20 f i _nodert_generated.obj
 0001:0002bd60       ?_Copy@?$_Func_impl@V<lambda_0cda8732cc934001c51aae542286f6ed>@@V?$allocator@H@std@@XV?$task@X@Concurrency@@@std@@EEBAPEAV?$_Func_base@XV?$task@X@Concurrency@@@2@PEAX@Z 000000018002cd60 f i _nodert_generated.obj
 0001:0002bd60       ?_Move@?$_Func_impl@V<lambda_0cda8732cc934001c51aae542286f6ed>@@V?$allocator@H@std@@XV?$task@X@Concurrency@@@std@@EEAAPEAV?$_Func_base@XV?$task@X@Concurrency@@@2@PEAX@Z 000000018002cd60 f i _nodert_generated.obj
 0001:0002bd80       ?_Delete_this@?$_Func_impl@V<lambda_e4093e3535e756778c15aedef34d51e2>@@V?$allocator@H@std@@XV?$task@PE$AAVKeyCredentialRetrievalResult@Credentials@Security@Windows@@@Concurrency@@@std@@EEAAX_N@Z 000000018002cd80 f i _nodert_generated.obj
 0001:0002bd80       ?_Delete_this@?$_Func_impl@V<lambda_949d2347ed2e144726609cfa5ee5b5bb>@@V?$allocator@H@std@@XV?$task@PE$AAVKeyCredentialRetrievalResult@Credentials@Security@Windows@@@Concurrency@@@std@@EEAAX_N@Z 000000018002cd80 f i _nodert_generated.obj
 0001:0002bda0       ?_Target_type@?$_Func_impl@V<lambda_949d2347ed2e144726609cfa5ee5b5bb>@@V?$allocator@H@std@@XV?$task@PE$AAVKeyCredentialRetrievalResult@Credentials@Security@Windows@@@Concurrency@@@std@@EEBAAEBVtype_info@@XZ 000000018002cda0 f i _nodert_generated.obj
 0001:0002bdb0       ?_Do_call@?$_Func_impl@V<lambda_949d2347ed2e144726609cfa5ee5b5bb>@@V?$allocator@H@std@@XV?$task@PE$AAVKeyCredentialRetrievalResult@Credentials@Security@Windows@@@Concurrency@@@std@@EEAAX$$QEAV?$task@PE$AAVKeyCredentialRetrievalResult@Credentials@Security@Windows@@@Concurrency@@@Z 000000018002cdb0 f i _nodert_generated.obj
 0001:0002bdf0       ?_Copy@?$_Func_impl@V<lambda_949d2347ed2e144726609cfa5ee5b5bb>@@V?$allocator@H@std@@XV?$task@PE$AAVKeyCredentialRetrievalResult@Credentials@Security@Windows@@@Concurrency@@@std@@EEBAPEAV?$_Func_base@XV?$task@PE$AAVKeyCredentialRetrievalResult@Credentials@Security@Windows@@@Concurrency@@@2@PEAX@Z 000000018002cdf0 f i _nodert_generated.obj
 0001:0002bdf0       ?_Move@?$_Func_impl@V<lambda_949d2347ed2e144726609cfa5ee5b5bb>@@V?$allocator@H@std@@XV?$task@PE$AAVKeyCredentialRetrievalResult@Credentials@Security@Windows@@@Concurrency@@@std@@EEAAPEAV?$_Func_base@XV?$task@PE$AAVKeyCredentialRetrievalResult@Credentials@Security@Windows@@@Concurrency@@@2@PEAX@Z 000000018002cdf0 f i _nodert_generated.obj
 0001:0002be10       ?_Target_type@?$_Func_impl@V<lambda_e4093e3535e756778c15aedef34d51e2>@@V?$allocator@H@std@@XV?$task@PE$AAVKeyCredentialRetrievalResult@Credentials@Security@Windows@@@Concurrency@@@std@@EEBAAEBVtype_info@@XZ 000000018002ce10 f i _nodert_generated.obj
 0001:0002be20       ?_Do_call@?$_Func_impl@V<lambda_e4093e3535e756778c15aedef34d51e2>@@V?$allocator@H@std@@XV?$task@PE$AAVKeyCredentialRetrievalResult@Credentials@Security@Windows@@@Concurrency@@@std@@EEAAX$$QEAV?$task@PE$AAVKeyCredentialRetrievalResult@Credentials@Security@Windows@@@Concurrency@@@Z 000000018002ce20 f i _nodert_generated.obj
 0001:0002be60       ?_Copy@?$_Func_impl@V<lambda_e4093e3535e756778c15aedef34d51e2>@@V?$allocator@H@std@@XV?$task@PE$AAVKeyCredentialRetrievalResult@Credentials@Security@Windows@@@Concurrency@@@std@@EEBAPEAV?$_Func_base@XV?$task@PE$AAVKeyCredentialRetrievalResult@Credentials@Security@Windows@@@Concurrency@@@2@PEAX@Z 000000018002ce60 f i _nodert_generated.obj
 0001:0002be60       ?_Move@?$_Func_impl@V<lambda_e4093e3535e756778c15aedef34d51e2>@@V?$allocator@H@std@@XV?$task@PE$AAVKeyCredentialRetrievalResult@Credentials@Security@Windows@@@Concurrency@@@std@@EEAAPEAV?$_Func_base@XV?$task@PE$AAVKeyCredentialRetrievalResult@Credentials@Security@Windows@@@Concurrency@@@2@PEAX@Z 000000018002ce60 f i _nodert_generated.obj
 0001:0002be80       ?_Target_type@?$_Func_impl@V<lambda_96e3cb59543c51283fb296f13d4d1869>@@V?$allocator@H@std@@XV?$task@X@Concurrency@@@std@@EEBAAEBVtype_info@@XZ 000000018002ce80 f i _nodert_generated.obj
 0001:0002be90       ?_Do_call@?$_Func_impl@V<lambda_96e3cb59543c51283fb296f13d4d1869>@@V?$allocator@H@std@@XV?$task@X@Concurrency@@@std@@EEAAX$$QEAV?$task@X@Concurrency@@@Z 000000018002ce90 f i _nodert_generated.obj
 0001:0002bed0       ?_Copy@?$_Func_impl@V<lambda_96e3cb59543c51283fb296f13d4d1869>@@V?$allocator@H@std@@XV?$task@X@Concurrency@@@std@@EEBAPEAV?$_Func_base@XV?$task@X@Concurrency@@@2@PEAX@Z 000000018002ced0 f i _nodert_generated.obj
 0001:0002bed0       ?_Move@?$_Func_impl@V<lambda_96e3cb59543c51283fb296f13d4d1869>@@V?$allocator@H@std@@XV?$task@X@Concurrency@@@std@@EEAAPEAV?$_Func_base@XV?$task@X@Concurrency@@@2@PEAX@Z 000000018002ced0 f i _nodert_generated.obj
 0001:0002bef0       ?_Delete_this@?$_Func_impl@V<lambda_2b88f7f64ad9eedeacf2546afbf6e3c4>@@V?$allocator@H@std@@XV?$task@_N@Concurrency@@@std@@EEAAX_N@Z 000000018002cef0 f i _nodert_generated.obj
 0001:0002bf10       ?_Target_type@?$_Func_impl@V<lambda_2b88f7f64ad9eedeacf2546afbf6e3c4>@@V?$allocator@H@std@@XV?$task@_N@Concurrency@@@std@@EEBAAEBVtype_info@@XZ 000000018002cf10 f i _nodert_generated.obj
 0001:0002bf20       ?_Do_call@?$_Func_impl@V<lambda_2b88f7f64ad9eedeacf2546afbf6e3c4>@@V?$allocator@H@std@@XV?$task@_N@Concurrency@@@std@@EEAAX$$QEAV?$task@_N@Concurrency@@@Z 000000018002cf20 f i _nodert_generated.obj
 0001:0002bf60       ?_Move@?$_Func_impl@V<lambda_2b88f7f64ad9eedeacf2546afbf6e3c4>@@V?$allocator@H@std@@XV?$task@_N@Concurrency@@@std@@EEAAPEAV?$_Func_base@XV?$task@_N@Concurrency@@@2@PEAX@Z 000000018002cf60 f i _nodert_generated.obj
 0001:0002bf60       ?_Copy@?$_Func_impl@V<lambda_2b88f7f64ad9eedeacf2546afbf6e3c4>@@V?$allocator@H@std@@XV?$task@_N@Concurrency@@@std@@EEBAPEAV?$_Func_base@XV?$task@_N@Concurrency@@@2@PEAX@Z 000000018002cf60 f i _nodert_generated.obj
 0001:0002bf80       ?_Delete_this@?$_Func_impl@V<lambda_54a3ae4835dd5cf44f02a0eeadada84b>@@V?$allocator@H@std@@XV?$task@PE$AAVKeyCredentialAttestationResult@Credentials@Security@Windows@@@Concurrency@@@std@@EEAAX_N@Z 000000018002cf80 f i _nodert_generated.obj
 0001:0002bfa0       ?_Target_type@?$_Func_impl@V<lambda_54a3ae4835dd5cf44f02a0eeadada84b>@@V?$allocator@H@std@@XV?$task@PE$AAVKeyCredentialAttestationResult@Credentials@Security@Windows@@@Concurrency@@@std@@EEBAAEBVtype_info@@XZ 000000018002cfa0 f i _nodert_generated.obj
 0001:0002bfb0       ?_Do_call@?$_Func_impl@V<lambda_54a3ae4835dd5cf44f02a0eeadada84b>@@V?$allocator@H@std@@XV?$task@PE$AAVKeyCredentialAttestationResult@Credentials@Security@Windows@@@Concurrency@@@std@@EEAAX$$QEAV?$task@PE$AAVKeyCredentialAttestationResult@Credentials@Security@Windows@@@Concurrency@@@Z 000000018002cfb0 f i _nodert_generated.obj
 0001:0002bff0       ?_Copy@?$_Func_impl@V<lambda_54a3ae4835dd5cf44f02a0eeadada84b>@@V?$allocator@H@std@@XV?$task@PE$AAVKeyCredentialAttestationResult@Credentials@Security@Windows@@@Concurrency@@@std@@EEBAPEAV?$_Func_base@XV?$task@PE$AAVKeyCredentialAttestationResult@Credentials@Security@Windows@@@Concurrency@@@2@PEAX@Z 000000018002cff0 f i _nodert_generated.obj
 0001:0002bff0       ?_Move@?$_Func_impl@V<lambda_54a3ae4835dd5cf44f02a0eeadada84b>@@V?$allocator@H@std@@XV?$task@PE$AAVKeyCredentialAttestationResult@Credentials@Security@Windows@@@Concurrency@@@std@@EEAAPEAV?$_Func_base@XV?$task@PE$AAVKeyCredentialAttestationResult@Credentials@Security@Windows@@@Concurrency@@@2@PEAX@Z 000000018002cff0 f i _nodert_generated.obj
 0001:0002c010       ?_Delete_this@?$_Func_impl@V<lambda_0eab81cc34bebf16b98183cb52515b9a>@@V?$allocator@H@std@@XV?$task@PE$AAVKeyCredentialOperationResult@Credentials@Security@Windows@@@Concurrency@@@std@@EEAAX_N@Z 000000018002d010 f i _nodert_generated.obj
 0001:0002c030       ?_Target_type@?$_Func_impl@V<lambda_0eab81cc34bebf16b98183cb52515b9a>@@V?$allocator@H@std@@XV?$task@PE$AAVKeyCredentialOperationResult@Credentials@Security@Windows@@@Concurrency@@@std@@EEBAAEBVtype_info@@XZ 000000018002d030 f i _nodert_generated.obj
 0001:0002c040       ?_Do_call@?$_Func_impl@V<lambda_0eab81cc34bebf16b98183cb52515b9a>@@V?$allocator@H@std@@XV?$task@PE$AAVKeyCredentialOperationResult@Credentials@Security@Windows@@@Concurrency@@@std@@EEAAX$$QEAV?$task@PE$AAVKeyCredentialOperationResult@Credentials@Security@Windows@@@Concurrency@@@Z 000000018002d040 f i _nodert_generated.obj
 0001:0002c080       ?_Copy@?$_Func_impl@V<lambda_0eab81cc34bebf16b98183cb52515b9a>@@V?$allocator@H@std@@XV?$task@PE$AAVKeyCredentialOperationResult@Credentials@Security@Windows@@@Concurrency@@@std@@EEBAPEAV?$_Func_base@XV?$task@PE$AAVKeyCredentialOperationResult@Credentials@Security@Windows@@@Concurrency@@@2@PEAX@Z 000000018002d080 f i _nodert_generated.obj
 0001:0002c080       ?_Move@?$_Func_impl@V<lambda_0eab81cc34bebf16b98183cb52515b9a>@@V?$allocator@H@std@@XV?$task@PE$AAVKeyCredentialOperationResult@Credentials@Security@Windows@@@Concurrency@@@std@@EEAAPEAV?$_Func_base@XV?$task@PE$AAVKeyCredentialOperationResult@Credentials@Security@Windows@@@Concurrency@@@2@PEAX@Z 000000018002d080 f i _nodert_generated.obj
 0001:0002c0a0       ?_SetUnwrappedAsyncOp@?$_Task_impl@PE$AAUIRandomAccessStream@Streams@Storage@Windows@@@details@Concurrency@@QEAAXPE$AAU?$IAsyncOperation@PE$AAUIRandomAccessStream@Streams@Storage@Windows@@@Foundation@Windows@@@Z 000000018002d0a0 f i _nodert_generated.obj
 0001:0002c1d0       ?_FinalizeAndRunContinuations@?$_Task_impl@PE$AAUIRandomAccessStream@Streams@Storage@Windows@@@details@Concurrency@@QEAAXPE$AAUIRandomAccessStream@Streams@Storage@Windows@@@Z 000000018002d1d0 f i _nodert_generated.obj
 0001:0002c2a0       ??0?$_Task_impl@PE$AAUIRandomAccessStream@Streams@Storage@Windows@@@details@Concurrency@@QEAA@PEAV_CancellationTokenState@12@Uscheduler_ptr@2@@Z 000000018002d2a0 f i _nodert_generated.obj
 0001:0002c370       ?_SetUnwrappedAsyncOp@?$_Task_impl@PE$AAVKeyCredentialRetrievalResult@Credentials@Security@Windows@@@details@Concurrency@@QEAAXPE$AAU?$IAsyncOperation@PE$AAVKeyCredentialRetrievalResult@Credentials@Security@Windows@@@Foundation@Windows@@@Z 000000018002d370 f i _nodert_generated.obj
 0001:0002c4a0       ?_FinalizeAndRunContinuations@?$_Task_impl@PE$AAVKeyCredentialRetrievalResult@Credentials@Security@Windows@@@details@Concurrency@@QEAAXPE$AAVKeyCredentialRetrievalResult@Credentials@Security@Windows@@@Z 000000018002d4a0 f i _nodert_generated.obj
 0001:0002c4a0       ?_FinalizeAndRunContinuations@?$_Task_impl@PE$AAVKeyCredentialAttestationResult@Credentials@Security@Windows@@@details@Concurrency@@QEAAXPE$AAVKeyCredentialAttestationResult@Credentials@Security@Windows@@@Z 000000018002d4a0 f i _nodert_generated.obj
 0001:0002c4a0       ?_FinalizeAndRunContinuations@?$_Task_impl@PE$AAVKeyCredentialOperationResult@Credentials@Security@Windows@@@details@Concurrency@@QEAAXPE$AAVKeyCredentialOperationResult@Credentials@Security@Windows@@@Z 000000018002d4a0 f i _nodert_generated.obj
 0001:0002c590       ??0?$_Task_impl@PE$AAVKeyCredentialRetrievalResult@Credentials@Security@Windows@@@details@Concurrency@@QEAA@PEAV_CancellationTokenState@12@Uscheduler_ptr@2@@Z 000000018002d590 f i _nodert_generated.obj
 0001:0002c650       ?_SetUnwrappedAsyncOp@?$_Task_impl@PE$AAVKeyCredentialAttestationResult@Credentials@Security@Windows@@@details@Concurrency@@QEAAXPE$AAU?$IAsyncOperation@PE$AAVKeyCredentialAttestationResult@Credentials@Security@Windows@@@Foundation@Windows@@@Z 000000018002d650 f i _nodert_generated.obj
 0001:0002c780       ??0?$_Task_impl@PE$AAVKeyCredentialAttestationResult@Credentials@Security@Windows@@@details@Concurrency@@QEAA@PEAV_CancellationTokenState@12@Uscheduler_ptr@2@@Z 000000018002d780 f i _nodert_generated.obj
 0001:0002c840       ?_SetUnwrappedAsyncOp@?$_Task_impl@PE$AAVKeyCredentialOperationResult@Credentials@Security@Windows@@@details@Concurrency@@QEAAXPE$AAU?$IAsyncOperation@PE$AAVKeyCredentialOperationResult@Credentials@Security@Windows@@@Foundation@Windows@@@Z 000000018002d840 f i _nodert_generated.obj
 0001:0002c970       ??0?$_Task_impl@PE$AAVKeyCredentialOperationResult@Credentials@Security@Windows@@@details@Concurrency@@QEAA@PEAV_CancellationTokenState@12@Uscheduler_ptr@2@@Z 000000018002d970 f i _nodert_generated.obj
 0001:0002ca30       ?_SetUnwrappedAsyncOp@?$_Task_impl@_N@details@Concurrency@@QEAAXPE$AAU?$IAsyncOperation@_N@Foundation@Windows@@@Z 000000018002da30 f i _nodert_generated.obj
 0001:0002cb60       ??0?$_Task_impl@_N@details@Concurrency@@QEAA@PEAV_CancellationTokenState@12@Uscheduler_ptr@2@@Z 000000018002db60 f i _nodert_generated.obj
 0001:0002cc10       ??4?$Agile@PE$AAUIRandomAccessStream@Streams@Storage@Windows@@$00@Platform@@QEAAAEAV01@PE$AAUIRandomAccessStream@Streams@Storage@Windows@@@Z 000000018002dc10 f i _nodert_generated.obj
 0001:0002cd60       ?GetResults@?$IAsyncOperation@PE$AAVKeyCredentialOperationResult@Credentials@Security@Windows@@@Foundation@Windows@@UE$AAAPE$AAVKeyCredentialOperationResult@Credentials@Security@3@XZ 000000018002dd60 f i _nodert_generated.obj
 0001:0002cd60       ?GetResults@?$IAsyncOperation@PE$AAUIRandomAccessStream@Streams@Storage@Windows@@@Foundation@Windows@@UE$AAAPE$AAUIRandomAccessStream@Streams@Storage@3@XZ 000000018002dd60 f i _nodert_generated.obj
 0001:0002cd60       ?GetResults@?$IAsyncOperation@PE$AAVKeyCredentialAttestationResult@Credentials@Security@Windows@@@Foundation@Windows@@UE$AAAPE$AAVKeyCredentialAttestationResult@Credentials@Security@3@XZ 000000018002dd60 f i _nodert_generated.obj
 0001:0002cd60       ?GetResults@?$IAsyncOperation@PE$AAVKeyCredentialRetrievalResult@Credentials@Security@Windows@@@Foundation@Windows@@UE$AAAPE$AAVKeyCredentialRetrievalResult@Credentials@Security@3@XZ 000000018002dd60 f i _nodert_generated.obj
 0001:0002cdc0       ??$?0V<lambda_9c267cdafd8e064f323ec4e1c7ae30d4>@@@?$AsyncOperationCompletedHandler@_N@Foundation@Windows@@QE$AAA@V<lambda_9c267cdafd8e064f323ec4e1c7ae30d4>@@W4CallbackContext@Platform@@_N@Z 000000018002ddc0 f i _nodert_generated.obj
 0001:0002cec0       ??$_Reset@V<lambda_74ae016dfde5e451a517e9bd4d394eaf>@@@?$_Func_class@EV?$task@PE$AAUIRandomAccessStream@Streams@Storage@Windows@@@Concurrency@@@std@@IEAAX$$QEAV<lambda_74ae016dfde5e451a517e9bd4d394eaf>@@@Z 000000018002dec0 f i _nodert_generated.obj
 0001:0002cf70       ??$_Reset@V<lambda_5a75c12d63d0c3728b9cf388a8587909>@@@?$_Func_class@EV?$task@PE$AAVKeyCredentialRetrievalResult@Credentials@Security@Windows@@@Concurrency@@@std@@IEAAX$$QEAV<lambda_5a75c12d63d0c3728b9cf388a8587909>@@@Z 000000018002df70 f i _nodert_generated.obj
 0001:0002cff0       ??$_Reset@V<lambda_5a1c437f17fa466aabaf7b0153a0ecc3>@@@?$_Func_class@EV?$task@_N@Concurrency@@@std@@IEAAX$$QEAV<lambda_5a1c437f17fa466aabaf7b0153a0ecc3>@@@Z 000000018002dff0 f i _nodert_generated.obj
 0001:0002d0a0       ??$_Reset@V<lambda_06afde9e14e9caafbc5fb4341b3d2c63>@@@?$_Func_class@EV?$task@PE$AAVKeyCredentialAttestationResult@Credentials@Security@Windows@@@Concurrency@@@std@@IEAAX$$QEAV<lambda_06afde9e14e9caafbc5fb4341b3d2c63>@@@Z 000000018002e0a0 f i _nodert_generated.obj
 0001:0002d150       ??$_Reset@V<lambda_4c26654467069cc6eb8c50b38bff689e>@@@?$_Func_class@EV?$task@PE$AAVKeyCredentialOperationResult@Credentials@Security@Windows@@@Concurrency@@@std@@IEAAX$$QEAV<lambda_4c26654467069cc6eb8c50b38bff689e>@@@Z 000000018002e150 f i _nodert_generated.obj
 0001:0002d200       ??$_Reset@V<lambda_d4a8bb1d3b7ec2bea7766c2745f0ce11>@@@?$_Func_class@EV?$task@X@Concurrency@@@std@@IEAAX$$QEAV<lambda_d4a8bb1d3b7ec2bea7766c2745f0ce11>@@@Z 000000018002e200 f i _nodert_generated.obj
 0001:0002d280       ??$?0V<lambda_fd18366eea5f0418880043da18fa5bb0>@@@?$AsyncOperationCompletedHandler@PE$AAUIRandomAccessStream@Streams@Storage@Windows@@@Foundation@Windows@@QE$AAA@V<lambda_fd18366eea5f0418880043da18fa5bb0>@@W4CallbackContext@Platform@@_N@Z 000000018002e280 f i _nodert_generated.obj
 0001:0002d380       ??$?0V<lambda_2b98d90c94c1151452b829038abfb7b9>@@@?$AsyncOperationCompletedHandler@PE$AAVKeyCredentialRetrievalResult@Credentials@Security@Windows@@@Foundation@Windows@@QE$AAA@V<lambda_2b98d90c94c1151452b829038abfb7b9>@@W4CallbackContext@Platform@@_N@Z 000000018002e380 f i _nodert_generated.obj
 0001:0002d480       ??$?0V<lambda_43ab25c1adb7f0973938ee962788b436>@@@?$AsyncOperationCompletedHandler@PE$AAVKeyCredentialAttestationResult@Credentials@Security@Windows@@@Foundation@Windows@@QE$AAA@V<lambda_43ab25c1adb7f0973938ee962788b436>@@W4CallbackContext@Platform@@_N@Z 000000018002e480 f i _nodert_generated.obj
 0001:0002d580       ??$?0V<lambda_622dcd01706df0ad4e9faa2cac78f8d3>@@@?$AsyncOperationCompletedHandler@PE$AAVKeyCredentialOperationResult@Credentials@Security@Windows@@@Foundation@Windows@@QE$AAA@V<lambda_622dcd01706df0ad4e9faa2cac78f8d3>@@W4CallbackContext@Platform@@_N@Z 000000018002e580 f i _nodert_generated.obj
 0001:0002d680       ??$?4V<lambda_238a318ebb7e5433e50faddafa53240b>@@XX@?$function@$$A6AXXZ@std@@QEAAAEAV01@$$QEAV<lambda_238a318ebb7e5433e50faddafa53240b>@@@Z 000000018002e680 f i _nodert_generated.obj
 0001:0002d750       ??$?4V<lambda_d0cf62236daec0328959214a2f29896a>@@XX@?$function@$$A6AXXZ@std@@QEAAAEAV01@$$QEAV<lambda_d0cf62236daec0328959214a2f29896a>@@@Z 000000018002e750 f i _nodert_generated.obj
 0001:0002d820       ??$?4V<lambda_a5363457c4d466f90c086109afe11dcf>@@XX@?$function@$$A6AXXZ@std@@QEAAAEAV01@$$QEAV<lambda_a5363457c4d466f90c086109afe11dcf>@@@Z 000000018002e820 f i _nodert_generated.obj
 0001:0002d8f0       ??$?4V<lambda_9d079450eaf16b73597a4dc875594ea3>@@XX@?$function@$$A6AXXZ@std@@QEAAAEAV01@$$QEAV<lambda_9d079450eaf16b73597a4dc875594ea3>@@@Z 000000018002e8f0 f i _nodert_generated.obj
 0001:0002d9c0       ??$?4V<lambda_0c35f08fa008bd0bd75f4471027a7740>@@XX@?$function@$$A6AXXZ@std@@QEAAAEAV01@$$QEAV<lambda_0c35f08fa008bd0bd75f4471027a7740>@@@Z 000000018002e9c0 f i _nodert_generated.obj
 0001:0002da90       ??$swap@PE$AAUIRandomAccessStream@Streams@Storage@Windows@@X@std@@YAXAEAPE$AAUIRandomAccessStream@Streams@Storage@Windows@@0@Z 000000018002ea90 f i _nodert_generated.obj
 0001:0002db40       ?Invoke@?$__abi_FunctorCapture@V<lambda_622dcd01706df0ad4e9faa2cac78f8d3>@@XPE$AAU?$IAsyncOperation@PE$AAVKeyCredentialOperationResult@Credentials@Security@Windows@@@Foundation@Windows@@W4AsyncStatus@34@@Details@Platform@@UEAAXPE$AAU?$IAsyncOperation@PE$AAVKeyCredentialOperationResult@Credentials@Security@Windows@@@Foundation@Windows@@W4AsyncStatus@56@@Z 000000018002eb40 f i _nodert_generated.obj
 0001:0002db40       ?Invoke@?$__abi_FunctorCapture@V<lambda_43ab25c1adb7f0973938ee962788b436>@@XPE$AAU?$IAsyncOperation@PE$AAVKeyCredentialAttestationResult@Credentials@Security@Windows@@@Foundation@Windows@@W4AsyncStatus@34@@Details@Platform@@UEAAXPE$AAU?$IAsyncOperation@PE$AAVKeyCredentialAttestationResult@Credentials@Security@Windows@@@Foundation@Windows@@W4AsyncStatus@56@@Z 000000018002eb40 f i _nodert_generated.obj
 0001:0002db40       ?Invoke@?$__abi_FunctorCapture@V<lambda_2b98d90c94c1151452b829038abfb7b9>@@XPE$AAU?$IAsyncOperation@PE$AAVKeyCredentialRetrievalResult@Credentials@Security@Windows@@@Foundation@Windows@@W4AsyncStatus@34@@Details@Platform@@UEAAXPE$AAU?$IAsyncOperation@PE$AAVKeyCredentialRetrievalResult@Credentials@Security@Windows@@@Foundation@Windows@@W4AsyncStatus@56@@Z 000000018002eb40 f i _nodert_generated.obj
 0001:0002db50       ??0?$__abi_FunctorCapture@V<lambda_622dcd01706df0ad4e9faa2cac78f8d3>@@XPE$AAU?$IAsyncOperation@PE$AAVKeyCredentialOperationResult@Credentials@Security@Windows@@@Foundation@Windows@@W4AsyncStatus@34@@Details@Platform@@QEAA@V<lambda_622dcd01706df0ad4e9faa2cac78f8d3>@@@Z 000000018002eb50 f i _nodert_generated.obj
 0001:0002dbf0       ??0?$__abi_FunctorCapture@V<lambda_43ab25c1adb7f0973938ee962788b436>@@XPE$AAU?$IAsyncOperation@PE$AAVKeyCredentialAttestationResult@Credentials@Security@Windows@@@Foundation@Windows@@W4AsyncStatus@34@@Details@Platform@@QEAA@V<lambda_43ab25c1adb7f0973938ee962788b436>@@@Z 000000018002ebf0 f i _nodert_generated.obj
 0001:0002dc90       ??0?$__abi_FunctorCapture@V<lambda_2b98d90c94c1151452b829038abfb7b9>@@XPE$AAU?$IAsyncOperation@PE$AAVKeyCredentialRetrievalResult@Credentials@Security@Windows@@@Foundation@Windows@@W4AsyncStatus@34@@Details@Platform@@QEAA@V<lambda_2b98d90c94c1151452b829038abfb7b9>@@@Z 000000018002ec90 f i _nodert_generated.obj
 0001:0002dd30       ?Invoke@?$__abi_FunctorCapture@V<lambda_fd18366eea5f0418880043da18fa5bb0>@@XPE$AAU?$IAsyncOperation@PE$AAUIRandomAccessStream@Streams@Storage@Windows@@@Foundation@Windows@@W4AsyncStatus@34@@Details@Platform@@UEAAXPE$AAU?$IAsyncOperation@PE$AAUIRandomAccessStream@Streams@Storage@Windows@@@Foundation@Windows@@W4AsyncStatus@56@@Z 000000018002ed30 f i _nodert_generated.obj
 0001:0002dd40       ??0?$__abi_FunctorCapture@V<lambda_fd18366eea5f0418880043da18fa5bb0>@@XPE$AAU?$IAsyncOperation@PE$AAUIRandomAccessStream@Streams@Storage@Windows@@@Foundation@Windows@@W4AsyncStatus@34@@Details@Platform@@QEAA@V<lambda_fd18366eea5f0418880043da18fa5bb0>@@@Z 000000018002ed40 f i _nodert_generated.obj
 0001:0002dde0       ?_Delete_this@?$_Func_impl@V<lambda_fcddfbb588d6d178324b6e9cbb1f8253>@@V?$allocator@H@std@@X$$V@std@@EEAAX_N@Z 000000018002ede0 f i _nodert_generated.obj
 0001:0002de40       ?_Target_type@?$_Func_impl@V<lambda_fcddfbb588d6d178324b6e9cbb1f8253>@@V?$allocator@H@std@@X$$V@std@@EEBAAEBVtype_info@@XZ 000000018002ee40 f i _nodert_generated.obj
 0001:0002de50       ?_Do_call@?$_Func_impl@V<lambda_9d079450eaf16b73597a4dc875594ea3>@@V?$allocator@H@std@@X$$V@std@@EEAAXXZ 000000018002ee50 f i _nodert_generated.obj
 0001:0002de50       ?_Do_call@?$_Func_impl@V<lambda_fcddfbb588d6d178324b6e9cbb1f8253>@@V?$allocator@H@std@@X$$V@std@@EEAAXXZ 000000018002ee50 f i _nodert_generated.obj
 0001:0002de50       ?_Do_call@?$_Func_impl@V<lambda_238a318ebb7e5433e50faddafa53240b>@@V?$allocator@H@std@@X$$V@std@@EEAAXXZ 000000018002ee50 f i _nodert_generated.obj
 0001:0002de50       ?_Do_call@?$_Func_impl@V<lambda_0c35f08fa008bd0bd75f4471027a7740>@@V?$allocator@H@std@@X$$V@std@@EEAAXXZ 000000018002ee50 f i _nodert_generated.obj
 0001:0002de50       ?_Do_call@?$_Func_impl@V<lambda_a5363457c4d466f90c086109afe11dcf>@@V?$allocator@H@std@@X$$V@std@@EEAAXXZ 000000018002ee50 f i _nodert_generated.obj
 0001:0002de50       ?_Do_call@?$_Func_impl@V<lambda_d0cf62236daec0328959214a2f29896a>@@V?$allocator@H@std@@X$$V@std@@EEAAXXZ 000000018002ee50 f i _nodert_generated.obj
 0001:0002dec0       ?_Copy@?$_Func_impl@V<lambda_fcddfbb588d6d178324b6e9cbb1f8253>@@V?$allocator@H@std@@X$$V@std@@EEBAPEAV?$_Func_base@X$$V@2@PEAX@Z 000000018002eec0 f i _nodert_generated.obj
 0001:0002dec0       ?_Move@?$_Func_impl@V<lambda_fcddfbb588d6d178324b6e9cbb1f8253>@@V?$allocator@H@std@@X$$V@std@@EEAAPEAV?$_Func_base@X$$V@2@PEAX@Z 000000018002eec0 f i _nodert_generated.obj
 0001:0002df10       ??0?$__abi_FunctorCapture@V<lambda_9c267cdafd8e064f323ec4e1c7ae30d4>@@XPE$AAU?$IAsyncOperation@_N@Foundation@Windows@@W4AsyncStatus@34@@Details@Platform@@QEAA@V<lambda_9c267cdafd8e064f323ec4e1c7ae30d4>@@@Z 000000018002ef10 f i _nodert_generated.obj
 0001:0002dfb0       ?_Delete_this@?$_Func_impl@V<lambda_d4a8bb1d3b7ec2bea7766c2745f0ce11>@@V?$allocator@H@std@@EV?$task@X@Concurrency@@@std@@EEAAX_N@Z 000000018002efb0 f i _nodert_generated.obj
 0001:0002e020       ?_Target_type@?$_Func_impl@V<lambda_d4a8bb1d3b7ec2bea7766c2745f0ce11>@@V?$allocator@H@std@@EV?$task@X@Concurrency@@@std@@EEBAAEBVtype_info@@XZ 000000018002f020 f i _nodert_generated.obj
 0001:0002e030       ?_Do_call@?$_Func_impl@V<lambda_d4a8bb1d3b7ec2bea7766c2745f0ce11>@@V?$allocator@H@std@@EV?$task@X@Concurrency@@@std@@EEAAE$$QEAV?$task@X@Concurrency@@@Z 000000018002f030 f i _nodert_generated.obj
 0001:0002e030       ?_Do_call@?$_Func_impl@V<lambda_5a75c12d63d0c3728b9cf388a8587909>@@V?$allocator@H@std@@EV?$task@PE$AAVKeyCredentialRetrievalResult@Credentials@Security@Windows@@@Concurrency@@@std@@EEAAE$$QEAV?$task@PE$AAVKeyCredentialRetrievalResult@Credentials@Security@Windows@@@Concurrency@@@Z 000000018002f030 f i _nodert_generated.obj
 0001:0002e070       ?_Move@?$_Func_impl@V<lambda_d4a8bb1d3b7ec2bea7766c2745f0ce11>@@V?$allocator@H@std@@EV?$task@X@Concurrency@@@std@@EEAAPEAV?$_Func_base@EV?$task@X@Concurrency@@@2@PEAX@Z 000000018002f070 f i _nodert_generated.obj
 0001:0002e0e0       ?_Copy@?$_Func_impl@V<lambda_d4a8bb1d3b7ec2bea7766c2745f0ce11>@@V?$allocator@H@std@@EV?$task@X@Concurrency@@@std@@EEBAPEAV?$_Func_base@EV?$task@X@Concurrency@@@2@PEAX@Z 000000018002f0e0 f i _nodert_generated.obj
 0001:0002e0f0       ?_Delete_this@?$_Func_impl@V<lambda_4c26654467069cc6eb8c50b38bff689e>@@V?$allocator@H@std@@EV?$task@PE$AAVKeyCredentialOperationResult@Credentials@Security@Windows@@@Concurrency@@@std@@EEAAX_N@Z 000000018002f0f0 f i _nodert_generated.obj
 0001:0002e120       ?_Target_type@?$_Func_impl@V<lambda_4c26654467069cc6eb8c50b38bff689e>@@V?$allocator@H@std@@EV?$task@PE$AAVKeyCredentialOperationResult@Credentials@Security@Windows@@@Concurrency@@@std@@EEBAAEBVtype_info@@XZ 000000018002f120 f i _nodert_generated.obj
 0001:0002e130       ?_Do_call@?$_Func_impl@V<lambda_4c26654467069cc6eb8c50b38bff689e>@@V?$allocator@H@std@@EV?$task@PE$AAVKeyCredentialOperationResult@Credentials@Security@Windows@@@Concurrency@@@std@@EEAAE$$QEAV?$task@PE$AAVKeyCredentialOperationResult@Credentials@Security@Windows@@@Concurrency@@@Z 000000018002f130 f i _nodert_generated.obj
 0001:0002e170       ?_Move@?$_Func_impl@V<lambda_4c26654467069cc6eb8c50b38bff689e>@@V?$allocator@H@std@@EV?$task@PE$AAVKeyCredentialOperationResult@Credentials@Security@Windows@@@Concurrency@@@std@@EEAAPEAV?$_Func_base@EV?$task@PE$AAVKeyCredentialOperationResult@Credentials@Security@Windows@@@Concurrency@@@2@PEAX@Z 000000018002f170 f i _nodert_generated.obj
 0001:0002e200       ?_Copy@?$_Func_impl@V<lambda_4c26654467069cc6eb8c50b38bff689e>@@V?$allocator@H@std@@EV?$task@PE$AAVKeyCredentialOperationResult@Credentials@Security@Windows@@@Concurrency@@@std@@EEBAPEAV?$_Func_base@EV?$task@PE$AAVKeyCredentialOperationResult@Credentials@Security@Windows@@@Concurrency@@@2@PEAX@Z 000000018002f200 f i _nodert_generated.obj
 0001:0002e210       ?_Delete_this@?$_Func_impl@V<lambda_06afde9e14e9caafbc5fb4341b3d2c63>@@V?$allocator@H@std@@EV?$task@PE$AAVKeyCredentialAttestationResult@Credentials@Security@Windows@@@Concurrency@@@std@@EEAAX_N@Z 000000018002f210 f i _nodert_generated.obj
 0001:0002e240       ?_Target_type@?$_Func_impl@V<lambda_06afde9e14e9caafbc5fb4341b3d2c63>@@V?$allocator@H@std@@EV?$task@PE$AAVKeyCredentialAttestationResult@Credentials@Security@Windows@@@Concurrency@@@std@@EEBAAEBVtype_info@@XZ 000000018002f240 f i _nodert_generated.obj
 0001:0002e250       ?_Do_call@?$_Func_impl@V<lambda_06afde9e14e9caafbc5fb4341b3d2c63>@@V?$allocator@H@std@@EV?$task@PE$AAVKeyCredentialAttestationResult@Credentials@Security@Windows@@@Concurrency@@@std@@EEAAE$$QEAV?$task@PE$AAVKeyCredentialAttestationResult@Credentials@Security@Windows@@@Concurrency@@@Z 000000018002f250 f i _nodert_generated.obj
 0001:0002e290       ?_Move@?$_Func_impl@V<lambda_06afde9e14e9caafbc5fb4341b3d2c63>@@V?$allocator@H@std@@EV?$task@PE$AAVKeyCredentialAttestationResult@Credentials@Security@Windows@@@Concurrency@@@std@@EEAAPEAV?$_Func_base@EV?$task@PE$AAVKeyCredentialAttestationResult@Credentials@Security@Windows@@@Concurrency@@@2@PEAX@Z 000000018002f290 f i _nodert_generated.obj
 0001:0002e320       ?_Copy@?$_Func_impl@V<lambda_06afde9e14e9caafbc5fb4341b3d2c63>@@V?$allocator@H@std@@EV?$task@PE$AAVKeyCredentialAttestationResult@Credentials@Security@Windows@@@Concurrency@@@std@@EEBAPEAV?$_Func_base@EV?$task@PE$AAVKeyCredentialAttestationResult@Credentials@Security@Windows@@@Concurrency@@@2@PEAX@Z 000000018002f320 f i _nodert_generated.obj
 0001:0002e330       ?_Delete_this@?$_Func_impl@V<lambda_5a1c437f17fa466aabaf7b0153a0ecc3>@@V?$allocator@H@std@@EV?$task@_N@Concurrency@@@std@@EEAAX_N@Z 000000018002f330 f i _nodert_generated.obj
 0001:0002e360       ?_Target_type@?$_Func_impl@V<lambda_5a1c437f17fa466aabaf7b0153a0ecc3>@@V?$allocator@H@std@@EV?$task@_N@Concurrency@@@std@@EEBAAEBVtype_info@@XZ 000000018002f360 f i _nodert_generated.obj
 0001:0002e370       ?_Do_call@?$_Func_impl@V<lambda_5a1c437f17fa466aabaf7b0153a0ecc3>@@V?$allocator@H@std@@EV?$task@_N@Concurrency@@@std@@EEAAE$$QEAV?$task@_N@Concurrency@@@Z 000000018002f370 f i _nodert_generated.obj
 0001:0002e3b0       ?_Move@?$_Func_impl@V<lambda_5a1c437f17fa466aabaf7b0153a0ecc3>@@V?$allocator@H@std@@EV?$task@_N@Concurrency@@@std@@EEAAPEAV?$_Func_base@EV?$task@_N@Concurrency@@@2@PEAX@Z 000000018002f3b0 f i _nodert_generated.obj
 0001:0002e440       ?_Copy@?$_Func_impl@V<lambda_5a1c437f17fa466aabaf7b0153a0ecc3>@@V?$allocator@H@std@@EV?$task@_N@Concurrency@@@std@@EEBAPEAV?$_Func_base@EV?$task@_N@Concurrency@@@2@PEAX@Z 000000018002f440 f i _nodert_generated.obj
 0001:0002e450       ?_Delete_this@?$_Func_impl@V<lambda_5a75c12d63d0c3728b9cf388a8587909>@@V?$allocator@H@std@@EV?$task@PE$AAVKeyCredentialRetrievalResult@Credentials@Security@Windows@@@Concurrency@@@std@@EEAAX_N@Z 000000018002f450 f i _nodert_generated.obj
 0001:0002e4c0       ?_Target_type@?$_Func_impl@V<lambda_5a75c12d63d0c3728b9cf388a8587909>@@V?$allocator@H@std@@EV?$task@PE$AAVKeyCredentialRetrievalResult@Credentials@Security@Windows@@@Concurrency@@@std@@EEBAAEBVtype_info@@XZ 000000018002f4c0 f i _nodert_generated.obj
 0001:0002e4d0       ?_Move@?$_Func_impl@V<lambda_5a75c12d63d0c3728b9cf388a8587909>@@V?$allocator@H@std@@EV?$task@PE$AAVKeyCredentialRetrievalResult@Credentials@Security@Windows@@@Concurrency@@@std@@EEAAPEAV?$_Func_base@EV?$task@PE$AAVKeyCredentialRetrievalResult@Credentials@Security@Windows@@@Concurrency@@@2@PEAX@Z 000000018002f4d0 f i _nodert_generated.obj
 0001:0002e540       ?_Copy@?$_Func_impl@V<lambda_5a75c12d63d0c3728b9cf388a8587909>@@V?$allocator@H@std@@EV?$task@PE$AAVKeyCredentialRetrievalResult@Credentials@Security@Windows@@@Concurrency@@@std@@EEBAPEAV?$_Func_base@EV?$task@PE$AAVKeyCredentialRetrievalResult@Credentials@Security@Windows@@@Concurrency@@@2@PEAX@Z 000000018002f540 f i _nodert_generated.obj
 0001:0002e550       ?_Delete_this@?$_Func_impl@V<lambda_74ae016dfde5e451a517e9bd4d394eaf>@@V?$allocator@H@std@@EV?$task@PE$AAUIRandomAccessStream@Streams@Storage@Windows@@@Concurrency@@@std@@EEAAX_N@Z 000000018002f550 f i _nodert_generated.obj
 0001:0002e580       ?_Target_type@?$_Func_impl@V<lambda_74ae016dfde5e451a517e9bd4d394eaf>@@V?$allocator@H@std@@EV?$task@PE$AAUIRandomAccessStream@Streams@Storage@Windows@@@Concurrency@@@std@@EEBAAEBVtype_info@@XZ 000000018002f580 f i _nodert_generated.obj
 0001:0002e590       ?_Do_call@?$_Func_impl@V<lambda_74ae016dfde5e451a517e9bd4d394eaf>@@V?$allocator@H@std@@EV?$task@PE$AAUIRandomAccessStream@Streams@Storage@Windows@@@Concurrency@@@std@@EEAAE$$QEAV?$task@PE$AAUIRandomAccessStream@Streams@Storage@Windows@@@Concurrency@@@Z 000000018002f590 f i _nodert_generated.obj
 0001:0002e5d0       ?_Move@?$_Func_impl@V<lambda_74ae016dfde5e451a517e9bd4d394eaf>@@V?$allocator@H@std@@EV?$task@PE$AAUIRandomAccessStream@Streams@Storage@Windows@@@Concurrency@@@std@@EEAAPEAV?$_Func_base@EV?$task@PE$AAUIRandomAccessStream@Streams@Storage@Windows@@@Concurrency@@@2@PEAX@Z 000000018002f5d0 f i _nodert_generated.obj
 0001:0002e660       ?_Copy@?$_Func_impl@V<lambda_74ae016dfde5e451a517e9bd4d394eaf>@@V?$allocator@H@std@@EV?$task@PE$AAUIRandomAccessStream@Streams@Storage@Windows@@@Concurrency@@@std@@EEBAPEAV?$_Func_base@EV?$task@PE$AAUIRandomAccessStream@Streams@Storage@Windows@@@Concurrency@@@2@PEAX@Z 000000018002f660 f i _nodert_generated.obj
 0001:0002e670       ??1?$_Func_impl@V<lambda_31e5d09106ba1b018eab84dd43293d09>@@V?$allocator@H@std@@V?$Local@VValue@v8@@@v8@@PE$AAU?$IKeyValuePair@PE$AAVString@Platform@@PE$AAV12@@Collections@Foundation@Windows@@@std@@QEAA@XZ 000000018002f670 f i _nodert_generated.obj
 0001:0002e6f0       ??1?$_Func_impl@V<lambda_7c85cdcc7b722a73124a4747dd95cece>@@V?$allocator@H@std@@V?$Local@VValue@v8@@@v8@@PE$AAU?$IKeyValuePair@PE$AAVString@Platform@@PE$AAVObject@2@@Collections@Foundation@Windows@@@std@@QEAA@XZ 000000018002f6f0 f i _nodert_generated.obj
 0001:0002e770       ??1?$_Func_impl@V<lambda_f25c37099038263181b5186a3fa41b37>@@V?$allocator@H@std@@X$$V@std@@QEAA@XZ 000000018002f770 f i _nodert_generated.obj
 0001:0002e810       ??0?$function@$$A6AXHPEAV?$Local@VValue@v8@@@v8@@@Z@std@@QEAA@$$QEAV01@@Z 000000018002f810 f i _nodert_generated.obj
 0001:0002e8a0       ??1?$_Func_base@V?$Local@VValue@v8@@@v8@@PE$AAU?$IKeyValuePair@PE$AAVString@Platform@@PE$AAV12@@Collections@Foundation@Windows@@@std@@QEAA@XZ 000000018002f8a0 f i _nodert_generated.obj
 0001:0002e8b0       ??1?$_Func_base@V?$Local@VValue@v8@@@v8@@PE$AAU?$IKeyValuePair@PE$AAVString@Platform@@PE$AAVObject@2@@Collections@Foundation@Windows@@@std@@QEAA@XZ 000000018002f8b0 f i _nodert_generated.obj
 0001:0002e8c0       ??1?$_Func_base@X$$V@std@@QEAA@XZ 000000018002f8c0 f i _nodert_generated.obj
 0001:0002e8d0       ??$_Clone@X@?$_Func_impl@V<lambda_d4a8bb1d3b7ec2bea7766c2745f0ce11>@@V?$allocator@H@std@@EV?$task@X@Concurrency@@@std@@AEBAPEAV?$_Func_base@EV?$task@X@Concurrency@@@1@PEAXU?$integral_constant@_N$00@1@@Z 000000018002f8d0 f i _nodert_generated.obj
 0001:0002e960       ??$_Clone@X@?$_Func_impl@V<lambda_4c26654467069cc6eb8c50b38bff689e>@@V?$allocator@H@std@@EV?$task@PE$AAVKeyCredentialOperationResult@Credentials@Security@Windows@@@Concurrency@@@std@@AEBAPEAV?$_Func_base@EV?$task@PE$AAVKeyCredentialOperationResult@Credentials@Security@Windows@@@Concurrency@@@1@PEAXU?$integral_constant@_N$00@1@@Z 000000018002f960 f i _nodert_generated.obj
 0001:0002ea10       ??$_Clone@X@?$_Func_impl@V<lambda_06afde9e14e9caafbc5fb4341b3d2c63>@@V?$allocator@H@std@@EV?$task@PE$AAVKeyCredentialAttestationResult@Credentials@Security@Windows@@@Concurrency@@@std@@AEBAPEAV?$_Func_base@EV?$task@PE$AAVKeyCredentialAttestationResult@Credentials@Security@Windows@@@Concurrency@@@1@PEAXU?$integral_constant@_N$00@1@@Z 000000018002fa10 f i _nodert_generated.obj
 0001:0002eac0       ??$_Clone@X@?$_Func_impl@V<lambda_5a1c437f17fa466aabaf7b0153a0ecc3>@@V?$allocator@H@std@@EV?$task@_N@Concurrency@@@std@@AEBAPEAV?$_Func_base@EV?$task@_N@Concurrency@@@1@PEAXU?$integral_constant@_N$00@1@@Z 000000018002fac0 f i _nodert_generated.obj
 0001:0002eb70       ??$_Clone@X@?$_Func_impl@V<lambda_5a75c12d63d0c3728b9cf388a8587909>@@V?$allocator@H@std@@EV?$task@PE$AAVKeyCredentialRetrievalResult@Credentials@Security@Windows@@@Concurrency@@@std@@AEBAPEAV?$_Func_base@EV?$task@PE$AAVKeyCredentialRetrievalResult@Credentials@Security@Windows@@@Concurrency@@@1@PEAXU?$integral_constant@_N$00@1@@Z 000000018002fb70 f i _nodert_generated.obj
 0001:0002ec00       ??$_Clone@X@?$_Func_impl@V<lambda_74ae016dfde5e451a517e9bd4d394eaf>@@V?$allocator@H@std@@EV?$task@PE$AAUIRandomAccessStream@Streams@Storage@Windows@@@Concurrency@@@std@@AEBAPEAV?$_Func_base@EV?$task@PE$AAUIRandomAccessStream@Streams@Storage@Windows@@@Concurrency@@@1@PEAXU?$integral_constant@_N$00@1@@Z 000000018002fc00 f i _nodert_generated.obj
 0001:0002edb0       ?_Delete_this@?$_Func_impl@V<lambda_0c35f08fa008bd0bd75f4471027a7740>@@V?$allocator@H@std@@X$$V@std@@EEAAX_N@Z 000000018002fdb0 f i _nodert_generated.obj
 0001:0002ee10       ?_Target_type@?$_Func_impl@V<lambda_0c35f08fa008bd0bd75f4471027a7740>@@V?$allocator@H@std@@X$$V@std@@EEBAAEBVtype_info@@XZ 000000018002fe10 f i _nodert_generated.obj
 0001:0002ee20       ?_Copy@?$_Func_impl@V<lambda_0c35f08fa008bd0bd75f4471027a7740>@@V?$allocator@H@std@@X$$V@std@@EEBAPEAV?$_Func_base@X$$V@2@PEAX@Z 000000018002fe20 f i _nodert_generated.obj
 0001:0002ee20       ?_Move@?$_Func_impl@V<lambda_0c35f08fa008bd0bd75f4471027a7740>@@V?$allocator@H@std@@X$$V@std@@EEAAPEAV?$_Func_base@X$$V@2@PEAX@Z 000000018002fe20 f i _nodert_generated.obj
 0001:0002ee70       ?_Delete_this@?$_Func_impl@V<lambda_9d079450eaf16b73597a4dc875594ea3>@@V?$allocator@H@std@@X$$V@std@@EEAAX_N@Z 000000018002fe70 f i _nodert_generated.obj
 0001:0002eed0       ?_Target_type@?$_Func_impl@V<lambda_9d079450eaf16b73597a4dc875594ea3>@@V?$allocator@H@std@@X$$V@std@@EEBAAEBVtype_info@@XZ 000000018002fed0 f i _nodert_generated.obj
 0001:0002eee0       ?_Copy@?$_Func_impl@V<lambda_9d079450eaf16b73597a4dc875594ea3>@@V?$allocator@H@std@@X$$V@std@@EEBAPEAV?$_Func_base@X$$V@2@PEAX@Z 000000018002fee0 f i _nodert_generated.obj
 0001:0002eee0       ?_Move@?$_Func_impl@V<lambda_9d079450eaf16b73597a4dc875594ea3>@@V?$allocator@H@std@@X$$V@std@@EEAAPEAV?$_Func_base@X$$V@2@PEAX@Z 000000018002fee0 f i _nodert_generated.obj
 0001:0002ef30       ?_Delete_this@?$_Func_impl@V<lambda_a5363457c4d466f90c086109afe11dcf>@@V?$allocator@H@std@@X$$V@std@@EEAAX_N@Z 000000018002ff30 f i _nodert_generated.obj
 0001:0002ef90       ?_Target_type@?$_Func_impl@V<lambda_a5363457c4d466f90c086109afe11dcf>@@V?$allocator@H@std@@X$$V@std@@EEBAAEBVtype_info@@XZ 000000018002ff90 f i _nodert_generated.obj
 0001:0002efa0       ?_Copy@?$_Func_impl@V<lambda_a5363457c4d466f90c086109afe11dcf>@@V?$allocator@H@std@@X$$V@std@@EEBAPEAV?$_Func_base@X$$V@2@PEAX@Z 000000018002ffa0 f i _nodert_generated.obj
 0001:0002efa0       ?_Move@?$_Func_impl@V<lambda_a5363457c4d466f90c086109afe11dcf>@@V?$allocator@H@std@@X$$V@std@@EEAAPEAV?$_Func_base@X$$V@2@PEAX@Z 000000018002ffa0 f i _nodert_generated.obj
 0001:0002eff0       ?_Delete_this@?$_Func_impl@V<lambda_d0cf62236daec0328959214a2f29896a>@@V?$allocator@H@std@@X$$V@std@@EEAAX_N@Z 000000018002fff0 f i _nodert_generated.obj
 0001:0002f050       ?_Target_type@?$_Func_impl@V<lambda_d0cf62236daec0328959214a2f29896a>@@V?$allocator@H@std@@X$$V@std@@EEBAAEBVtype_info@@XZ 0000000180030050 f i _nodert_generated.obj
 0001:0002f060       ?_Copy@?$_Func_impl@V<lambda_d0cf62236daec0328959214a2f29896a>@@V?$allocator@H@std@@X$$V@std@@EEBAPEAV?$_Func_base@X$$V@2@PEAX@Z 0000000180030060 f i _nodert_generated.obj
 0001:0002f060       ?_Move@?$_Func_impl@V<lambda_d0cf62236daec0328959214a2f29896a>@@V?$allocator@H@std@@X$$V@std@@EEAAPEAV?$_Func_base@X$$V@2@PEAX@Z 0000000180030060 f i _nodert_generated.obj
 0001:0002f0b0       ?_Delete_this@?$_Func_impl@V<lambda_238a318ebb7e5433e50faddafa53240b>@@V?$allocator@H@std@@X$$V@std@@EEAAX_N@Z 00000001800300b0 f i _nodert_generated.obj
 0001:0002f110       ?_Target_type@?$_Func_impl@V<lambda_238a318ebb7e5433e50faddafa53240b>@@V?$allocator@H@std@@X$$V@std@@EEBAAEBVtype_info@@XZ 0000000180030110 f i _nodert_generated.obj
 0001:0002f120       ?_Copy@?$_Func_impl@V<lambda_238a318ebb7e5433e50faddafa53240b>@@V?$allocator@H@std@@X$$V@std@@EEBAPEAV?$_Func_base@X$$V@2@PEAX@Z 0000000180030120 f i _nodert_generated.obj
 0001:0002f120       ?_Move@?$_Func_impl@V<lambda_238a318ebb7e5433e50faddafa53240b>@@V?$allocator@H@std@@X$$V@std@@EEAAPEAV?$_Func_base@X$$V@2@PEAX@Z 0000000180030120 f i _nodert_generated.obj
 0001:0002f170       ??0?$function@$$A6AXV?$function@$$A6AXHPEAV?$Local@VValue@v8@@@v8@@@Z@std@@@Z@std@@QEAA@$$QEAV01@@Z 0000000180030170 f i _nodert_generated.obj
 0001:0002f2f0       ??1?$_Func_impl@V<lambda_4c26654467069cc6eb8c50b38bff689e>@@V?$allocator@H@std@@EV?$task@PE$AAVKeyCredentialOperationResult@Credentials@Security@Windows@@@Concurrency@@@std@@QEAA@XZ 00000001800302f0 f i _nodert_generated.obj
 0001:0002f370       ??1?$_Func_impl@V<lambda_06afde9e14e9caafbc5fb4341b3d2c63>@@V?$allocator@H@std@@EV?$task@PE$AAVKeyCredentialAttestationResult@Credentials@Security@Windows@@@Concurrency@@@std@@QEAA@XZ 0000000180030370 f i _nodert_generated.obj
 0001:0002f3f0       ??1?$_Func_impl@V<lambda_5a1c437f17fa466aabaf7b0153a0ecc3>@@V?$allocator@H@std@@EV?$task@_N@Concurrency@@@std@@QEAA@XZ 00000001800303f0 f i _nodert_generated.obj
 0001:0002f470       ??1?$_Func_impl@V<lambda_74ae016dfde5e451a517e9bd4d394eaf>@@V?$allocator@H@std@@EV?$task@PE$AAUIRandomAccessStream@Streams@Storage@Windows@@@Concurrency@@@std@@QEAA@XZ 0000000180030470 f i _nodert_generated.obj
 0001:0002f4f0       ??1?$_Func_base@EV?$task@X@Concurrency@@@std@@QEAA@XZ 00000001800304f0 f i _nodert_generated.obj
 0001:0002f500       ??1?$_Func_base@EV?$task@PE$AAVKeyCredentialOperationResult@Credentials@Security@Windows@@@Concurrency@@@std@@QEAA@XZ 0000000180030500 f i _nodert_generated.obj
 0001:0002f510       ??1?$_Func_base@EV?$task@PE$AAVKeyCredentialAttestationResult@Credentials@Security@Windows@@@Concurrency@@@std@@QEAA@XZ 0000000180030510 f i _nodert_generated.obj
 0001:0002f520       ??1?$_Func_base@EV?$task@_N@Concurrency@@@std@@QEAA@XZ 0000000180030520 f i _nodert_generated.obj
 0001:0002f530       ??1?$_Func_base@EV?$task@PE$AAVKeyCredentialRetrievalResult@Credentials@Security@Windows@@@Concurrency@@@std@@QEAA@XZ 0000000180030530 f i _nodert_generated.obj
 0001:0002f540       ??1?$_Func_base@EV?$task@PE$AAUIRandomAccessStream@Streams@Storage@Windows@@@Concurrency@@@std@@QEAA@XZ 0000000180030540 f i _nodert_generated.obj
 0001:0002f54c       ?__abi_QueryInterface@?$MapChangedEventHandler@PE$AAVString@Platform@@PE$AAVObject@2@@Collections@Foundation@Windows@@WBA@E$AAAJAEAVGuid@Platform@@PEAPEAX@Z 000000018003054c f i _nodert_generated.obj
 0001:0002f558       ?__abi_QueryInterface@?$AsyncOperationCompletedHandler@PE$AAVKeyCredentialRetrievalResult@Credentials@Security@Windows@@@Foundation@Windows@@WBA@E$AAAJAEAVGuid@Platform@@PEAPEAX@Z 0000000180030558 f i _nodert_generated.obj
 0001:0002f564       ?__abi_QueryInterface@?QObject@Platform@@_IAsyncActionToAsyncOperationConverter@details@Concurrency@@WGA@E$AAAJAEAVGuid@2@PEAPEAX@Z 0000000180030564 f i _nodert_generated.obj
 0001:0002f570       ?__abi_AddRef@?$AsyncOperationCompletedHandler@PE$AAVKeyCredentialAttestationResult@Credentials@Security@Windows@@@Foundation@Windows@@W7E$AAAKXZ 0000000180030570 f i _nodert_generated.obj
 0001:0002f570       ?__abi_AddRef@?$AsyncOperationCompletedHandler@E@Foundation@Windows@@W7E$AAAKXZ 0000000180030570 f i _nodert_generated.obj
 0001:0002f570       ?__abi_AddRef@?$AsyncOperationCompletedHandler@PE$AAVKeyCredentialOperationResult@Credentials@Security@Windows@@@Foundation@Windows@@W7E$AAAKXZ 0000000180030570 f i _nodert_generated.obj
 0001:0002f570       ?__abi_AddRef@?$AsyncOperationCompletedHandler@PE$AAUIRandomAccessStream@Streams@Storage@Windows@@@Foundation@Windows@@W7E$AAAKXZ 0000000180030570 f i _nodert_generated.obj
 0001:0002f570       ?__abi_AddRef@?$MapChangedEventHandler@PE$AAVString@Platform@@PE$AAVObject@2@@Collections@Foundation@Windows@@W7E$AAAKXZ 0000000180030570 f i _nodert_generated.obj
 0001:0002f570       ?__abi_AddRef@?$AsyncOperationCompletedHandler@PE$AAVKeyCredentialRetrievalResult@Credentials@Security@Windows@@@Foundation@Windows@@W7E$AAAKXZ 0000000180030570 f i _nodert_generated.obj
 0001:0002f570       ?__abi_AddRef@AsyncActionCompletedHandler@Foundation@Windows@@W7E$AAAKXZ 0000000180030570 f i _nodert_generated.obj
 0001:0002f570       ?__abi_AddRef@?$AsyncOperationCompletedHandler@_N@Foundation@Windows@@W7E$AAAKXZ 0000000180030570 f i _nodert_generated.obj
 0001:0002f57c       ?__abi_Release@?$MapChangedEventHandler@PE$AAVString@Platform@@PE$AAVObject@2@@Collections@Foundation@Windows@@W7E$AAAKXZ 000000018003057c f i _nodert_generated.obj
 0001:0002f57c       ?__abi_Release@?$AsyncOperationCompletedHandler@PE$AAVKeyCredentialAttestationResult@Credentials@Security@Windows@@@Foundation@Windows@@W7E$AAAKXZ 000000018003057c f i _nodert_generated.obj
 0001:0002f57c       ?__abi_Release@AsyncActionCompletedHandler@Foundation@Windows@@W7E$AAAKXZ 000000018003057c f i _nodert_generated.obj
 0001:0002f57c       ?__abi_Release@?$AsyncOperationCompletedHandler@_N@Foundation@Windows@@W7E$AAAKXZ 000000018003057c f i _nodert_generated.obj
 0001:0002f57c       ?__abi_Release@?$AsyncOperationCompletedHandler@PE$AAVKeyCredentialOperationResult@Credentials@Security@Windows@@@Foundation@Windows@@W7E$AAAKXZ 000000018003057c f i _nodert_generated.obj
 0001:0002f57c       ?__abi_Release@?$AsyncOperationCompletedHandler@E@Foundation@Windows@@W7E$AAAKXZ 000000018003057c f i _nodert_generated.obj
 0001:0002f57c       ?__abi_Release@?$AsyncOperationCompletedHandler@PE$AAVKeyCredentialRetrievalResult@Credentials@Security@Windows@@@Foundation@Windows@@W7E$AAAKXZ 000000018003057c f i _nodert_generated.obj
 0001:0002f57c       ?__abi_Release@?$AsyncOperationCompletedHandler@PE$AAUIRandomAccessStream@Streams@Storage@Windows@@@Foundation@Windows@@W7E$AAAKXZ 000000018003057c f i _nodert_generated.obj
 0001:0002f588       ?__abi_GetTrustLevel@?$AsyncOperationCompletedHandler@PE$AAVKeyCredentialAttestationResult@Credentials@Security@Windows@@@Foundation@Windows@@W7E$AAAJPEAW4__abi_TrustLevel@@@Z 0000000180030588 f i _nodert_generated.obj
 0001:0002f588       ?__abi_GetTrustLevel@?$AsyncOperationCompletedHandler@E@Foundation@Windows@@W7E$AAAJPEAW4__abi_TrustLevel@@@Z 0000000180030588 f i _nodert_generated.obj
 0001:0002f588       ?__abi_GetTrustLevel@?$AsyncOperationCompletedHandler@PE$AAVKeyCredentialRetrievalResult@Credentials@Security@Windows@@@Foundation@Windows@@W7E$AAAJPEAW4__abi_TrustLevel@@@Z 0000000180030588 f i _nodert_generated.obj
 0001:0002f588       ?__abi_GetTrustLevel@?$AsyncOperationCompletedHandler@_N@Foundation@Windows@@W7E$AAAJPEAW4__abi_TrustLevel@@@Z 0000000180030588 f i _nodert_generated.obj
 0001:0002f588       ?__abi_GetTrustLevel@?QObject@Platform@@_IAsyncActionToAsyncOperationConverter@details@Concurrency@@W7E$AAAJPEAW4__abi_TrustLevel@@@Z 0000000180030588 f i _nodert_generated.obj
 0001:0002f588       ?__abi_GetTrustLevel@?$AsyncOperationCompletedHandler@PE$AAVKeyCredentialOperationResult@Credentials@Security@Windows@@@Foundation@Windows@@W7E$AAAJPEAW4__abi_TrustLevel@@@Z 0000000180030588 f i _nodert_generated.obj
 0001:0002f588       ?__abi_GetTrustLevel@?$MapChangedEventHandler@PE$AAVString@Platform@@PE$AAVObject@2@@Collections@Foundation@Windows@@W7E$AAAJPEAW4__abi_TrustLevel@@@Z 0000000180030588 f i _nodert_generated.obj
 0001:0002f588       ?__abi_GetTrustLevel@AsyncActionCompletedHandler@Foundation@Windows@@W7E$AAAJPEAW4__abi_TrustLevel@@@Z 0000000180030588 f i _nodert_generated.obj
 0001:0002f588       ?__abi_GetTrustLevel@?$AsyncOperationCompletedHandler@PE$AAUIRandomAccessStream@Streams@Storage@Windows@@@Foundation@Windows@@W7E$AAAJPEAW4__abi_TrustLevel@@@Z 0000000180030588 f i _nodert_generated.obj
 0001:0002f594       ?__abi_GetTrustLevel@?QObject@Platform@@_IAsyncActionToAsyncOperationConverter@details@Concurrency@@WBA@E$AAAJPEAW4__abi_TrustLevel@@@Z 0000000180030594 f i _nodert_generated.obj
 0001:0002f594       ?__abi_GetTrustLevel@?$AsyncOperationCompletedHandler@_N@Foundation@Windows@@WBA@E$AAAJPEAW4__abi_TrustLevel@@@Z 0000000180030594 f i _nodert_generated.obj
 0001:0002f594       ?__abi_GetTrustLevel@?$AsyncOperationCompletedHandler@PE$AAVKeyCredentialAttestationResult@Credentials@Security@Windows@@@Foundation@Windows@@WBA@E$AAAJPEAW4__abi_TrustLevel@@@Z 0000000180030594 f i _nodert_generated.obj
 0001:0002f594       ?__abi_GetTrustLevel@?$AsyncOperationCompletedHandler@E@Foundation@Windows@@WBA@E$AAAJPEAW4__abi_TrustLevel@@@Z 0000000180030594 f i _nodert_generated.obj
 0001:0002f594       ?__abi_GetTrustLevel@?$AsyncOperationCompletedHandler@PE$AAVKeyCredentialOperationResult@Credentials@Security@Windows@@@Foundation@Windows@@WBA@E$AAAJPEAW4__abi_TrustLevel@@@Z 0000000180030594 f i _nodert_generated.obj
 0001:0002f594       ?__abi_GetTrustLevel@?$AsyncOperationCompletedHandler@PE$AAVKeyCredentialRetrievalResult@Credentials@Security@Windows@@@Foundation@Windows@@WBA@E$AAAJPEAW4__abi_TrustLevel@@@Z 0000000180030594 f i _nodert_generated.obj
 0001:0002f594       ?__abi_GetTrustLevel@?$MapChangedEventHandler@PE$AAVString@Platform@@PE$AAVObject@2@@Collections@Foundation@Windows@@WBA@E$AAAJPEAW4__abi_TrustLevel@@@Z 0000000180030594 f i _nodert_generated.obj
 0001:0002f594       ?__abi_GetTrustLevel@?$AsyncOperationCompletedHandler@PE$AAUIRandomAccessStream@Streams@Storage@Windows@@@Foundation@Windows@@WBA@E$AAAJPEAW4__abi_TrustLevel@@@Z 0000000180030594 f i _nodert_generated.obj
 0001:0002f594       ?__abi_GetTrustLevel@AsyncActionCompletedHandler@Foundation@Windows@@WBA@E$AAAJPEAW4__abi_TrustLevel@@@Z 0000000180030594 f i _nodert_generated.obj
 0001:0002f5a0       ?__abi_Windows_Foundation_IAsyncInfo____abi_get_Id@?QIAsyncInfo@Foundation@Windows@@?$_AsyncInfoImpl@PE$AAUIAsyncAction@Foundation@Windows@@VAsyncActionCompletedHandler@23@E@details@Concurrency@@WBA@E$AAAJPEAI@Z 00000001800305a0 f i _nodert_generated.obj
 0001:0002f5ac       ?__abi_GetIids@?QObject@Platform@@_IAsyncActionToAsyncOperationConverter@details@Concurrency@@WBI@E$AAAJPEAKPEAPEAVGuid@2@@Z 00000001800305ac f i _nodert_generated.obj
 0001:0002f5b8       ?__abi_AddRef@?QObject@Platform@@_IAsyncActionToAsyncOperationConverter@details@Concurrency@@W7E$AAAKXZ 00000001800305b8 f i _nodert_generated.obj
 0001:0002f5c4       ?__abi_QueryInterface@?$AsyncOperationCompletedHandler@PE$AAVKeyCredentialAttestationResult@Credentials@Security@Windows@@@Foundation@Windows@@WBA@E$AAAJAEAVGuid@Platform@@PEAPEAX@Z 00000001800305c4 f i _nodert_generated.obj
 0001:0002f5d0       ?__abi_Platform_Details_IWeakReferenceSource____abi_GetWeakReference@?QIWeakReferenceSource@Details@Platform@@_IAsyncActionToAsyncOperationConverter@details@Concurrency@@WFI@E$AAAJPEAPE$AAUIWeakReference@23@@Z 00000001800305d0 f i _nodert_generated.obj
 0001:0002f5dc       ?Close@?QIAsyncInfo@Foundation@Windows@@?$_AsyncInfoImpl@PE$AAUIAsyncAction@Foundation@Windows@@VAsyncActionCompletedHandler@23@E@details@Concurrency@@WBA@E$AAAXXZ 00000001800305dc f i _nodert_generated.obj
 0001:0002f5e8       ?get@?Q?$IAsyncOperation@E@Foundation@Windows@@Completed@?$_AsyncInfoImpl@PE$AAUIAsyncAction@Foundation@Windows@@VAsyncActionCompletedHandler@23@E@details@Concurrency@@W7E$AAAPE$AAV?$AsyncOperationCompletedHandler@E@23@XZ 00000001800305e8 f i _nodert_generated.obj
 0001:0002f5f4       ?__abi_GetIids@AsyncActionCompletedHandler@Foundation@Windows@@W7E$AAAJPEAKPEAPEAVGuid@Platform@@@Z 00000001800305f4 f i _nodert_generated.obj
 0001:0002f600       ?__abi_Release@AsyncActionCompletedHandler@Foundation@Windows@@WBA@E$AAAKXZ 0000000180030600 f i _nodert_generated.obj
 0001:0002f600       ?__abi_Release@?$AsyncOperationCompletedHandler@PE$AAVKeyCredentialAttestationResult@Credentials@Security@Windows@@@Foundation@Windows@@WBA@E$AAAKXZ 0000000180030600 f i _nodert_generated.obj
 0001:0002f600       ?__abi_Release@?$AsyncOperationCompletedHandler@PE$AAUIRandomAccessStream@Streams@Storage@Windows@@@Foundation@Windows@@WBA@E$AAAKXZ 0000000180030600 f i _nodert_generated.obj
 0001:0002f600       ?__abi_Release@?$AsyncOperationCompletedHandler@PE$AAVKeyCredentialOperationResult@Credentials@Security@Windows@@@Foundation@Windows@@WBA@E$AAAKXZ 0000000180030600 f i _nodert_generated.obj
 0001:0002f600       ?__abi_Release@?$AsyncOperationCompletedHandler@PE$AAVKeyCredentialRetrievalResult@Credentials@Security@Windows@@@Foundation@Windows@@WBA@E$AAAKXZ 0000000180030600 f i _nodert_generated.obj
 0001:0002f600       ?__abi_Release@?$MapChangedEventHandler@PE$AAVString@Platform@@PE$AAVObject@2@@Collections@Foundation@Windows@@WBA@E$AAAKXZ 0000000180030600 f i _nodert_generated.obj
 0001:0002f600       ?__abi_Release@?$AsyncOperationCompletedHandler@E@Foundation@Windows@@WBA@E$AAAKXZ 0000000180030600 f i _nodert_generated.obj
 0001:0002f600       ?__abi_Release@?$AsyncOperationCompletedHandler@_N@Foundation@Windows@@WBA@E$AAAKXZ 0000000180030600 f i _nodert_generated.obj
 0001:0002f60c       ?__abi_GetRuntimeClassName@?$AsyncOperationCompletedHandler@E@Foundation@Windows@@W7E$AAAJPEAPEAUHSTRING__@@@Z 000000018003060c f i _nodert_generated.obj
 0001:0002f618       ?__abi_GetRuntimeClassName@?QObject@Platform@@_IAsyncActionToAsyncOperationConverter@details@Concurrency@@WCA@E$AAAJPEAPEAUHSTRING__@@@Z 0000000180030618 f i _nodert_generated.obj
 0001:0002f624       ?__abi_Windows_Foundation_IAsyncInfo____abi_Close@?QIAsyncInfo@Foundation@Windows@@?$_AsyncInfoImpl@PE$AAUIAsyncAction@Foundation@Windows@@VAsyncActionCompletedHandler@23@E@details@Concurrency@@WBA@E$AAAJXZ 0000000180030624 f i _nodert_generated.obj
 0001:0002f630       ?__abi_Windows_Foundation_?$IAsyncOperation@E____abi_get_Completed@?Q?$IAsyncOperation@E@Foundation@Windows@@?$_AsyncInfoImpl@PE$AAUIAsyncAction@Foundation@Windows@@VAsyncActionCompletedHandler@23@E@details@Concurrency@@W7E$AAAJPEAPE$AAV?$AsyncOperationCompletedHandler@E@23@@Z 0000000180030630 f i _nodert_generated.obj
 0001:0002f63c       ?__abi_GetRuntimeClassName@?$MapChangedEventHandler@PE$AAVString@Platform@@PE$AAVObject@2@@Collections@Foundation@Windows@@WBA@E$AAAJPEAPEAUHSTRING__@@@Z 000000018003063c f i _nodert_generated.obj
 0001:0002f648       ?__abi_GetIids@?$AsyncOperationCompletedHandler@_N@Foundation@Windows@@WBA@E$AAAJPEAKPEAPEAVGuid@Platform@@@Z 0000000180030648 f i _nodert_generated.obj
 0001:0002f648       ?__abi_GetIids@?$AsyncOperationCompletedHandler@E@Foundation@Windows@@WBA@E$AAAJPEAKPEAPEAVGuid@Platform@@@Z 0000000180030648 f i _nodert_generated.obj
 0001:0002f648       ?__abi_GetIids@?$AsyncOperationCompletedHandler@PE$AAVKeyCredentialRetrievalResult@Credentials@Security@Windows@@@Foundation@Windows@@WBA@E$AAAJPEAKPEAPEAVGuid@Platform@@@Z 0000000180030648 f i _nodert_generated.obj
 0001:0002f648       ?__abi_GetIids@?$AsyncOperationCompletedHandler@PE$AAUIRandomAccessStream@Streams@Storage@Windows@@@Foundation@Windows@@WBA@E$AAAJPEAKPEAPEAVGuid@Platform@@@Z 0000000180030648 f i _nodert_generated.obj
 0001:0002f648       ?__abi_GetIids@?$AsyncOperationCompletedHandler@PE$AAVKeyCredentialAttestationResult@Credentials@Security@Windows@@@Foundation@Windows@@WBA@E$AAAJPEAKPEAPEAVGuid@Platform@@@Z 0000000180030648 f i _nodert_generated.obj
 0001:0002f648       ?__abi_GetIids@?$AsyncOperationCompletedHandler@PE$AAVKeyCredentialOperationResult@Credentials@Security@Windows@@@Foundation@Windows@@WBA@E$AAAJPEAKPEAPEAVGuid@Platform@@@Z 0000000180030648 f i _nodert_generated.obj
 0001:0002f654       ?__abi_QueryInterface@?$AsyncOperationCompletedHandler@_N@Foundation@Windows@@WBA@E$AAAJAEAVGuid@Platform@@PEAPEAX@Z 0000000180030654 f i _nodert_generated.obj
 0001:0002f660       ?__abi_QueryInterface@?$AsyncOperationCompletedHandler@PE$AAVKeyCredentialOperationResult@Credentials@Security@Windows@@@Foundation@Windows@@W7E$AAAJAEAVGuid@Platform@@PEAPEAX@Z 0000000180030660 f i _nodert_generated.obj
 0001:0002f66c       ?__abi_QueryInterface@?$AsyncOperationCompletedHandler@E@Foundation@Windows@@W7E$AAAJAEAVGuid@Platform@@PEAPEAX@Z 000000018003066c f i _nodert_generated.obj
 0001:0002f678       ?GetResults@?Q?$IAsyncOperation@E@Foundation@Windows@@?$_AsyncInfoImpl@PE$AAUIAsyncAction@Foundation@Windows@@VAsyncActionCompletedHandler@23@E@details@Concurrency@@W7E$AAAEXZ 0000000180030678 f i _nodert_generated.obj
 0001:0002f684       ?__abi_Windows_Foundation_?$IAsyncOperation@E____abi_set_Completed@?Q?$IAsyncOperation@E@Foundation@Windows@@?$_AsyncInfoImpl@PE$AAUIAsyncAction@Foundation@Windows@@VAsyncActionCompletedHandler@23@E@details@Concurrency@@W7E$AAAJPE$AAV?$AsyncOperationCompletedHandler@E@23@@Z 0000000180030684 f i _nodert_generated.obj
 0001:0002f690       ?__abi_QueryInterface@AsyncActionCompletedHandler@Foundation@Windows@@WBA@E$AAAJAEAVGuid@Platform@@PEAPEAX@Z 0000000180030690 f i _nodert_generated.obj
 0001:0002f69c       ?__abi_GetRuntimeClassName@?QObject@Platform@@_IAsyncActionToAsyncOperationConverter@details@Concurrency@@WGA@E$AAAJPEAPEAUHSTRING__@@@Z 000000018003069c f i _nodert_generated.obj
 0001:0002f6a8       ?__abi_GetTrustLevel@?QObject@Platform@@_IAsyncActionToAsyncOperationConverter@details@Concurrency@@WCA@E$AAAJPEAW4__abi_TrustLevel@@@Z 00000001800306a8 f i _nodert_generated.obj
 0001:0002f6b4       ?__abi_QueryInterface@?QObject@Platform@@_IAsyncActionToAsyncOperationConverter@details@Concurrency@@W7E$AAAJAEAVGuid@2@PEAPEAX@Z 00000001800306b4 f i _nodert_generated.obj
 0001:0002f6c0       ?__abi_GetIids@?$MapChangedEventHandler@PE$AAVString@Platform@@PE$AAVObject@2@@Collections@Foundation@Windows@@WBA@E$AAAJPEAKPEAPEAVGuid@Platform@@@Z 00000001800306c0 f i _nodert_generated.obj
 0001:0002f6cc       ?__abi_QueryInterface@?$AsyncOperationCompletedHandler@PE$AAUIRandomAccessStream@Streams@Storage@Windows@@@Foundation@Windows@@WBA@E$AAAJAEAVGuid@Platform@@PEAPEAX@Z 00000001800306cc f i _nodert_generated.obj
 0001:0002f6d8       ?__abi_GetRuntimeClassName@?$AsyncOperationCompletedHandler@PE$AAVKeyCredentialAttestationResult@Credentials@Security@Windows@@@Foundation@Windows@@W7E$AAAJPEAPEAUHSTRING__@@@Z 00000001800306d8 f i _nodert_generated.obj
 0001:0002f6e4       ?__abi_Windows_Foundation_?$IAsyncOperation@E____abi_GetResults@?Q?$IAsyncOperation@E@Foundation@Windows@@?$_AsyncInfoImpl@PE$AAUIAsyncAction@Foundation@Windows@@VAsyncActionCompletedHandler@23@E@details@Concurrency@@W7E$AAAJPEAE@Z 00000001800306e4 f i _nodert_generated.obj
 0001:0002f6f0       ?__abi_Release@?QObject@Platform@@_IAsyncActionToAsyncOperationConverter@details@Concurrency@@WBA@E$AAAKXZ 00000001800306f0 f i _nodert_generated.obj
 0001:0002f6fc       ?__abi_GetRuntimeClassName@?$AsyncOperationCompletedHandler@PE$AAVKeyCredentialOperationResult@Credentials@Security@Windows@@@Foundation@Windows@@W7E$AAAJPEAPEAUHSTRING__@@@Z 00000001800306fc f i _nodert_generated.obj
 0001:0002f708       ?__abi_AddRef@?$AsyncOperationCompletedHandler@PE$AAVKeyCredentialRetrievalResult@Credentials@Security@Windows@@@Foundation@Windows@@WBA@E$AAAKXZ 0000000180030708 f i _nodert_generated.obj
 0001:0002f708       ?__abi_AddRef@?$AsyncOperationCompletedHandler@PE$AAVKeyCredentialAttestationResult@Credentials@Security@Windows@@@Foundation@Windows@@WBA@E$AAAKXZ 0000000180030708 f i _nodert_generated.obj
 0001:0002f708       ?__abi_AddRef@?$AsyncOperationCompletedHandler@PE$AAUIRandomAccessStream@Streams@Storage@Windows@@@Foundation@Windows@@WBA@E$AAAKXZ 0000000180030708 f i _nodert_generated.obj
 0001:0002f708       ?__abi_AddRef@?$AsyncOperationCompletedHandler@_N@Foundation@Windows@@WBA@E$AAAKXZ 0000000180030708 f i _nodert_generated.obj
 0001:0002f708       ?__abi_AddRef@AsyncActionCompletedHandler@Foundation@Windows@@WBA@E$AAAKXZ 0000000180030708 f i _nodert_generated.obj
 0001:0002f708       ?__abi_AddRef@?$MapChangedEventHandler@PE$AAVString@Platform@@PE$AAVObject@2@@Collections@Foundation@Windows@@WBA@E$AAAKXZ 0000000180030708 f i _nodert_generated.obj
 0001:0002f708       ?__abi_AddRef@?$AsyncOperationCompletedHandler@PE$AAVKeyCredentialOperationResult@Credentials@Security@Windows@@@Foundation@Windows@@WBA@E$AAAKXZ 0000000180030708 f i _nodert_generated.obj
 0001:0002f708       ?__abi_AddRef@?$AsyncOperationCompletedHandler@E@Foundation@Windows@@WBA@E$AAAKXZ 0000000180030708 f i _nodert_generated.obj
 0001:0002f714       ?__abi_GetTrustLevel@?QObject@Platform@@_IAsyncActionToAsyncOperationConverter@details@Concurrency@@WGA@E$AAAJPEAW4__abi_TrustLevel@@@Z 0000000180030714 f i _nodert_generated.obj
 0001:0002f720       ?__abi_GetRuntimeClassName@AsyncActionCompletedHandler@Foundation@Windows@@WBA@E$AAAJPEAPEAUHSTRING__@@@Z 0000000180030720 f i _nodert_generated.obj
 0001:0002f72c       ?__abi_GetIids@?$AsyncOperationCompletedHandler@PE$AAVKeyCredentialAttestationResult@Credentials@Security@Windows@@@Foundation@Windows@@W7E$AAAJPEAKPEAPEAVGuid@Platform@@@Z 000000018003072c f i _nodert_generated.obj
 0001:0002f72c       ?__abi_GetIids@?$AsyncOperationCompletedHandler@PE$AAVKeyCredentialRetrievalResult@Credentials@Security@Windows@@@Foundation@Windows@@W7E$AAAJPEAKPEAPEAVGuid@Platform@@@Z 000000018003072c f i _nodert_generated.obj
 0001:0002f72c       ?__abi_GetIids@?$AsyncOperationCompletedHandler@_N@Foundation@Windows@@W7E$AAAJPEAKPEAPEAVGuid@Platform@@@Z 000000018003072c f i _nodert_generated.obj
 0001:0002f72c       ?__abi_GetIids@?$AsyncOperationCompletedHandler@PE$AAUIRandomAccessStream@Streams@Storage@Windows@@@Foundation@Windows@@W7E$AAAJPEAKPEAPEAVGuid@Platform@@@Z 000000018003072c f i _nodert_generated.obj
 0001:0002f72c       ?__abi_GetIids@?$AsyncOperationCompletedHandler@PE$AAVKeyCredentialOperationResult@Credentials@Security@Windows@@@Foundation@Windows@@W7E$AAAJPEAKPEAPEAVGuid@Platform@@@Z 000000018003072c f i _nodert_generated.obj
 0001:0002f72c       ?__abi_GetIids@?$AsyncOperationCompletedHandler@E@Foundation@Windows@@W7E$AAAJPEAKPEAPEAVGuid@Platform@@@Z 000000018003072c f i _nodert_generated.obj
 0001:0002f738       ?__abi_GetIids@?QObject@Platform@@_IAsyncActionToAsyncOperationConverter@details@Concurrency@@WCA@E$AAAJPEAKPEAPEAVGuid@2@@Z 0000000180030738 f i _nodert_generated.obj
 0001:0002f744       ?__abi_AddRef@?QObject@Platform@@_IAsyncActionToAsyncOperationConverter@details@Concurrency@@WBA@E$AAAKXZ 0000000180030744 f i _nodert_generated.obj
 0001:0002f750       ?get@?QIAsyncInfo@Foundation@Windows@@Status@?$_AsyncInfoImpl@PE$AAUIAsyncAction@Foundation@Windows@@VAsyncActionCompletedHandler@23@E@details@Concurrency@@WBA@E$AAA?AW4AsyncStatus@23@XZ 0000000180030750 f i _nodert_generated.obj
 0001:0002f75c       ?__abi_GetRuntimeClassName@?QObject@Platform@@_IAsyncActionToAsyncOperationConverter@details@Concurrency@@W7E$AAAJPEAPEAUHSTRING__@@@Z 000000018003075c f i _nodert_generated.obj
 0001:0002f768       ?__abi_GetIids@AsyncActionCompletedHandler@Foundation@Windows@@WBA@E$AAAJPEAKPEAPEAVGuid@Platform@@@Z 0000000180030768 f i _nodert_generated.obj
 0001:0002f774       ?__abi_GetRuntimeClassName@?$AsyncOperationCompletedHandler@E@Foundation@Windows@@WBA@E$AAAJPEAPEAUHSTRING__@@@Z 0000000180030774 f i _nodert_generated.obj
 0001:0002f780       ?__abi_GetIids@?QObject@Platform@@_IAsyncActionToAsyncOperationConverter@details@Concurrency@@WGA@E$AAAJPEAKPEAPEAVGuid@2@@Z 0000000180030780 f i _nodert_generated.obj
 0001:0002f78c       ?__abi_QueryInterface@?$AsyncOperationCompletedHandler@PE$AAVKeyCredentialOperationResult@Credentials@Security@Windows@@@Foundation@Windows@@WBA@E$AAAJAEAVGuid@Platform@@PEAPEAX@Z 000000018003078c f i _nodert_generated.obj
 0001:0002f798       ?__abi_QueryInterface@?$AsyncOperationCompletedHandler@E@Foundation@Windows@@WBA@E$AAAJAEAVGuid@Platform@@PEAPEAX@Z 0000000180030798 f i _nodert_generated.obj
 0001:0002f7a4       ?__abi_GetRuntimeClassName@?$AsyncOperationCompletedHandler@PE$AAUIRandomAccessStream@Streams@Storage@Windows@@@Foundation@Windows@@W7E$AAAJPEAPEAUHSTRING__@@@Z 00000001800307a4 f i _nodert_generated.obj
 0001:0002f7b0       ?__abi_QueryInterface@?QObject@Platform@@_IAsyncActionToAsyncOperationConverter@details@Concurrency@@WBA@E$AAAJAEAVGuid@2@PEAPEAX@Z 00000001800307b0 f i _nodert_generated.obj
 0001:0002f7bc       ?__abi_GetRuntimeClassName@?$AsyncOperationCompletedHandler@PE$AAVKeyCredentialAttestationResult@Credentials@Security@Windows@@@Foundation@Windows@@WBA@E$AAAJPEAPEAUHSTRING__@@@Z 00000001800307bc f i _nodert_generated.obj
 0001:0002f7c8       ?Cancel@?QIAsyncInfo@Foundation@Windows@@?$_AsyncInfoImpl@PE$AAUIAsyncAction@Foundation@Windows@@VAsyncActionCompletedHandler@23@E@details@Concurrency@@WBA@E$AAAXXZ 00000001800307c8 f i _nodert_generated.obj
 0001:0002f7d4       ?__abi_Release@?QObject@Platform@@_IAsyncActionToAsyncOperationConverter@details@Concurrency@@WBI@E$AAAKXZ 00000001800307d4 f i _nodert_generated.obj
 0001:0002f7e0       ?set@?Q?$IAsyncOperation@E@Foundation@Windows@@Completed@?$_AsyncInfoImpl@PE$AAUIAsyncAction@Foundation@Windows@@VAsyncActionCompletedHandler@23@E@details@Concurrency@@W7E$AAAXPE$AAV?$AsyncOperationCompletedHandler@E@23@@Z 00000001800307e0 f i _nodert_generated.obj
 0001:0002f7ec       ?__abi_GetRuntimeClassName@?$AsyncOperationCompletedHandler@PE$AAVKeyCredentialOperationResult@Credentials@Security@Windows@@@Foundation@Windows@@WBA@E$AAAJPEAPEAUHSTRING__@@@Z 00000001800307ec f i _nodert_generated.obj
 0001:0002f7f8       ?__abi_Release@?QObject@Platform@@_IAsyncActionToAsyncOperationConverter@details@Concurrency@@WFI@E$AAAKXZ 00000001800307f8 f i _nodert_generated.obj
 0001:0002f804       ?__abi_Windows_Foundation_IAsyncInfo____abi_get_ErrorCode@?QIAsyncInfo@Foundation@Windows@@?$_AsyncInfoImpl@PE$AAUIAsyncAction@Foundation@Windows@@VAsyncActionCompletedHandler@23@E@details@Concurrency@@WBA@E$AAAJPEAVHResult@23@@Z 0000000180030804 f i _nodert_generated.obj
 0001:0002f810       ?__abi_GetIids@?QObject@Platform@@_IAsyncActionToAsyncOperationConverter@details@Concurrency@@W7E$AAAJPEAKPEAPEAVGuid@2@@Z 0000000180030810 f i _nodert_generated.obj
 0001:0002f81c       ?__abi_Windows_Foundation_IAsyncInfo____abi_Cancel@?QIAsyncInfo@Foundation@Windows@@?$_AsyncInfoImpl@PE$AAUIAsyncAction@Foundation@Windows@@VAsyncActionCompletedHandler@23@E@details@Concurrency@@WBA@E$AAAJXZ 000000018003081c f i _nodert_generated.obj
 0001:0002f828       ?__abi_AddRef@?QObject@Platform@@_IAsyncActionToAsyncOperationConverter@details@Concurrency@@WBI@E$AAAKXZ 0000000180030828 f i _nodert_generated.obj
 0001:0002f834       ?get@?QIAsyncInfo@Foundation@Windows@@Id@?$_AsyncInfoImpl@PE$AAUIAsyncAction@Foundation@Windows@@VAsyncActionCompletedHandler@23@E@details@Concurrency@@WBA@E$AAAIXZ 0000000180030834 f i _nodert_generated.obj
 0001:0002f840       ?GetResults@?Q?$IAsyncOperation@E@Foundation@Windows@@_IAsyncActionToAsyncOperationConverter@details@Concurrency@@WBA@E$AAAEXZ 0000000180030840 f i _nodert_generated.obj
 0001:0002f84c       ?__abi_GetRuntimeClassName@?QObject@Platform@@_IAsyncActionToAsyncOperationConverter@details@Concurrency@@WBA@E$AAAJPEAPEAUHSTRING__@@@Z 000000018003084c f i _nodert_generated.obj
 0001:0002f858       ?__abi_AddRef@?QObject@Platform@@_IAsyncActionToAsyncOperationConverter@details@Concurrency@@WFI@E$AAAKXZ 0000000180030858 f i _nodert_generated.obj
 0001:0002f864       ?__abi_GetRuntimeClassName@?$AsyncOperationCompletedHandler@_N@Foundation@Windows@@W7E$AAAJPEAPEAUHSTRING__@@@Z 0000000180030864 f i _nodert_generated.obj
 0001:0002f870       ?__abi_GetRuntimeClassName@?$AsyncOperationCompletedHandler@PE$AAUIRandomAccessStream@Streams@Storage@Windows@@@Foundation@Windows@@WBA@E$AAAJPEAPEAUHSTRING__@@@Z 0000000180030870 f i _nodert_generated.obj
 0001:0002f87c       ?GetWeakReference@?QIWeakReferenceSource@Details@Platform@@_IAsyncActionToAsyncOperationConverter@details@Concurrency@@WFI@E$AAAPE$AAUIWeakReference@23@XZ 000000018003087c f i _nodert_generated.obj
 0001:0002f888       ?__abi_QueryInterface@?QObject@Platform@@_IAsyncActionToAsyncOperationConverter@details@Concurrency@@WBI@E$AAAJAEAVGuid@2@PEAPEAX@Z 0000000180030888 f i _nodert_generated.obj
 0001:0002f894       ?__abi_GetRuntimeClassName@?$AsyncOperationCompletedHandler@PE$AAVKeyCredentialRetrievalResult@Credentials@Security@Windows@@@Foundation@Windows@@W7E$AAAJPEAPEAUHSTRING__@@@Z 0000000180030894 f i _nodert_generated.obj
 0001:0002f8a0       ?__abi_Release@?QObject@Platform@@_IAsyncActionToAsyncOperationConverter@details@Concurrency@@WCA@E$AAAKXZ 00000001800308a0 f i _nodert_generated.obj
 0001:0002f8ac       ?__abi_QueryInterface@?$MapChangedEventHandler@PE$AAVString@Platform@@PE$AAVObject@2@@Collections@Foundation@Windows@@W7E$AAAJAEAVGuid@Platform@@PEAPEAX@Z 00000001800308ac f i _nodert_generated.obj
 0001:0002f8b8       ?__abi_QueryInterface@?$AsyncOperationCompletedHandler@PE$AAVKeyCredentialRetrievalResult@Credentials@Security@Windows@@@Foundation@Windows@@W7E$AAAJAEAVGuid@Platform@@PEAPEAX@Z 00000001800308b8 f i _nodert_generated.obj
 0001:0002f8c4       ?__abi_QueryInterface@?QObject@Platform@@_IAsyncActionToAsyncOperationConverter@details@Concurrency@@WFI@E$AAAJAEAVGuid@2@PEAPEAX@Z 00000001800308c4 f i _nodert_generated.obj
 0001:0002f8d0       ?__abi_Release@?QObject@Platform@@_IAsyncActionToAsyncOperationConverter@details@Concurrency@@WGA@E$AAAKXZ 00000001800308d0 f i _nodert_generated.obj
 0001:0002f8dc       ?__abi_GetIids@?QObject@Platform@@_IAsyncActionToAsyncOperationConverter@details@Concurrency@@WBA@E$AAAJPEAKPEAPEAVGuid@2@@Z 00000001800308dc f i _nodert_generated.obj
 0001:0002f8e8       ?__abi_QueryInterface@?$AsyncOperationCompletedHandler@PE$AAVKeyCredentialAttestationResult@Credentials@Security@Windows@@@Foundation@Windows@@W7E$AAAJAEAVGuid@Platform@@PEAPEAX@Z 00000001800308e8 f i _nodert_generated.obj
 0001:0002f8f4       ?__abi_AddRef@?QObject@Platform@@_IAsyncActionToAsyncOperationConverter@details@Concurrency@@WCA@E$AAAKXZ 00000001800308f4 f i _nodert_generated.obj
 0001:0002f900       ?__abi_GetRuntimeClassName@?QObject@Platform@@_IAsyncActionToAsyncOperationConverter@details@Concurrency@@WBI@E$AAAJPEAPEAUHSTRING__@@@Z 0000000180030900 f i _nodert_generated.obj
 0001:0002f90c       ?__abi_GetRuntimeClassName@?$MapChangedEventHandler@PE$AAVString@Platform@@PE$AAVObject@2@@Collections@Foundation@Windows@@W7E$AAAJPEAPEAUHSTRING__@@@Z 000000018003090c f i _nodert_generated.obj
 0001:0002f918       ?__abi_QueryInterface@?$AsyncOperationCompletedHandler@_N@Foundation@Windows@@W7E$AAAJAEAVGuid@Platform@@PEAPEAX@Z 0000000180030918 f i _nodert_generated.obj
 0001:0002f924       ?__abi_AddRef@?QObject@Platform@@_IAsyncActionToAsyncOperationConverter@details@Concurrency@@WGA@E$AAAKXZ 0000000180030924 f i _nodert_generated.obj
 0001:0002f930       ?__abi_QueryInterface@AsyncActionCompletedHandler@Foundation@Windows@@W7E$AAAJAEAVGuid@Platform@@PEAPEAX@Z 0000000180030930 f i _nodert_generated.obj
 0001:0002f93c       ?__abi_GetRuntimeClassName@?$AsyncOperationCompletedHandler@_N@Foundation@Windows@@WBA@E$AAAJPEAPEAUHSTRING__@@@Z 000000018003093c f i _nodert_generated.obj
 0001:0002f948       ?__abi_GetTrustLevel@?QObject@Platform@@_IAsyncActionToAsyncOperationConverter@details@Concurrency@@WBI@E$AAAJPEAW4__abi_TrustLevel@@@Z 0000000180030948 f i _nodert_generated.obj
 0001:0002f954       ?__abi_GetIids@?$MapChangedEventHandler@PE$AAVString@Platform@@PE$AAVObject@2@@Collections@Foundation@Windows@@W7E$AAAJPEAKPEAPEAVGuid@Platform@@@Z 0000000180030954 f i _nodert_generated.obj
 0001:0002f960       ?__abi_QueryInterface@?$AsyncOperationCompletedHandler@PE$AAUIRandomAccessStream@Streams@Storage@Windows@@@Foundation@Windows@@W7E$AAAJAEAVGuid@Platform@@PEAPEAX@Z 0000000180030960 f i _nodert_generated.obj
 0001:0002f96c       ?__abi_QueryInterface@?QObject@Platform@@_IAsyncActionToAsyncOperationConverter@details@Concurrency@@WCA@E$AAAJAEAVGuid@2@PEAPEAX@Z 000000018003096c f i _nodert_generated.obj
 0001:0002f978       ?__abi_Windows_Foundation_IAsyncInfo____abi_get_Status@?QIAsyncInfo@Foundation@Windows@@?$_AsyncInfoImpl@PE$AAUIAsyncAction@Foundation@Windows@@VAsyncActionCompletedHandler@23@E@details@Concurrency@@WBA@E$AAAJPEAW4AsyncStatus@23@@Z 0000000180030978 f i _nodert_generated.obj
 0001:0002f984       ?__abi_Release@?QObject@Platform@@_IAsyncActionToAsyncOperationConverter@details@Concurrency@@W7E$AAAKXZ 0000000180030984 f i _nodert_generated.obj
 0001:0002f990       ?__abi_GetRuntimeClassName@?$AsyncOperationCompletedHandler@PE$AAVKeyCredentialRetrievalResult@Credentials@Security@Windows@@@Foundation@Windows@@WBA@E$AAAJPEAPEAUHSTRING__@@@Z 0000000180030990 f i _nodert_generated.obj
 0001:0002f99c       ?get@?QIAsyncInfo@Foundation@Windows@@ErrorCode@?$_AsyncInfoImpl@PE$AAUIAsyncAction@Foundation@Windows@@VAsyncActionCompletedHandler@23@E@details@Concurrency@@WBA@E$AAA?AVHResult@23@XZ 000000018003099c f i _nodert_generated.obj
 0001:0002f9a8       ?__abi_GetRuntimeClassName@AsyncActionCompletedHandler@Foundation@Windows@@W7E$AAAJPEAPEAUHSTRING__@@@Z 00000001800309a8 f i _nodert_generated.obj
 0001:0002f9c0       ?ForceSet@Nan@@YA?AV?$Maybe@_N@v8@@V?$Local@VObject@v8@@@3@V?$Local@VValue@v8@@@3@1W4PropertyAttribute@3@@Z 00000001800309c0 f i NodeRtUtils.obj
 0001:0002fa50       ?Has@Nan@@YA?AV?$Maybe@_N@v8@@V?$Local@VObject@v8@@@3@V?$Local@VString@v8@@@3@@Z 0000000180030a50 f i NodeRtUtils.obj
 0001:0002fad0       ?WinRtExceptionToJsError@Utils@NodeRT@@YA?AV?$Local@VValue@v8@@@v8@@PE$AAVException@Platform@@@Z 0000000180030ad0 f   NodeRtUtils.obj
 0001:0002fca0       ?ThrowWinRtExceptionInJs@Utils@NodeRT@@YAXPE$AAVException@Platform@@@Z 0000000180030ca0 f   NodeRtUtils.obj
 0001:0002fce0       ?CreateCallbackObjectInDomain@Utils@NodeRT@@YA?AV?$Local@VObject@v8@@@v8@@V?$Local@VFunction@v8@@@4@@Z 0000000180030ce0 f   NodeRtUtils.obj
 0001:0002ff40       ?GetObjectInstance@Utils@NodeRT@@YAPE$AAVObject@Platform@@V?$Local@VValue@v8@@@v8@@@Z 0000000180030f40 f   NodeRtUtils.obj
 0001:0002ffc0       ?CaseInsenstiveEquals@Utils@NodeRT@@YA_NPEB_WPEBG@Z 0000000180030fc0 f   NodeRtUtils.obj
 0001:00030020       ?RegisterNameSpace@Utils@NodeRT@@YAXPEBDV?$Local@VValue@v8@@@v8@@@Z 0000000180031020 f   NodeRtUtils.obj
 0001:000301f0       ?CreateExternalWinRTObject@Utils@NodeRT@@YA?AV?$Local@VValue@v8@@@v8@@PEBD0PE$AAVObject@Platform@@@Z 00000001800311f0 f   NodeRtUtils.obj
 0001:00030520       ?IsWinRtWrapper@Utils@NodeRT@@YA_NV?$Local@VValue@v8@@@v8@@@Z 0000000180031520 f   NodeRtUtils.obj
 0001:00030660       ?New@OpaqueWrapper@NodeRT@@CAXAEBV?$FunctionCallbackInfo@VValue@v8@@@Nan@@@Z 0000000180031660 f   OpaqueWrapper.obj
 0001:00030700       ?Init@OpaqueWrapper@NodeRT@@CAXXZ 0000000180031700 f   OpaqueWrapper.obj
 0001:00030820       ?CreateOpaqueWrapper@NodeRT@@YA?AV?$Local@VValue@v8@@@v8@@PE$AAVObject@Platform@@@Z 0000000180031820 f   OpaqueWrapper.obj
 0001:000309be       __imp_load_?Global@Context@v8@@QEAA?AV?$Local@VObject@v8@@@2@XZ 00000001800319be f   node:node.exe
 0001:000309ca       __tailMerge_node_exe       00000001800319ca f i node:node.exe
 0001:00030a43       __imp_load_?Value@External@v8@@QEBAPEAXXZ 0000000180031a43 f   node:node.exe
 0001:00030a4f       __imp_load_?New@External@v8@@SA?AV?$Local@VExternal@v8@@@2@PEAVIsolate@2@PEAX@Z 0000000180031a4f f   node:node.exe
 0001:00030a5b       __imp_load_?NewFromUnsigned@Integer@v8@@SA?AV?$Local@VInteger@v8@@@2@PEAVIsolate@2@I@Z 0000000180031a5b f   node:node.exe
 0001:00030a67       __imp_load_?New@Integer@v8@@SA?AV?$Local@VInteger@v8@@@2@PEAVIsolate@2@H@Z 0000000180031a67 f   node:node.exe
 0001:00030a73       __imp_load_?New@Signature@v8@@SA?AV?$Local@VSignature@v8@@@2@PEAVIsolate@2@V?$Local@VFunctionTemplate@v8@@@2@@Z 0000000180031a73 f   node:node.exe
 0001:00030a7f       __imp_load_?ThrowException@Isolate@v8@@QEAA?AV?$Local@VValue@v8@@@2@V32@@Z 0000000180031a7f f   node:node.exe
 0001:00030a8b       __imp_load_?GetCurrentContext@Isolate@v8@@QEAA?AV?$Local@VContext@v8@@@2@XZ 0000000180031a8b f   node:node.exe
 0001:00030a97       __imp_load_?GetCurrent@Isolate@v8@@SAPEAV12@XZ 0000000180031a97 f   node:node.exe
 0001:00030aa3       __imp_load_?CreateHandle@HandleScope@v8@@KAPEAPEAVObject@internal@2@PEAVIsolate@42@PEAV342@@Z 0000000180031aa3 f   node:node.exe
 0001:00030aaf       __imp_load_?CreateHandle@HandleScope@v8@@CAPEAPEAVObject@internal@2@PEAVHeapObject@42@PEAV342@@Z 0000000180031aaf f   node:node.exe
 0001:00030abb       __imp_load_??1HandleScope@v8@@QEAA@XZ 0000000180031abb f   node:node.exe
 0001:00030ac7       __imp_load_??0HandleScope@v8@@QEAA@PEAVIsolate@1@@Z 0000000180031ac7 f   node:node.exe
 0001:00030ad3       __imp_load_?Set@Template@v8@@QEAAXV?$Local@VName@v8@@@2@V?$Local@VData@v8@@@2@W4PropertyAttribute@2@@Z 0000000180031ad3 f   node:node.exe
 0001:00030adf       __imp_load_?Error@Exception@v8@@SA?AV?$Local@VValue@v8@@@2@V?$Local@VString@v8@@@2@@Z 0000000180031adf f   node:node.exe
 0001:00030aeb       __imp_load_?HasInstance@FunctionTemplate@v8@@QEAA_NV?$Local@VValue@v8@@@2@@Z 0000000180031aeb f   node:node.exe
 0001:00030af7       __imp_load_?SetClassName@FunctionTemplate@v8@@QEAAXV?$Local@VString@v8@@@2@@Z 0000000180031af7 f   node:node.exe
 0001:00030b03       __imp_load_?PrototypeTemplate@FunctionTemplate@v8@@QEAA?AV?$Local@VObjectTemplate@v8@@@2@XZ 0000000180031b03 f   node:node.exe
 0001:00030b0f       __imp_load_?InstanceTemplate@FunctionTemplate@v8@@QEAA?AV?$Local@VObjectTemplate@v8@@@2@XZ 0000000180031b0f f   node:node.exe
 0001:00030b1b       __imp_load_?GetFunction@FunctionTemplate@v8@@QEAA?AV?$MaybeLocal@VFunction@v8@@@2@V?$Local@VContext@v8@@@2@@Z 0000000180031b1b f   node:node.exe
 0001:00030b27       __imp_load_?New@FunctionTemplate@v8@@SA?AV?$Local@VFunctionTemplate@v8@@@2@PEAVIsolate@2@P6AXAEBV?$FunctionCallbackInfo@VValue@v8@@@2@@ZV?$Local@VValue@v8@@@2@V?$Local@VSignature@v8@@@2@H@Z 0000000180031b27 f   node:node.exe
 0001:00030b33       __imp_load_?ToLocalEmpty@V8@v8@@CAXXZ 0000000180031b33 f   node:node.exe
 0001:00030b3f       __imp_load_?ClearWeak@V8@v8@@CAPEAXPEAPEAVObject@internal@2@@Z 0000000180031b3f f   node:node.exe
 0001:00030b4b       __imp_load_?MakeWeak@V8@v8@@CAXPEAPEAVObject@internal@2@PEAXP6AXAEBV?$WeakCallbackInfo@X@2@@ZW4WeakCallbackType@2@@Z 0000000180031b4b f   node:node.exe
 0001:00030b57       __imp_load_?DisposeGlobal@V8@v8@@CAXPEAPEAVObject@internal@2@@Z 0000000180031b57 f   node:node.exe
 0001:00030b63       __imp_load_?GlobalizeReference@V8@v8@@CAPEAPEAVObject@internal@2@PEAVIsolate@42@PEAPEAV342@@Z 0000000180031b63 f   node:node.exe
 0001:00030b6f       __imp_load_?Equals@Value@v8@@QEBA_NV?$Local@VValue@v8@@@2@@Z 0000000180031b6f f   node:node.exe
 0001:00030b7b       __imp_load_?Equals@Value@v8@@QEBA?AV?$Maybe@_N@2@V?$Local@VContext@v8@@@2@V?$Local@VValue@v8@@@2@@Z 0000000180031b7b f   node:node.exe
 0001:00030b87       __imp_load_?Int32Value@Value@v8@@QEBA?AV?$Maybe@H@2@V?$Local@VContext@v8@@@2@@Z 0000000180031b87 f   node:node.exe
 0001:00030b93       __imp_load_?Uint32Value@Value@v8@@QEBAIXZ 0000000180031b93 f   node:node.exe
 0001:00030b9f       __imp_load_?ToInteger@Value@v8@@QEBA?AV?$MaybeLocal@VInteger@v8@@@2@V?$Local@VContext@v8@@@2@@Z 0000000180031b9f f   node:node.exe
 0001:00030bab       __imp_load_?ToObject@Value@v8@@QEBA?AV?$MaybeLocal@VObject@v8@@@2@V?$Local@VContext@v8@@@2@@Z 0000000180031bab f   node:node.exe
 0001:00030bb7       __imp_load_?ToString@Value@v8@@QEBA?AV?$MaybeLocal@VString@v8@@@2@V?$Local@VContext@v8@@@2@@Z 0000000180031bb7 f   node:node.exe
 0001:00030bc3       __imp_load_?IsUint32@Value@v8@@QEBA_NXZ 0000000180031bc3 f   node:node.exe
 0001:00030bcf       __imp_load_?IsInt32@Value@v8@@QEBA_NXZ 0000000180031bcf f   node:node.exe
 0001:00030bdb       __imp_load_?IsBoolean@Value@v8@@QEBA_NXZ 0000000180031bdb f   node:node.exe
 0001:00030be7       __imp_load_?IsObject@Value@v8@@QEBA_NXZ 0000000180031be7 f   node:node.exe
 0001:00030bf3       __imp_load_?IsFunction@Value@v8@@QEBA_NXZ 0000000180031bf3 f   node:node.exe
 0001:00030bff       __imp_load_?Exception@TryCatch@v8@@QEBA?AV?$Local@VValue@v8@@@2@XZ 0000000180031bff f   node:node.exe
 0001:00030c0b       __imp_load_?HasCaught@TryCatch@v8@@QEBA_NXZ 0000000180031c0b f   node:node.exe
 0001:00030c17       __imp_load_??1TryCatch@v8@@QEAA@XZ 0000000180031c17 f   node:node.exe
 0001:00030c23       __imp_load_??0TryCatch@v8@@QEAA@PEAVIsolate@1@@Z 0000000180031c23 f   node:node.exe
 0001:00030c2f       __imp_load_?Escape@EscapableHandleScope@v8@@AEAAPEAPEAVObject@internal@2@PEAPEAV342@@Z 0000000180031c2f f   node:node.exe
 0001:00030c3b       __imp_load_??0EscapableHandleScope@v8@@QEAA@PEAVIsolate@1@@Z 0000000180031c3b f   node:node.exe
 0001:00030c47       __imp_load_??1Value@String@v8@@QEAA@XZ 0000000180031c47 f   node:node.exe
 0001:00030c53       __imp_load_??0Value@String@v8@@QEAA@V?$Local@VValue@v8@@@2@@Z 0000000180031c53 f   node:node.exe
 0001:00030c5f       __imp_load_?Concat@String@v8@@SA?AV?$Local@VString@v8@@@2@V32@0@Z 0000000180031c5f f   node:node.exe
 0001:00030c6b       __imp_load_?NewFromUtf8@String@v8@@SA?AV?$MaybeLocal@VString@v8@@@2@PEAVIsolate@2@PEBDW4NewStringType@2@H@Z 0000000180031c6b f   node:node.exe
 0001:00030c77       __imp_load_?SlowGetAlignedPointerFromInternalField@Object@v8@@AEAAPEAXH@Z 0000000180031c77 f   node:node.exe
 0001:00030c83       __imp_load_?SlowGetInternalField@Object@v8@@AEAA?AV?$Local@VValue@v8@@@2@H@Z 0000000180031c83 f   node:node.exe
 0001:00030c8f       __imp_load_?New@Object@v8@@SA?AV?$Local@VObject@v8@@@2@PEAVIsolate@2@@Z 0000000180031c8f f   node:node.exe
 0001:00030c9b       __imp_load_?SetAlignedPointerInInternalField@Object@v8@@QEAAXHPEAX@Z 0000000180031c9b f   node:node.exe
 0001:00030ca7       __imp_load_?SetInternalField@Object@v8@@QEAAXHV?$Local@VValue@v8@@@2@@Z 0000000180031ca7 f   node:node.exe
 0001:00030cb3       __imp_load_?InternalFieldCount@Object@v8@@QEAAHXZ 0000000180031cb3 f   node:node.exe
 0001:00030cbf       __imp_load_?SetPrototype@Object@v8@@QEAA?AV?$Maybe@_N@2@V?$Local@VContext@v8@@@2@V?$Local@VValue@v8@@@2@@Z 0000000180031cbf f   node:node.exe
 0001:00030ccb       __imp_load_?Delete@Object@v8@@QEAA?AV?$Maybe@_N@2@V?$Local@VContext@v8@@@2@V?$Local@VValue@v8@@@2@@Z 0000000180031ccb f   node:node.exe
 0001:00030cd7       __imp_load_?Get@Object@v8@@QEAA?AV?$Local@VValue@v8@@@2@V32@@Z 0000000180031cd7 f   node:node.exe
 0001:00030ce3       __imp_load_?Get@Object@v8@@QEAA?AV?$MaybeLocal@VValue@v8@@@2@V?$Local@VContext@v8@@@2@V?$Local@VValue@v8@@@2@@Z 0000000180031ce3 f   node:node.exe
 0001:00030cef       __imp_load_?Set@Object@v8@@QEAA_NV?$Local@VValue@v8@@@2@0@Z 0000000180031cef f   node:node.exe
 0001:00030cfb       __imp_load_?Set@Object@v8@@QEAA?AV?$Maybe@_N@2@V?$Local@VContext@v8@@@2@V?$Local@VValue@v8@@@2@1@Z 0000000180031cfb f   node:node.exe
 0001:00030d07       __imp_load_?NewInstance@Function@v8@@QEBA?AV?$MaybeLocal@VObject@v8@@@2@V?$Local@VContext@v8@@@2@HQEAV?$Local@VValue@v8@@@2@@Z 0000000180031d07 f   node:node.exe
 0001:00030d13       __imp_load_?SetInternalFieldCount@ObjectTemplate@v8@@QEAAXH@Z 0000000180031d13 f   node:node.exe
 0001:00030d1f       __imp_load_?SetHandler@ObjectTemplate@v8@@QEAAXAEBUIndexedPropertyHandlerConfiguration@2@@Z 0000000180031d1f f   node:node.exe
 0001:00030d2b       __imp_load_?SetAccessor@ObjectTemplate@v8@@QEAAXV?$Local@VName@v8@@@2@P6AX0AEBV?$PropertyCallbackInfo@VValue@v8@@@2@@ZP6AX0V?$Local@VValue@v8@@@2@AEBV?$PropertyCallbackInfo@X@2@@Z3W4AccessControl@2@W4PropertyAttribute@2@V?$Local@VAccessorSignature@v8@@@2@@Z 0000000180031d2b f   node:node.exe
 0001:00030d37       __imp_load_?NewInstance@ObjectTemplate@v8@@QEAA?AV?$MaybeLocal@VObject@v8@@@2@V?$Local@VContext@v8@@@2@@Z 0000000180031d37 f   node:node.exe
 0001:00030d43       __imp_load_?New@ObjectTemplate@v8@@SA?AV?$Local@VObjectTemplate@v8@@@2@PEAVIsolate@2@V?$Local@VFunctionTemplate@v8@@@2@@Z 0000000180031d43 f   node:node.exe
 0001:00030d4f       __imp_load_uv_close        0000000180031d4f f   node:node.exe
 0001:00030d5b       __imp_load_node_module_register 0000000180031d5b f   node:node.exe
 0001:00030d67       __imp_load_?MakeCallback@node@@YA?AV?$Local@VValue@v8@@@v8@@PEAVIsolate@3@V?$Local@VObject@v8@@@3@V?$Local@VString@v8@@@3@HPEAV23@@Z 0000000180031d67 f   node:node.exe
 0001:00030d73       __imp_load_uv_async_send   0000000180031d73 f   node:node.exe
 0001:00030d7f       __imp_load_uv_async_init   0000000180031d7f f   node:node.exe
 0001:00030d8b       __imp_load_uv_default_loop 0000000180031d8b f   node:node.exe
 0001:00030d97       __imp_load_??1EscapableHandleScope@v8@@QEAA@XZ 0000000180031d97 f   node:node.exe
 0001:00030da3       __imp_load_?IsTrue@Value@v8@@QEBA_NXZ 0000000180031da3 f   node:node.exe
 0001:00030daf       __imp_load_?NewFromTwoByte@String@v8@@SA?AV?$MaybeLocal@VString@v8@@@2@PEAVIsolate@2@PEBGW4NewStringType@2@H@Z 0000000180031daf f   node:node.exe
 0001:00030dbb       __imp_load_?Has@Object@v8@@QEAA?AV?$Maybe@_N@2@V?$Local@VContext@v8@@@2@V?$Local@VValue@v8@@@2@@Z 0000000180031dbb f   node:node.exe
 0001:00030dc7       __imp_load_?ForceSet@Object@v8@@QEAA?AV?$Maybe@_N@2@V?$Local@VContext@v8@@@2@V?$Local@VValue@v8@@@2@1W4PropertyAttribute@2@@Z 0000000180031dc7 f   node:node.exe
 0001:00030dd4       ?Initialize@Details@Platform@@YAHXZ 0000000180031dd4 f   vccorlib:init.obj
 0001:00030e28       ??_E?$Module@$00VInProcModule@Details@Platform@@@WRL@Microsoft@@UEAAPEAXI@Z 0000000180031e28 f i vccorlib:init.obj
 0001:00030e28       ??_G?$Module@$00VInProcModule@Details@Platform@@@WRL@Microsoft@@UEAAPEAXI@Z 0000000180031e28 f i vccorlib:init.obj
 0001:00030e74       ??_EInProcModule@Details@Platform@@UEAAPEAXI@Z 0000000180031e74 f i vccorlib:init.obj
 0001:00030e74       ??_GInProcModule@Details@Platform@@UEAAPEAXI@Z 0000000180031e74 f i vccorlib:init.obj
 0001:00030ed4       ?Cleanup@Details@Platform@@YAXXZ 0000000180031ed4 f   vccorlib:init.obj
 0001:00030ee0       ?Create@?$Module@$00VInProcModule@Details@Platform@@@WRL@Microsoft@@SAAEAVInProcModule@Details@Platform@@XZ 0000000180031ee0 f i vccorlib:init.obj
 0001:00030f48       ?GetFirstEntryPointer@ModuleBase@Details@WRL@Microsoft@@UEBAPEAPEBUCreatorMap@234@XZ 0000000180031f48 f i vccorlib:init.obj
 0001:00030f50       ?GetLastEntryPointer@ModuleBase@Details@WRL@Microsoft@@UEBAPEAPEBUCreatorMap@234@XZ 0000000180031f50 f i vccorlib:init.obj
 0001:00030f58       ?GetLock@ModuleBase@Details@WRL@Microsoft@@UEBAPEAU_RTL_SRWLOCK@@XZ 0000000180031f58 f i vccorlib:init.obj
 0001:00030f60       ?GetMidEntryPointer@ModuleBase@Details@WRL@Microsoft@@UEBAPEAPEBUCreatorMap@234@XZ 0000000180031f60 f i vccorlib:init.obj
 0001:00030f68       ?GetObjectCount@ModuleBase@Details@WRL@Microsoft@@UEBAKXZ 0000000180031f68 f i vccorlib:init.obj
 0001:00030f70       ?LockExclusive@SRWLock@Wrappers@WRL@Microsoft@@SA?AV?$SyncLockT@USRWLockExclusiveTraits@HandleTraits@Wrappers@WRL@Microsoft@@@Details@234@PEAU_RTL_SRWLOCK@@@Z 0000000180031f70 f i vccorlib:init.obj
 0001:00030f9c       ?UnregisterWinRTObject@?$Module@$00VInProcModule@Details@Platform@@@WRL@Microsoft@@UEAAJPEB_WPEAU<unnamed-type-RO_REGISTRATION_COOKIE>@@@Z 0000000180031f9c f i vccorlib:init.obj
 0001:00030f9c       ?RegisterCOMObject@?$Module@$00VInProcModule@Details@Platform@@@WRL@Microsoft@@UEAAJPEB_WPEAU_GUID@@PEAPEAUIClassFactory@@PEAKI@Z 0000000180031f9c f i vccorlib:init.obj
 0001:00030f9c       ?RegisterWinRTObject@?$Module@$00VInProcModule@Details@Platform@@@WRL@Microsoft@@UEAAJPEB_WPEAPEB_WPEAPEAU<unnamed-type-RO_REGISTRATION_COOKIE>@@I@Z 0000000180031f9c f i vccorlib:init.obj
 0001:00030f9c       ?UnregisterCOMObject@?$Module@$00VInProcModule@Details@Platform@@@WRL@Microsoft@@UEAAJPEB_WPEAKI@Z 0000000180031f9c f i vccorlib:init.obj
 0001:00030fa4       ?TerminateMap@Details@WRL@Microsoft@@YA_NPEAVModuleBase@123@PEB_W_N@Z 0000000180031fa4 f i vccorlib:init.obj
 0001:00031130       ?DecrementObjectCount@?$Module@$00VInProcModule@Details@Platform@@@WRL@Microsoft@@UEAAKXZ 0000000180032130 f i vccorlib:init.obj
 0001:00031130       ?__abi_DecrementObjectCount@InProcModule@Details@Platform@@UEAAKXZ 0000000180032130 f i vccorlib:init.obj
 0001:00031140       ?__abi_IncrementObjectCount@InProcModule@Details@Platform@@UEAAKXZ 0000000180032140 f i vccorlib:init.obj
 0001:00031140       ?IncrementObjectCount@?$Module@$00VInProcModule@Details@Platform@@@WRL@Microsoft@@UEAAKXZ 0000000180032140 f i vccorlib:init.obj
 0001:00031150       ?__getIids@__winRT@@YAJHPEAKPEBU__s_GUID@@PEAPEAVGuid@Platform@@@Z 0000000180032150 f   vccorlib:compiler.obj
 0001:00031158       ?__windowsCreateString@__winRT@@YAJPEB_WHPEAPEAUHSTRING__@@@Z 0000000180032158 f   vccorlib:compiler.obj
 0001:00031160       ?__getActivationFactoryByPCWSTR@__winRT@@YAJPEAXAEAVGuid@Platform@@PEAPEAX@Z 0000000180032160 f   vccorlib:activation.obj
 0001:00031166       ?InitializeData@Details@Platform@@YAJH@Z 0000000180032166 f   vccorlib:vccorlib140.DLL
 0001:0003116c       ?UninitializeData@Details@Platform@@YAXH@Z 000000018003216c f   vccorlib:vccorlib140.DLL
 0001:00031172       ?GetIidsFn@@YAJHPEAKPEBU__s_GUID@@PEAPEAVGuid@Platform@@@Z 0000000180032172 f   vccorlib:vccorlib140.DLL
 0001:00031178       ?GetActivationFactoryByPCWSTR@@YAJPEAXAEAVGuid@Platform@@PEAPEAX@Z 0000000180032178 f   vccorlib:vccorlib140.DLL
 0001:00031190       __security_check_cookie    0000000180032190 f   MSVCRT:_amdsecgs_.obj
 0001:000312fc       _Init_thread_footer        00000001800322fc f   MSVCRT:thread_safe_statics.obj
 0001:0003135c       _Init_thread_header        000000018003235c f   MSVCRT:thread_safe_statics.obj
 0001:000313c4       _Init_thread_notify        00000001800323c4 f   MSVCRT:thread_safe_statics.obj
 0001:00031420       _Init_thread_wait          0000000180032420 f   MSVCRT:thread_safe_statics.obj
 0001:000314b8       ??2@YAPEAX_K@Z             00000001800324b8 f   MSVCRT:new_scalar.obj
 0001:000314f4       __scrt_acquire_startup_lock 00000001800324f4 f   MSVCRT:utility.obj
 0001:00031530       __scrt_dllmain_after_initialize_c 0000000180032530 f   MSVCRT:utility.obj
 0001:00031564       __scrt_dllmain_before_initialize_c 0000000180032564 f   MSVCRT:utility.obj
 0001:0003157c       __scrt_dllmain_crt_thread_attach 000000018003257c f   MSVCRT:utility.obj
 0001:000315a4       __scrt_dllmain_crt_thread_detach 00000001800325a4 f   MSVCRT:utility.obj
 0001:000315bc       __scrt_dllmain_exception_filter 00000001800325bc f   MSVCRT:utility.obj
 0001:00031620       __scrt_dllmain_uninitialize_c 0000000180032620 f   MSVCRT:utility.obj
 0001:00031650       __scrt_dllmain_uninitialize_critical 0000000180032650 f   MSVCRT:utility.obj
 0001:00031664       __scrt_initialize_crt      0000000180032664 f   MSVCRT:utility.obj
 0001:000316b0       __scrt_initialize_onexit_tables 00000001800326b0 f   MSVCRT:utility.obj
 0001:0003177c       __scrt_is_nonwritable_in_current_image 000000018003277c f   MSVCRT:utility.obj
 0001:00031818       __scrt_release_startup_lock 0000000180032818 f   MSVCRT:utility.obj
 0001:0003183c       __scrt_uninitialize_crt    000000018003283c f   MSVCRT:utility.obj
 0001:00031868       _onexit                    0000000180032868 f   MSVCRT:utility.obj
 0001:000318b8       atexit                     00000001800328b8 f   MSVCRT:utility.obj
 0001:000318d0       ??3@YAXPEAX@Z              00000001800328d0 f   MSVCRT:delete_scalar.obj
 0001:000318d8       ??_V@YAXPEAX@Z             00000001800328d8 f   MSVCRT:delete_array.obj
 0001:000318d8       ??3@YAXPEAX_K@Z            00000001800328d8 f   MSVCRT:delete_scalar_size.obj
 0001:000318e0       ??_U@YAPEAX_K@Z            00000001800328e0 f   MSVCRT:new_array.obj
 0001:000318e8       ??_Etype_info@@UEAAPEAXI@Z 00000001800328e8 f i MSVCRT:std_type_info_static.obj
 0001:000318e8       ??_Gtype_info@@UEAAPEAXI@Z 00000001800328e8 f i MSVCRT:std_type_info_static.obj
 0001:00031914       __raise_securityfailure    0000000180032914 f   MSVCRT:gs_report.obj
 0001:00031948       __report_gsfailure         0000000180032948 f   MSVCRT:gs_report.obj
 0001:00031ddc       _DllMainCRTStartup         0000000180032ddc f   MSVCRT:dll_dllmain.obj
 0001:00031e1c       _guard_check_icall         0000000180032e1c f i MSVCRT:checkcfg.obj
 0001:00031e24       __scrt_fastfail            0000000180032e24 f   MSVCRT:utility_desktop.obj
 0001:00031f6c       ??0bad_alloc@std@@QEAA@AEBV01@@Z 0000000180032f6c f i MSVCRT:throw_bad_alloc.obj
 0001:00031fac       ??0bad_alloc@std@@QEAA@XZ  0000000180032fac f i MSVCRT:throw_bad_alloc.obj
 0001:00031fcc       ??0bad_array_new_length@std@@QEAA@AEBV01@@Z 0000000180032fcc f i MSVCRT:throw_bad_alloc.obj
 0001:0003200c       ??0bad_array_new_length@std@@QEAA@XZ 000000018003300c f i MSVCRT:throw_bad_alloc.obj
 0001:0003202c       ??0exception@std@@QEAA@AEBV01@@Z 000000018003302c f i MSVCRT:throw_bad_alloc.obj
 0001:00032064       ??1bad_alloc@std@@UEAA@XZ  0000000180033064 f i MSVCRT:throw_bad_alloc.obj
 0001:00032064       ??1bad_array_new_length@std@@UEAA@XZ 0000000180033064 f i MSVCRT:throw_bad_alloc.obj
 0001:00032078       ??_Gbad_alloc@std@@UEAAPEAXI@Z 0000000180033078 f i MSVCRT:throw_bad_alloc.obj
 0001:00032078       ??_Ebad_array_new_length@std@@UEAAPEAXI@Z 0000000180033078 f i MSVCRT:throw_bad_alloc.obj
 0001:00032078       ??_Gexception@std@@UEAAPEAXI@Z 0000000180033078 f i MSVCRT:throw_bad_alloc.obj
 0001:00032078       ??_Eexception@std@@UEAAPEAXI@Z 0000000180033078 f i MSVCRT:throw_bad_alloc.obj
 0001:00032078       ??_Ebad_alloc@std@@UEAAPEAXI@Z 0000000180033078 f i MSVCRT:throw_bad_alloc.obj
 0001:00032078       ??_Gbad_array_new_length@std@@UEAAPEAXI@Z 0000000180033078 f i MSVCRT:throw_bad_alloc.obj
 0001:000320bc       ?__scrt_throw_std_bad_alloc@@YAXXZ 00000001800330bc f   MSVCRT:throw_bad_alloc.obj
 0001:000320dc       ?__scrt_throw_std_bad_array_new_length@@YAXXZ 00000001800330dc f   MSVCRT:throw_bad_alloc.obj
 0001:000320fc       ?what@exception@std@@UEBAPEBDXZ 00000001800330fc f i MSVCRT:throw_bad_alloc.obj
 0001:00032110       __isa_available_init       0000000180033110 f   MSVCRT:_cpu_disp_.obj
 0001:000322d8       _get_startup_argv_mode     00000001800332d8 f   MSVCRT:argv_mode.obj
 0001:000322e0       __scrt_is_ucrt_dll_in_use  00000001800332e0 f   MSVCRT:ucrt_detection.obj
 0001:000322ec       __security_init_cookie     00000001800332ec f   MSVCRT:gs_support.obj
 0001:00032398       DllMain                    0000000180033398 f   MSVCRT:dll_dllmain_stub.obj
 0001:000323bc       ?__scrt_initialize_type_info@@YAXXZ 00000001800333bc f   MSVCRT:tncleanup.obj
 0001:000323cc       ?__scrt_uninitialize_type_info@@YAXXZ 00000001800333cc f   MSVCRT:tncleanup.obj
 0001:000323d8       __local_stdio_printf_options 00000001800333d8 f i MSVCRT:default_local_stdio_options.obj
 0001:000323e0       __local_stdio_scanf_options 00000001800333e0 f i MSVCRT:default_local_stdio_options.obj
 0001:000323e8       __scrt_initialize_default_local_stdio_options 00000001800333e8 f   MSVCRT:default_local_stdio_options.obj
 0001:00032404       __scrt_get_dyn_tls_init_callback 0000000180033404 f   MSVCRT:dyn_tls_init.obj
 0001:0003240c       _RTC_Initialize            000000018003340c f   MSVCRT:_initsect_.obj
 0001:00032458       _RTC_Terminate             0000000180033458 f   MSVCRT:_initsect_.obj
 0001:000324b0       _purecall                  00000001800334b0 f   vcruntime:VCRUNTIME140.dll
 0001:000324b6       __std_terminate            00000001800334b6 f   vcruntime:VCRUNTIME140.dll
 0001:000324bc       memset                     00000001800334bc f   vcruntime:VCRUNTIME140.dll
 0001:000324bc       __Platform_memset          00000001800334bc f   vcruntime:VCRUNTIME140.dll
 0001:000324c2       __vcrt_InitializeCriticalSectionEx 00000001800334c2 f   vcruntime:VCRUNTIME140.dll
 0001:000324c8       __C_specific_handler       00000001800334c8 f   vcruntime:VCRUNTIME140.dll
 0001:000324ce       __std_exception_copy       00000001800334ce f   vcruntime:VCRUNTIME140.dll
 0001:000324d4       __std_exception_destroy    00000001800334d4 f   vcruntime:VCRUNTIME140.dll
 0001:000324da       _CxxThrowException         00000001800334da f   vcruntime:VCRUNTIME140.dll
 0001:000324e0       __std_type_info_destroy_list 00000001800334e0 f   vcruntime:VCRUNTIME140.dll
 0001:000324e6       __Platform_wcslen          00000001800334e6 f   ucrt:api-ms-win-crt-string-l1-1-0.dll
 0001:000324e6       wcslen                     00000001800334e6 f   ucrt:api-ms-win-crt-string-l1-1-0.dll
 0001:000324ec       _callnewh                  00000001800334ec f   ucrt:api-ms-win-crt-heap-l1-1-0.dll
 0001:000324f2       malloc                     00000001800334f2 f   ucrt:api-ms-win-crt-heap-l1-1-0.dll
 0001:000324f8       _seh_filter_dll            00000001800334f8 f   ucrt:api-ms-win-crt-runtime-l1-1-0.dll
 0001:000324fe       _configure_narrow_argv     00000001800334fe f   ucrt:api-ms-win-crt-runtime-l1-1-0.dll
 0001:00032504       _initialize_narrow_environment 0000000180033504 f   ucrt:api-ms-win-crt-runtime-l1-1-0.dll
 0001:0003250a       _initialize_onexit_table   000000018003350a f   ucrt:api-ms-win-crt-runtime-l1-1-0.dll
 0001:00032510       _register_onexit_function  0000000180033510 f   ucrt:api-ms-win-crt-runtime-l1-1-0.dll
 0001:00032516       _execute_onexit_table      0000000180033516 f   ucrt:api-ms-win-crt-runtime-l1-1-0.dll
 0001:0003251c       _crt_atexit                000000018003351c f   ucrt:api-ms-win-crt-runtime-l1-1-0.dll
 0001:00032522       _cexit                     0000000180033522 f   ucrt:api-ms-win-crt-runtime-l1-1-0.dll
 0001:00032528       free                       0000000180033528 f   ucrt:api-ms-win-crt-heap-l1-1-0.dll
 0001:0003252e       _initterm                  000000018003352e f   ucrt:api-ms-win-crt-runtime-l1-1-0.dll
 0001:00032534       _initterm_e                0000000180033534 f   ucrt:api-ms-win-crt-runtime-l1-1-0.dll
 0001:0003253a       IsProcessorFeaturePresent  000000018003353a f   kernel32:KERNEL32.dll
 0001:00032540       __Platform_CoCreateFreeThreadedMarshaler 0000000180033540 f   ole32:ole32.dll
 0001:00032540       CoCreateFreeThreadedMarshaler 0000000180033540 f   ole32:ole32.dll
 0001:00032548       ?DloadAcquireSectionWriteAccess@@YAXXZ 0000000180033548 f i DelayImp:delayhlp.obj
 0001:00032604       ?DloadGetSRWLockFunctionPointers@@YAEXZ 0000000180033604 f i DelayImp:delayhlp.obj
 0001:000326a0       ?DloadMakePermanentImageCommit@@YAXPEAX_K@Z 00000001800336a0 f i DelayImp:delayhlp.obj
 0001:00032738       ?DloadObtainSection@@YAPEAXPEAK0@Z 0000000180033738 f i DelayImp:delayhlp.obj
 0001:000327d0       ?DloadProtectSection@@YAXKPEAK@Z 00000001800337d0 f i DelayImp:delayhlp.obj
 0001:00032860       ?DloadReleaseSectionWriteAccess@@YAXXZ 0000000180033860 f i DelayImp:delayhlp.obj
 0001:00032904       __delayLoadHelper2         0000000180033904 f   DelayImp:delayhlp.obj
 0001:00032bfe       __Platform_WindowsCreateString 0000000180033bfe f   runtimeobject:api-ms-win-core-winrt-string-l1-1-0.dll
 0001:00032bfe       WindowsCreateString        0000000180033bfe f   runtimeobject:api-ms-win-core-winrt-string-l1-1-0.dll
 0001:00032c04       WindowsDeleteString        0000000180033c04 f   runtimeobject:api-ms-win-core-winrt-string-l1-1-0.dll
 0001:00032c04       __Platform_WindowsDeleteString 0000000180033c04 f   runtimeobject:api-ms-win-core-winrt-string-l1-1-0.dll
 0001:00032c0a       WindowsGetStringRawBuffer  0000000180033c0a f   runtimeobject:api-ms-win-core-winrt-string-l1-1-0.dll
 0001:00032c0a       __Platform_WindowsGetStringRawBuffer 0000000180033c0a f   runtimeobject:api-ms-win-core-winrt-string-l1-1-0.dll
 0001:00032c10       WindowsDuplicateString     0000000180033c10 f   runtimeobject:api-ms-win-core-winrt-string-l1-1-0.dll
 0001:00032c10       __Platform_WindowsDuplicateString 0000000180033c10 f   runtimeobject:api-ms-win-core-winrt-string-l1-1-0.dll
 0001:00032c16       __Platform_WindowsGetStringLen 0000000180033c16 f   runtimeobject:api-ms-win-core-winrt-string-l1-1-0.dll
 0001:00032c16       WindowsGetStringLen        0000000180033c16 f   runtimeobject:api-ms-win-core-winrt-string-l1-1-0.dll
 0001:00032c1c       __vcrt_thread_detach       0000000180033c1c f   MSVCRT:ucrt_stubs.obj
 0001:00032c1c       __scrt_stub_for_acrt_thread_detach 0000000180033c1c f   MSVCRT:ucrt_stubs.obj
 0001:00032c1c       __scrt_stub_for_acrt_thread_attach 0000000180033c1c f   MSVCRT:ucrt_stubs.obj
 0001:00032c1c       __vcrt_thread_attach       0000000180033c1c f   MSVCRT:ucrt_stubs.obj
 0001:00032c1c       __vcrt_uninitialize_critical 0000000180033c1c f   MSVCRT:ucrt_stubs.obj
 0001:00032c1c       __acrt_initialize          0000000180033c1c f   MSVCRT:ucrt_stubs.obj
 0001:00032c1c       __acrt_thread_attach       0000000180033c1c f   MSVCRT:ucrt_stubs.obj
 0001:00032c1c       __scrt_stub_for_acrt_uninitialize_critical 0000000180033c1c f   MSVCRT:ucrt_stubs.obj
 0001:00032c1c       __vcrt_initialize          0000000180033c1c f   MSVCRT:ucrt_stubs.obj
 0001:00032c1c       __acrt_thread_detach       0000000180033c1c f   MSVCRT:ucrt_stubs.obj
 0001:00032c1c       __vcrt_uninitialize        0000000180033c1c f   MSVCRT:ucrt_stubs.obj
 0001:00032c1c       __scrt_stub_for_acrt_initialize 0000000180033c1c f   MSVCRT:ucrt_stubs.obj
 0001:00032c1c       __acrt_uninitialize_critical 0000000180033c1c f   MSVCRT:ucrt_stubs.obj
 0001:00032c1c       __scrt_stub_for_acrt_uninitialize 0000000180033c1c f   MSVCRT:ucrt_stubs.obj
 0001:00032c1c       __acrt_uninitialize        0000000180033c1c f   MSVCRT:ucrt_stubs.obj
 0001:00032c20       __GSHandlerCheck           0000000180033c20 f   MSVCRT:_gshandler_.obj
 0001:00032c40       __GSHandlerCheckCommon     0000000180033c40 f   MSVCRT:_gshandler_.obj
 0001:00032c9c       __GSHandlerCheck_EH        0000000180033c9c f   MSVCRT:gshandlereh.obj
 0001:00032d1c       __CxxFrameHandler3         0000000180033d1c f   vcruntime:VCRUNTIME140.dll
 0001:00032d40       _guard_dispatch_icall_nop  0000000180033d40 f   MSVCRT:_guard_dispatch_.obj
 0001:00038800       ??__F_S_scheduler@?1??_GetStaticAmbientSchedulerRef@details@Concurrency@@YAAEAV?$shared_ptr@Uscheduler_interface@Concurrency@@@std@@XZ@YAXXZ 0000000180039800 f i _nodert_generated.obj
 0001:00038a44       ??__Fmodule@?1??Create@?$Module@$00VInProcModule@Details@Platform@@@WRL@Microsoft@@SAAEAVInProcModule@Details@Platform@@XZ@YAXXZ 0000000180039a44 f i vccorlib:init.obj
 0002:00000000       __imp_GetModuleHandleA     000000018003a000     kernel32:KERNEL32.dll
 0002:00000008       __imp_LoadLibraryExA       000000018003a008     kernel32:KERNEL32.dll
 0002:00000010       __imp_FreeLibrary          000000018003a010     kernel32:KERNEL32.dll
 0002:00000018       __imp_VirtualQuery         000000018003a018     kernel32:KERNEL32.dll
 0002:00000020       __imp_VirtualProtect       000000018003a020     kernel32:KERNEL32.dll
 0002:00000028       __imp_GetSystemInfo        000000018003a028     kernel32:KERNEL32.dll
 0002:00000030       __imp_GetLastError         000000018003a030     kernel32:KERNEL32.dll
 0002:00000038       __imp_RaiseException       000000018003a038     kernel32:KERNEL32.dll
 0002:00000040       __imp_InitializeSListHead  000000018003a040     kernel32:KERNEL32.dll
 0002:00000048       __imp_DisableThreadLibraryCalls 000000018003a048     kernel32:KERNEL32.dll
 0002:00000050       __imp_GetSystemTimeAsFileTime 000000018003a050     kernel32:KERNEL32.dll
 0002:00000058       __imp_GetCurrentThreadId   000000018003a058     kernel32:KERNEL32.dll
 0002:00000060       __imp_GetCurrentProcessId  000000018003a060     kernel32:KERNEL32.dll
 0002:00000068       __imp_QueryPerformanceCounter 000000018003a068     kernel32:KERNEL32.dll
 0002:00000070       __imp_IsDebuggerPresent    000000018003a070     kernel32:KERNEL32.dll
 0002:00000078       __imp_IsProcessorFeaturePresent 000000018003a078     kernel32:KERNEL32.dll
 0002:00000080       __imp_TerminateProcess     000000018003a080     kernel32:KERNEL32.dll
 0002:00000088       __imp_GetCurrentProcess    000000018003a088     kernel32:KERNEL32.dll
 0002:00000090       __imp_SetUnhandledExceptionFilter 000000018003a090     kernel32:KERNEL32.dll
 0002:00000098       __imp_UnhandledExceptionFilter 000000018003a098     kernel32:KERNEL32.dll
 0002:000000a0       __imp_RtlVirtualUnwind     000000018003a0a0     kernel32:KERNEL32.dll
 0002:000000a8       __imp_RtlLookupFunctionEntry 000000018003a0a8     kernel32:KERNEL32.dll
 0002:000000b0       __imp_RtlCaptureContext    000000018003a0b0     kernel32:KERNEL32.dll
 0002:000000b8       __imp_GetModuleHandleW     000000018003a0b8     kernel32:KERNEL32.dll
 0002:000000c0       __imp_CreateEventW         000000018003a0c0     kernel32:KERNEL32.dll
 0002:000000c8       __imp_WaitForSingleObjectEx 000000018003a0c8     kernel32:KERNEL32.dll
 0002:000000d0       __imp_ResetEvent           000000018003a0d0     kernel32:KERNEL32.dll
 0002:000000d8       __imp_SetEvent             000000018003a0d8     kernel32:KERNEL32.dll
 0002:000000e0       __imp_DeleteCriticalSection 000000018003a0e0     kernel32:KERNEL32.dll
 0002:000000e8       __imp_LeaveCriticalSection 000000018003a0e8     kernel32:KERNEL32.dll
 0002:000000f0       __imp_EnterCriticalSection 000000018003a0f0     kernel32:KERNEL32.dll
 0002:000000f8       __imp_CloseHandle          000000018003a0f8     kernel32:KERNEL32.dll
 0002:00000100       __imp_GetProcAddress       000000018003a100     kernel32:KERNEL32.dll
 0002:00000108       __imp_AcquireSRWLockExclusive 000000018003a108     kernel32:KERNEL32.dll
 0002:00000110       __imp_ReleaseSRWLockExclusive 000000018003a110     kernel32:KERNEL32.dll
 0002:00000118       __imp_DecodePointer        000000018003a118     kernel32:KERNEL32.dll
 0002:00000120       \177KERNEL32_NULL_THUNK_DATA 000000018003a120     kernel32:KERNEL32.dll
 0002:00000128       __imp__Cnd_destroy_in_situ 000000018003a128     msvcprt:MSVCP140.dll
 0002:00000130       __imp__Cnd_broadcast       000000018003a130     msvcprt:MSVCP140.dll
 0002:00000138       __imp__Mtx_unlock          000000018003a138     msvcprt:MSVCP140.dll
 0002:00000140       __imp__Cnd_wait            000000018003a140     msvcprt:MSVCP140.dll
 0002:00000148       __imp__Mtx_init_in_situ    000000018003a148     msvcprt:MSVCP140.dll
 0002:00000150       __imp_?__ExceptionPtrRethrow@@YAXPEBX@Z 000000018003a150     msvcprt:MSVCP140.dll
 0002:00000158       __imp_?GetCurrentThreadId@platform@details@Concurrency@@YAJXZ 000000018003a158     msvcprt:MSVCP140.dll
 0002:00000160       __imp_?_ReportUnobservedException@details@Concurrency@@YAXXZ 000000018003a160     msvcprt:MSVCP140.dll
 0002:00000168       __imp_?_Schedule_chore@details@Concurrency@@YAHPEAU_Threadpool_chore@12@@Z 000000018003a168     msvcprt:MSVCP140.dll
 0002:00000170       __imp_?_IsNonBlockingThread@_Task_impl_base@details@Concurrency@@SA_NXZ 000000018003a170     msvcprt:MSVCP140.dll
 0002:00000178       __imp_?_LogWorkItemCompleted@_TaskEventLogger@details@Concurrency@@QEAAXXZ 000000018003a178     msvcprt:MSVCP140.dll
 0002:00000180       __imp_?_LogWorkItemStarted@_TaskEventLogger@details@Concurrency@@QEAAXXZ 000000018003a180     msvcprt:MSVCP140.dll
 0002:00000188       __imp_?_LogTaskExecutionCompleted@_TaskEventLogger@details@Concurrency@@QEAAXXZ 000000018003a188     msvcprt:MSVCP140.dll
 0002:00000190       __imp_?_LogTaskCompleted@_TaskEventLogger@details@Concurrency@@QEAAXXZ 000000018003a190     msvcprt:MSVCP140.dll
 0002:00000198       __imp_?_LogCancelTask@_TaskEventLogger@details@Concurrency@@QEAAXXZ 000000018003a198     msvcprt:MSVCP140.dll
 0002:000001a0       __imp_?_LogScheduleTask@_TaskEventLogger@details@Concurrency@@QEAAX_N@Z 000000018003a1a0     msvcprt:MSVCP140.dll
 0002:000001a8       __imp_?_Release_chore@details@Concurrency@@YAXPEAU_Threadpool_chore@12@@Z 000000018003a1a8     msvcprt:MSVCP140.dll
 0002:000001b0       __imp_?ReportUnhandledError@_ExceptionHolder@details@Concurrency@@AEAAXXZ 000000018003a1b0     msvcprt:MSVCP140.dll
 0002:000001b8       __imp_?_Capture@_ContextCallback@details@Concurrency@@AEAAXXZ 000000018003a1b8     msvcprt:MSVCP140.dll
 0002:000001c0       __imp_?_IsCurrentOriginSTA@_ContextCallback@details@Concurrency@@CA_NXZ 000000018003a1c0     msvcprt:MSVCP140.dll
 0002:000001c8       __imp_?_Assign@_ContextCallback@details@Concurrency@@AEAAXPEAX@Z 000000018003a1c8     msvcprt:MSVCP140.dll
 0002:000001d0       __imp_?_Reset@_ContextCallback@details@Concurrency@@AEAAXXZ 000000018003a1d0     msvcprt:MSVCP140.dll
 0002:000001d8       __imp_?_CallInContext@_ContextCallback@details@Concurrency@@QEBAXV?$function@$$A6AXXZ@std@@_N@Z 000000018003a1d8     msvcprt:MSVCP140.dll
 0002:000001e0       __imp_??0task_continuation_context@Concurrency@@AEAA@XZ 000000018003a1e0     msvcprt:MSVCP140.dll
 0002:000001e8       __imp_?__ExceptionPtrCreate@@YAXPEAX@Z 000000018003a1e8     msvcprt:MSVCP140.dll
 0002:000001f0       __imp__Cnd_init_in_situ    000000018003a1f0     msvcprt:MSVCP140.dll
 0002:000001f8       __imp_?__ExceptionPtrCopyException@@YAXPEAXPEBX1@Z 000000018003a1f8     msvcprt:MSVCP140.dll
 0002:00000200       __imp_?__ExceptionPtrCopy@@YAXPEAXPEBX@Z 000000018003a200     msvcprt:MSVCP140.dll
 0002:00000208       __imp_?_Xbad_alloc@std@@YAXXZ 000000018003a208     msvcprt:MSVCP140.dll
 0002:00000210       __imp_?_Xbad_function_call@std@@YAXXZ 000000018003a210     msvcprt:MSVCP140.dll
 0002:00000218       __imp_?_Raise_handler@std@@3P6AXAEBVexception@stdext@@@ZEA 000000018003a218     msvcprt:MSVCP140.dll
 0002:00000220       __imp_?_Throw_C_error@std@@YAXH@Z 000000018003a220     msvcprt:MSVCP140.dll
 0002:00000228       __imp_?_Xlength_error@std@@YAXPEBD@Z 000000018003a228     msvcprt:MSVCP140.dll
 0002:00000230       __imp__Mtx_destroy_in_situ 000000018003a230     msvcprt:MSVCP140.dll
 0002:00000238       __imp_?__ExceptionPtrDestroy@@YAXPEAX@Z 000000018003a238     msvcprt:MSVCP140.dll
 0002:00000240       __imp__Mtx_lock            000000018003a240     msvcprt:MSVCP140.dll
 0002:00000248       __imp_?__ExceptionPtrCurrentException@@YAXPEAX@Z 000000018003a248     msvcprt:MSVCP140.dll
 0002:00000250       \177MSVCP140_NULL_THUNK_DATA 000000018003a250     msvcprt:MSVCP140.dll
 0002:00000258       __imp___CxxFrameHandler3   000000018003a258     vcruntime:VCRUNTIME140.dll
 0002:00000260       __imp___C_specific_handler 000000018003a260     vcruntime:VCRUNTIME140.dll
 0002:00000268       __imp___vcrt_InitializeCriticalSectionEx 000000018003a268     vcruntime:VCRUNTIME140.dll
 0002:00000270       __imp___std_type_info_destroy_list 000000018003a270     vcruntime:VCRUNTIME140.dll
 0002:00000278       __imp__CxxThrowException   000000018003a278     vcruntime:VCRUNTIME140.dll
 0002:00000280       __imp___std_exception_destroy 000000018003a280     vcruntime:VCRUNTIME140.dll
 0002:00000288       __imp_memset               000000018003a288     vcruntime:VCRUNTIME140.dll
 0002:00000290       __imp_memmove              000000018003a290     vcruntime:VCRUNTIME140.dll
 0002:00000298       __imp___std_type_info_compare 000000018003a298     vcruntime:VCRUNTIME140.dll
 0002:000002a0       __imp__purecall            000000018003a2a0     vcruntime:VCRUNTIME140.dll
 0002:000002a8       __imp___std_terminate      000000018003a2a8     vcruntime:VCRUNTIME140.dll
 0002:000002b0       __imp___std_exception_copy 000000018003a2b0     vcruntime:VCRUNTIME140.dll
 0002:000002b8       \177VCRUNTIME140_NULL_THUNK_DATA 000000018003a2b8     vcruntime:VCRUNTIME140.dll
 0002:000002c0       __imp_WindowsCreateString  000000018003a2c0     runtimeobject:api-ms-win-core-winrt-string-l1-1-0.dll
 0002:000002c8       __imp_WindowsDeleteString  000000018003a2c8     runtimeobject:api-ms-win-core-winrt-string-l1-1-0.dll
 0002:000002d0       __imp_WindowsGetStringRawBuffer 000000018003a2d0     runtimeobject:api-ms-win-core-winrt-string-l1-1-0.dll
 0002:000002d8       __imp_WindowsDuplicateString 000000018003a2d8     runtimeobject:api-ms-win-core-winrt-string-l1-1-0.dll
 0002:000002e0       __imp_WindowsGetStringLen  000000018003a2e0     runtimeobject:api-ms-win-core-winrt-string-l1-1-0.dll
 0002:000002e8       \177api-ms-win-core-winrt-string-l1-1-0_NULL_THUNK_DATA 000000018003a2e8     runtimeobject:api-ms-win-core-winrt-string-l1-1-0.dll
 0002:000002f0       __imp_free                 000000018003a2f0     ucrt:api-ms-win-crt-heap-l1-1-0.dll
 0002:000002f8       __imp__callnewh            000000018003a2f8     ucrt:api-ms-win-crt-heap-l1-1-0.dll
 0002:00000300       __imp_malloc               000000018003a300     ucrt:api-ms-win-crt-heap-l1-1-0.dll
 0002:00000308       \177api-ms-win-crt-heap-l1-1-0_NULL_THUNK_DATA 000000018003a308     ucrt:api-ms-win-crt-heap-l1-1-0.dll
 0002:00000310       __imp__seh_filter_dll      000000018003a310     ucrt:api-ms-win-crt-runtime-l1-1-0.dll
 0002:00000318       __imp__configure_narrow_argv 000000018003a318     ucrt:api-ms-win-crt-runtime-l1-1-0.dll
 0002:00000320       __imp__initialize_narrow_environment 000000018003a320     ucrt:api-ms-win-crt-runtime-l1-1-0.dll
 0002:00000328       __imp__initialize_onexit_table 000000018003a328     ucrt:api-ms-win-crt-runtime-l1-1-0.dll
 0002:00000330       __imp__register_onexit_function 000000018003a330     ucrt:api-ms-win-crt-runtime-l1-1-0.dll
 0002:00000338       __imp__execute_onexit_table 000000018003a338     ucrt:api-ms-win-crt-runtime-l1-1-0.dll
 0002:00000340       __imp__invoke_watson       000000018003a340     ucrt:api-ms-win-crt-runtime-l1-1-0.dll
 0002:00000348       __imp__cexit               000000018003a348     ucrt:api-ms-win-crt-runtime-l1-1-0.dll
 0002:00000350       __imp__wassert             000000018003a350     ucrt:api-ms-win-crt-runtime-l1-1-0.dll
 0002:00000358       __imp__initterm            000000018003a358     ucrt:api-ms-win-crt-runtime-l1-1-0.dll
 0002:00000360       __imp__initterm_e          000000018003a360     ucrt:api-ms-win-crt-runtime-l1-1-0.dll
 0002:00000368       __imp__crt_atexit          000000018003a368     ucrt:api-ms-win-crt-runtime-l1-1-0.dll
 0002:00000370       __imp__invalid_parameter_noinfo_noreturn 000000018003a370     ucrt:api-ms-win-crt-runtime-l1-1-0.dll
 0002:00000378       \177api-ms-win-crt-runtime-l1-1-0_NULL_THUNK_DATA 000000018003a378     ucrt:api-ms-win-crt-runtime-l1-1-0.dll
 0002:00000380       __imp__stricmp             000000018003a380     ucrt:api-ms-win-crt-string-l1-1-0.dll
 0002:00000388       __imp_wcslen               000000018003a388     ucrt:api-ms-win-crt-string-l1-1-0.dll
 0002:00000390       __imp__wcsnicmp            000000018003a390     ucrt:api-ms-win-crt-string-l1-1-0.dll
 0002:00000398       \177api-ms-win-crt-string-l1-1-0_NULL_THUNK_DATA 000000018003a398     ucrt:api-ms-win-crt-string-l1-1-0.dll
 0002:000003a0       __imp_CoGetContextToken    000000018003a3a0     ole32:ole32.dll
 0002:000003a8       __imp_CoInitializeEx       000000018003a3a8     ole32:ole32.dll
 0002:000003b0       __imp_CoCreateFreeThreadedMarshaler 000000018003a3b0     ole32:ole32.dll
 0002:000003b8       \177ole32_NULL_THUNK_DATA  000000018003a3b8     ole32:ole32.dll
 0002:000003c0       __imp_?Allocate@Heap@Details@Platform@@SAPEAX_K0@Z 000000018003a3c0     vccorlib:vccorlib140.DLL
 0002:000003c8       __imp_?Free@Heap@Details@Platform@@SAXPEAX@Z 000000018003a3c8     vccorlib:vccorlib140.DLL
 0002:000003d0       __imp_?AlignedFree@Heap@Details@Platform@@SAXPEAX@Z 000000018003a3d0     vccorlib:vccorlib140.DLL
 0002:000003d8       __imp_?AllocateException@Heap@Details@Platform@@SAPEAX_K0@Z 000000018003a3d8     vccorlib:vccorlib140.DLL
 0002:000003e0       __imp_?GetProxyImpl@Details@Platform@@YAJPEAUIUnknown@@AEBU_GUID@@0PEAPEAU3@@Z 000000018003a3e0     vccorlib:vccorlib140.DLL
 0002:000003e8       __imp_?ReleaseTarget@ControlBlock@Details@Platform@@AEAAXXZ 000000018003a3e8     vccorlib:vccorlib140.DLL
 0002:000003f0       __imp_?ReCreateException@Exception@Platform@@SAPE$AAV12@H@Z 000000018003a3f0     vccorlib:vccorlib140.DLL
 0002:000003f8       __imp_?__abi_WinRTraiseDisconnectedException@@YAXXZ 000000018003a3f8     vccorlib:vccorlib140.DLL
 0002:00000400       __imp_?__abi_WinRTraiseFailureException@@YAXXZ 000000018003a400     vccorlib:vccorlib140.DLL
 0002:00000408       __imp_?__abi_WinRTraiseOperationCanceledException@@YAXXZ 000000018003a408     vccorlib:vccorlib140.DLL
 0002:00000410       __imp_?__abi_WinRTraiseAccessDeniedException@@YAXXZ 000000018003a410     vccorlib:vccorlib140.DLL
 0002:00000418       __imp_?__abi_WinRTraiseInvalidArgumentException@@YAXXZ 000000018003a418     vccorlib:vccorlib140.DLL
 0002:00000420       __imp_?__abi_WinRTraiseClassNotRegisteredException@@YAXXZ 000000018003a420     vccorlib:vccorlib140.DLL
 0002:00000428       __imp_?__abi_WinRTraiseCOMException@@YAXJ@Z 000000018003a428     vccorlib:vccorlib140.DLL
 0002:00000430       __imp_?__abi_translateCurrentException@@YAJ_N@Z 000000018003a430     vccorlib:vccorlib140.DLL
 0002:00000438       __imp_?__abi_WinRTraiseNullReferenceException@@YAXXZ 000000018003a438     vccorlib:vccorlib140.DLL
 0002:00000440       __imp_?__abi_WinRTraiseChangedStateException@@YAXXZ 000000018003a440     vccorlib:vccorlib140.DLL
 0002:00000448       __imp_?__abi_WinRTraiseOutOfBoundsException@@YAXXZ 000000018003a448     vccorlib:vccorlib140.DLL
 0002:00000450       __imp_?__abi_WinRTraiseWrongThreadException@@YAXXZ 000000018003a450     vccorlib:vccorlib140.DLL
 0002:00000458       __imp_?ReleaseInContextImpl@Details@Platform@@YAJPEAUIUnknown@@0@Z 000000018003a458     vccorlib:vccorlib140.DLL
 0002:00000460       __imp_?GetObjectContext@Details@Platform@@YAPEAUIUnknown@@XZ 000000018003a460     vccorlib:vccorlib140.DLL
 0002:00000468       __imp_??0NullReferenceException@Platform@@QE$AAA@XZ 000000018003a468     vccorlib:vccorlib140.DLL
 0002:00000470       __imp_??0Object@Platform@@QE$AAA@XZ 000000018003a470     vccorlib:vccorlib140.DLL
 0002:00000478       __imp_??0Delegate@Platform@@QE$AAA@XZ 000000018003a478     vccorlib:vccorlib140.DLL
 0002:00000480       __imp_?__abi_WinRTraiseNotImplementedException@@YAXXZ 000000018003a480     vccorlib:vccorlib140.DLL
 0002:00000488       __imp_?__abi_WinRTraiseInvalidCastException@@YAXXZ 000000018003a488     vccorlib:vccorlib140.DLL
 0002:00000490       __imp_?get@Message@Exception@Platform@@QE$AAAPE$AAVString@3@XZ 000000018003a490     vccorlib:vccorlib140.DLL
 0002:00000498       __imp_?__abi_WinRTraiseOutOfMemoryException@@YAXXZ 000000018003a498     vccorlib:vccorlib140.DLL
 0002:000004a0       __imp_?InitializeData@Details@Platform@@YAJH@Z 000000018003a4a0     vccorlib:vccorlib140.DLL
 0002:000004a8       __imp_?UninitializeData@Details@Platform@@YAXH@Z 000000018003a4a8     vccorlib:vccorlib140.DLL
 0002:000004b0       __imp_?GetIidsFn@@YAJHPEAKPEBU__s_GUID@@PEAPEAVGuid@Platform@@@Z 000000018003a4b0     vccorlib:vccorlib140.DLL
 0002:000004b8       __imp_?GetActivationFactoryByPCWSTR@@YAJPEAXAEAVGuid@Platform@@PEAPEAX@Z 000000018003a4b8     vccorlib:vccorlib140.DLL
 0002:000004c0       __imp_?__abi_WinRTraiseObjectDisposedException@@YAXXZ 000000018003a4c0     vccorlib:vccorlib140.DLL
 0002:000004c8       \177vccorlib140_NULL_THUNK_DATA 000000018003a4c8     vccorlib:vccorlib140.DLL
 0002:000004d0       __guard_check_icall_fptr   000000018003a4d0     MSVCRT:guard_support.obj
 0002:000004d8       __guard_dispatch_icall_fptr 000000018003a4d8     MSVCRT:guard_support.obj
 0002:000004e0       __xc_a                     000000018003a4e0     MSVCRT:initializers.obj
 0002:000004f0       _register_binding_         000000018003a4f0     _nodert_generated.obj
 0002:00000570       __xc_z                     000000018003a570     MSVCRT:initializers.obj
 0002:00000578       __xi_a                     000000018003a578     MSVCRT:initializers.obj
 0002:00000588       __abi__initialize          000000018003a588     vccorlib:init.obj
 0002:00000590       __xi_z                     000000018003a590     MSVCRT:initializers.obj
 0002:00000598       __xl_a                     000000018003a598     MSVCRT:tlssup.obj
 0002:000005a0       __xl_z                     000000018003a5a0     MSVCRT:tlssup.obj
 0002:000005a8       __xp_a                     000000018003a5a8     MSVCRT:initializers.obj
 0002:000005b0       __xp_z                     000000018003a5b0     MSVCRT:initializers.obj
 0002:000005b8       __xt_a                     000000018003a5b8     MSVCRT:initializers.obj
 0002:000005c0       __xt_z                     000000018003a5c0     MSVCRT:initializers.obj
 0002:000005d0       __sz_node_exe              000000018003a5d0     node:node.exe
 0002:000005e0       ??_C@_1BK@MGMFAEKH@?$AAk?$AAe?$AAr?$AAn?$AAe?$AAl?$AA3?$AA2?$AA?4?$AAd?$AAl?$AAl?$AA?$AA@ 000000018003a5e0     MSVCRT:thread_safe_statics.obj
 0002:00000600       ??_C@_0BM@HLJJNPAH@InitializeConditionVariable?$AA@ 000000018003a600     MSVCRT:thread_safe_statics.obj
 0002:00000620       ??_C@_0BJ@JEBJOJFJ@SleepConditionVariableCS?$AA@ 000000018003a620     MSVCRT:thread_safe_statics.obj
 0002:00000640       ??_C@_0BJ@PGPPEPCC@WakeAllConditionVariable?$AA@ 000000018003a640     MSVCRT:thread_safe_statics.obj
 0002:00000668       ??_7type_info@@6B@         000000018003a668     MSVCRT:std_type_info_static.obj
 0002:00000680       _pRawDllMain               000000018003a680     MSVCRT:dll_dllmain.obj
 0002:00000680       _pDefaultRawDllMain        000000018003a680     MSVCRT:dll_dllmain.obj
 0002:00000690       ??_7exception@std@@6B@     000000018003a690     MSVCRT:throw_bad_alloc.obj
 0002:000006a0       ??_C@_0BC@EOODALEL@Unknown?5exception?$AA@ 000000018003a6a0     MSVCRT:throw_bad_alloc.obj
 0002:000006c0       ??_7bad_alloc@std@@6B@     000000018003a6c0     MSVCRT:throw_bad_alloc.obj
 0002:000006d0       ??_C@_0P@GHFPNOJB@bad?5allocation?$AA@ 000000018003a6d0     MSVCRT:throw_bad_alloc.obj
 0002:000006e8       ??_7bad_array_new_length@std@@6B@ 000000018003a6e8     MSVCRT:throw_bad_alloc.obj
 0002:000006f8       ??_C@_0BF@KINCDENJ@bad?5array?5new?5length?$AA@ 000000018003a6f8     MSVCRT:throw_bad_alloc.obj
 0002:00000710       ??_C@_1BK@DBDEIDLH@?$AAK?$AAE?$AAR?$AAN?$AAE?$AAL?$AA3?$AA2?$AA?4?$AAD?$AAL?$AAL?$AA?$AA@ 000000018003a710     DelayImp:delayhlp.obj
 0002:00000730       ??_C@_0BI@OMNLIJDB@AcquireSRWLockExclusive?$AA@ 000000018003a730     DelayImp:delayhlp.obj
 0002:00000748       ??_C@_0BI@HMIEPCNJ@ReleaseSRWLockExclusive?$AA@ 000000018003a748     DelayImp:delayhlp.obj
 0002:00000760       __pfnDliFailureHook2       000000018003a760     DelayImp:delayhk1.obj
 0002:00000770       _load_config_used          000000018003a770     MSVCRT:loadcfg.obj
 0002:00000808       ??_C@_0BC@BDKFLDHL@unknown?5exception?$AA@ 000000018003a808     _nodert_generated.obj
 0002:00000820       ??_C@_1DG@OKCGPKIB@?$AAp?$AAe?$AAr?$AAs?$AAi?$AAs?$AAt?$AAe?$AAn?$AAt?$AA?$CI?$AA?$CJ?$AA?4?$AAI?$AAs?$AAN?$AAe?$AAa?$AAr?$AAD?$AAe?$AAa?$AAt?$AAh?$AA?$CI?$AA?$CJ?$AA?$AA@ 000000018003a820     _nodert_generated.obj
 0002:00000858       ??_C@_1CO@EGNPJLKI@?$AAp?$AAe?$AAr?$AAs?$AAi?$AAs?$AAt?$AAe?$AAn?$AAt?$AA?$CI?$AA?$CJ?$AA?4?$AAI?$AAs?$AAE?$AAm?$AAp?$AAt?$AAy?$AA?$CI?$AA?$CJ?$AA?$AA@ 000000018003a858     _nodert_generated.obj
 0002:00000888       ??_C@_1DA@FBGAEOIO@?$AA?$CB?$AAp?$AAe?$AAr?$AAs?$AAi?$AAs?$AAt?$AAe?$AAn?$AAt?$AA?$CI?$AA?$CJ?$AA?4?$AAI?$AAs?$AAE?$AAm?$AAp?$AAt?$AAy?$AA?$CI?$AA?$CJ?$AA?$AA@ 000000018003a888     _nodert_generated.obj
 0002:000008b8       ??_C@_1CO@JCKLEFMA@?$AA?$CB?$AAp?$AAe?$AAr?$AAs?$AAi?$AAs?$AAt?$AAe?$AAn?$AAt?$AA?$CI?$AA?$CJ?$AA?4?$AAI?$AAs?$AAW?$AAe?$AAa?$AAk?$AA?$CI?$AA?$CJ?$AA?$AA@ 000000018003a8b8     _nodert_generated.obj
 0002:000008e8       ??_C@_1BE@GMLLOIPJ@?$AAr?$AAe?$AAf?$AAs?$AA_?$AA?5?$AA?$DO?$AA?5?$AA0?$AA?$AA@ 000000018003a8e8     _nodert_generated.obj
 0002:00000900       ??_C@_1CC@GBFLAAPF@?$AAw?$AAr?$AAa?$AAp?$AA?9?$AA?$DO?$AAr?$AAe?$AAf?$AAs?$AA_?$AA?5?$AA?$DN?$AA?$DN?$AA?5?$AA0?$AA?$AA@ 000000018003a900     _nodert_generated.obj
 0002:00000930       ??_C@_1NI@MOMIEGHN@?$AAc?$AA?3?$AA?2?$AAu?$AAs?$AAe?$AAr?$AAs?$AA?2?$AAb?$AAi?$AAo?$AAs?$AAe?$AAn?$AAs?$AAi?$AAc?$AAs?$AA?2?$AAd?$AAo?$AAw?$AAn?$AAl?$AAo?$AAa?$AAd?$AAs?$AA?2?$AAn?$AAo@ 000000018003a930     _nodert_generated.obj
 0002:00000a10       ??_C@_1EC@MGGLMBLC@?$AAo?$AAb?$AAj?$AAe?$AAc?$AAt?$AA?9?$AA?$DO?$AAI?$AAn?$AAt?$AAe?$AAr?$AAn?$AAa?$AAl?$AAF?$AAi?$AAe?$AAl?$AAd?$AAC?$AAo?$AAu?$AAn?$AAt?$AA?$CI?$AA?$CJ?$AA?5?$AA?$DO?$AA?5?$AA0@ 000000018003aa10     _nodert_generated.obj
 0002:00000a58       ??_C@_1DI@ELDBKNAK@?$AAw?$AAr?$AAa?$AAp?$AA?9?$AA?$DO?$AAh?$AAa?$AAn?$AAd?$AAl?$AAe?$AA_?$AA?4?$AAI?$AAs?$AAN?$AAe?$AAa?$AAr?$AAD?$AAe?$AAa?$AAt?$AAh?$AA?$CI?$AA?$CJ?$AA?$AA@ 000000018003aa58     _nodert_generated.obj
 0002:00000a90       ??_C@_07CIFAGBMG@unknown?$AA@ 000000018003aa90     _nodert_generated.obj
 0002:00000a98       ??_C@_0BM@DMDJGFCM@Fail?5to?5schedule?5the?5chore?$CB?$AA@ 000000018003aa98     _nodert_generated.obj
 0002:00000ab8       ??_C@_0DN@ELCPICKL@This?5function?5cannot?5be?5called?5o@ 000000018003aab8     _nodert_generated.obj
 0002:00000af8       ??_C@_0DD@NJEIIHCG@Illegal?5to?5wait?5on?5a?5task?5in?5a?5W@ 000000018003aaf8     _nodert_generated.obj
 0002:00000b2c       ??_C@_03ICHNJLJF@key?$AA@  000000018003ab2c     _nodert_generated.obj
 0002:00000b30       ??_C@_05MFEJDJP@value?$AA@ 000000018003ab30     _nodert_generated.obj
 0002:00000b38       ??_C@_0BH@LAEGKBN@__winrtOpaqueWrapper__?$AA@ 000000018003ab38     _nodert_generated.obj
 0002:00000b50       ??_C@_08PPIJGMPL@callback?$AA@ 000000018003ab50     _nodert_generated.obj
 0002:00000b60       ??_C@_07DEBHDLBL@process?$AA@ 000000018003ab60     _nodert_generated.obj
 0002:00000b68       ??_C@_06LKIIGAOE@domain?$AA@ 000000018003ab68     _nodert_generated.obj
 0002:00000b70       ??_C@_0BJ@LJPDLIMA@__registrationTokenMap__?$AA@ 000000018003ab70     _nodert_generated.obj
 0002:00000b90       ??_C@_0BE@MIFMDKKJ@KeyCredentialStatus?$AA@ 000000018003ab90     _nodert_generated.obj
 0002:00000ba8       ??_C@_07IPNMCAN@success?$AA@ 000000018003aba8     _nodert_generated.obj
 0002:00000bb0       ??_C@_0N@JHBNNKAJ@unknownError?$AA@ 000000018003abb0     _nodert_generated.obj
 0002:00000bc0       ??_C@_08EBOBOGIC@notFound?$AA@ 000000018003abc0     _nodert_generated.obj
 0002:00000bd0       ??_C@_0N@BGKDIIHE@userCanceled?$AA@ 000000018003abd0     _nodert_generated.obj
 0002:00000be0       ??_C@_0BE@PHBPCLHL@userPrefersPassword?$AA@ 000000018003abe0     _nodert_generated.obj
 0002:00000bf8       ??_C@_0BI@JCNPHOKM@credentialAlreadyExists?$AA@ 000000018003abf8     _nodert_generated.obj
 0002:00000c10       ??_C@_0BF@JMDBBJKJ@securityDeviceLocked?$AA@ 000000018003ac10     _nodert_generated.obj
 0002:00000c28       ??_C@_0BP@FAJCCJD@KeyCredentialAttestationStatus?$AA@ 000000018003ac28     _nodert_generated.obj
 0002:00000c48       ??_C@_0N@GJOMNJHC@notSupported?$AA@ 000000018003ac48     _nodert_generated.obj
 0002:00000c58       ??_C@_0BB@EKOLHBIB@temporaryFailure?$AA@ 000000018003ac58     _nodert_generated.obj
 0002:00000c70       ??_C@_0BM@PMLEHFA@KeyCredentialCreationOption?$AA@ 000000018003ac70     _nodert_generated.obj
 0002:00000c90       ??_C@_0BA@FDLDEJMK@replaceExisting?$AA@ 000000018003ac90     _nodert_generated.obj
 0002:00000ca0       ??_C@_0N@CCJNOJDP@failIfExists?$AA@ 000000018003aca0     _nodert_generated.obj
 0002:00000cb0       ??_C@_0BA@MFDBFODA@WebAccountState?$AA@ 000000018003acb0     _nodert_generated.obj
 0002:00000cc0       ??_C@_04CGFJFPFD@none?$AA@ 000000018003acc0     _nodert_generated.obj
 0002:00000cc8       ??_C@_09JGOMOAGJ@connected?$AA@ 000000018003acc8     _nodert_generated.obj
 0002:00000cd4       ??_C@_05KKCIMGE@error?$AA@ 000000018003acd4     _nodert_generated.obj
 0002:00000ce0       ??_C@_0BG@GNKHCHFP@WebAccountPictureSize?$AA@ 000000018003ace0     _nodert_generated.obj
 0002:00000cf8       ??_C@_09KGBAGIKH@size64x64?$AA@ 000000018003acf8     _nodert_generated.obj
 0002:00000d08       ??_C@_0M@CMCOKFEO@size208x208?$AA@ 000000018003ad08     _nodert_generated.obj
 0002:00000d18       ??_C@_0M@IAEGLJCF@size424x424?$AA@ 000000018003ad18     _nodert_generated.obj
 0002:00000d28       ??_C@_0O@PHLMDDFB@size1080x1080?$AA@ 000000018003ad28     _nodert_generated.obj
 0002:00000d38       ??_C@_0BN@CIOFGFLL@KeyCredentialRetrievalResult?$AA@ 000000018003ad38     _nodert_generated.obj
 0002:00000d58       ??_C@_0L@MMPGPHHH@credential?$AA@ 000000018003ad58     _nodert_generated.obj
 0002:00000d64       ??_C@_06DJIHEMFI@status?$AA@ 000000018003ad64     _nodert_generated.obj
 0002:00000d70       ??_C@_08KIDHCPHN@castFrom?$AA@ 000000018003ad70     _nodert_generated.obj
 0002:00000d80       ??_C@_1GC@KBHNNFGK@?$AAI?$AAn?$AAv?$AAa?$AAl?$AAi?$AAd?$AA?5?$AAa?$AAr?$AAg?$AAu?$AAm?$AAe?$AAn?$AAt?$AAs?$AA?0?$AA?5?$AAn?$AAo?$AA?5?$AAs?$AAu?$AAi?$AAt?$AAa?$AAb?$AAl?$AAe?$AA?5?$AAc@ 000000018003ad80     _nodert_generated.obj
 0002:00000de8       ??_C@_0BC@HNKGPEBE@__winRtInstance__?$AA@ 000000018003ade8     _nodert_generated.obj
 0002:00000e00       ??_C@_1LK@MDDHJJID@?$AAI?$AAn?$AAv?$AAa?$AAl?$AAi?$AAd?$AA?5?$AAa?$AAr?$AAg?$AAu?$AAm?$AAe?$AAn?$AAt?$AAs?$AA?0?$AA?5?$AAn?$AAo?$AA?5?$AAo?$AAb?$AAj?$AAe?$AAc?$AAt?$AA?5?$AAp?$AAr?$AAo@ 000000018003ae00     _nodert_generated.obj
 0002:00000ec0       ??_C@_0BN@HOOGIONN@KeyCredentialOperationResult?$AA@ 000000018003aec0     _nodert_generated.obj
 0002:00000ee0       ??_C@_06KJFADLGN@result?$AA@ 000000018003aee0     _nodert_generated.obj
 0002:00000ee8       ??_C@_07HPFODJPP@IBuffer?$AA@ 000000018003aee8     _nodert_generated.obj
 0002:00000ef0       ??_C@_0BI@LEEBABDB@Windows?4Storage?4Streams?$AA@ 000000018003aef0     _nodert_generated.obj
 0002:00000f08       ??_C@_0BP@JFNOFFKG@KeyCredentialAttestationResult?$AA@ 000000018003af08     _nodert_generated.obj
 0002:00000f28       ??_C@_0BC@FEHIDBDK@attestationBuffer?$AA@ 000000018003af28     _nodert_generated.obj
 0002:00000f40       ??_C@_0BH@IIKMBAFD@certificateChainBuffer?$AA@ 000000018003af40     _nodert_generated.obj
 0002:00000f58       ??_C@_0O@FEOIKOLP@KeyCredential?$AA@ 000000018003af58     _nodert_generated.obj
 0002:00000f68       ??_C@_0BC@HNFICBNA@retrievePublicKey?$AA@ 000000018003af68     _nodert_generated.obj
 0002:00000f80       ??_C@_0BB@NJIECBBD@requestSignAsync?$AA@ 000000018003af80     _nodert_generated.obj
 0002:00000f98       ??_C@_0BE@PAJFGPJD@getAttestationAsync?$AA@ 000000018003af98     _nodert_generated.obj
 0002:00000fac       ??_C@_04MEMAJGDJ@name?$AA@ 000000018003afac     _nodert_generated.obj
 0002:00000fc0       ??_C@_1EK@NFKCAPKC@?$AAB?$AAa?$AAd?$AA?5?$AAa?$AAr?$AAg?$AAu?$AAm?$AAe?$AAn?$AAt?$AAs?$AA?3?$AA?5?$AAN?$AAo?$AA?5?$AAc?$AAa?$AAl?$AAl?$AAb?$AAa?$AAc?$AAk?$AA?5?$AAw?$AAa?$AAs?$AA?5?$AAg@ 000000018003afc0     _nodert_generated.obj
 0002:00001010       ??_C@_1FE@FAFBJCBD@?$AAB?$AAa?$AAd?$AA?5?$AAa?$AAr?$AAg?$AAu?$AAm?$AAe?$AAn?$AAt?$AAs?$AA?3?$AA?5?$AAn?$AAo?$AA?5?$AAs?$AAu?$AAi?$AAt?$AAa?$AAb?$AAl?$AAe?$AA?5?$AAo?$AAv?$AAe?$AAr?$AAl@ 000000018003b010     _nodert_generated.obj
 0002:00001068       ??_C@_0BF@FFPBCGID@KeyCredentialManager?$AA@ 000000018003b068     _nodert_generated.obj
 0002:00001080       ??_C@_0BB@KGIOGFEM@isSupportedAsync?$AA@ 000000018003b080     _nodert_generated.obj
 0002:00001098       ??_C@_0BG@GOCPKIKB@renewAttestationAsync?$AA@ 000000018003b098     _nodert_generated.obj
 0002:000010b0       ??_C@_0BD@PNECHCHM@requestCreateAsync?$AA@ 000000018003b0b0     _nodert_generated.obj
 0002:000010c8       ??_C@_09OPGAOAEI@openAsync?$AA@ 000000018003b0c8     _nodert_generated.obj
 0002:000010d8       ??_C@_0M@MCJOPKCO@deleteAsync?$AA@ 000000018003b0d8     _nodert_generated.obj
 0002:000010e8       ??_C@_0BD@JBDJOFEL@WebAccountProvider?$AA@ 000000018003b0e8     _nodert_generated.obj
 0002:00001100       ??_C@_0M@NDEOCEGH@displayName?$AA@ 000000018003b100     _nodert_generated.obj
 0002:00001110       ??_C@_07CPBOCKJN@iconUri?$AA@ 000000018003b110     _nodert_generated.obj
 0002:00001118       ??_C@_02EGCJHIOB@id?$AA@   000000018003b118     _nodert_generated.obj
 0002:00001120       ??_C@_09JJLMFHCP@authority?$AA@ 000000018003b120     _nodert_generated.obj
 0002:00001130       ??_C@_0P@KAEMMNIB@displayPurpose?$AA@ 000000018003b130     _nodert_generated.obj
 0002:00001140       ??_C@_04CCHAHKJA@user?$AA@ 000000018003b140     _nodert_generated.obj
 0002:00001148       ??_C@_03MBCCLDKD@Uri?$AA@  000000018003b148     _nodert_generated.obj
 0002:00001150       ??_C@_0BD@LBEMGLHC@Windows?4Foundation?$AA@ 000000018003b150     _nodert_generated.obj
 0002:00001164       ??_C@_04ODLBFFJE@User?$AA@ 000000018003b164     _nodert_generated.obj
 0002:00001170       ??_C@_0P@MIGFILHN@Windows?4System?$AA@ 000000018003b170     _nodert_generated.obj
 0002:00001180       ??_C@_0L@BPDGODLH@WebAccount?$AA@ 000000018003b180     _nodert_generated.obj
 0002:00001190       ??_C@_0BA@DCHELDOG@getPictureAsync?$AA@ 000000018003b190     _nodert_generated.obj
 0002:000011a0       ??_C@_0N@GJOLJNEC@signOutAsync?$AA@ 000000018003b1a0     _nodert_generated.obj
 0002:000011b0       ??_C@_05HDBKIDE@state?$AA@ 000000018003b1b0     _nodert_generated.obj
 0002:000011b8       ??_C@_08CCKFIFOP@userName?$AA@ 000000018003b1b8     _nodert_generated.obj
 0002:000011c8       ??_C@_0BD@LHLNJDFP@webAccountProvider?$AA@ 000000018003b1c8     _nodert_generated.obj
 0002:000011e0       ??_C@_0L@CIHKIEFA@properties?$AA@ 000000018003b1e0     _nodert_generated.obj
 0002:000011f0       ??_C@_0BE@FDNFINEA@IRandomAccessStream?$AA@ 000000018003b1f0     _nodert_generated.obj
 0002:00001208       ??_C@_0M@KCKOBJFF@IWebAccount?$AA@ 000000018003b208     _nodert_generated.obj
 0002:00001218       ??_C@_0BD@NKFOELHN@PasswordCredential?$AA@ 000000018003b218     _nodert_generated.obj
 0002:00001230       ??_C@_0BB@BKBJMJPH@retrievePassword?$AA@ 000000018003b230     _nodert_generated.obj
 0002:00001248       ??_C@_08NJJFDENH@resource?$AA@ 000000018003b248     _nodert_generated.obj
 0002:00001258       ??_C@_08NLHBPEGP@password?$AA@ 000000018003b258     _nodert_generated.obj
 0002:00001270       ??_C@_1EG@IJKJPMJK@?$AAV?$AAa?$AAl?$AAu?$AAe?$AA?5?$AAt?$AAo?$AA?5?$AAs?$AAe?$AAt?$AA?5?$AAi?$AAs?$AA?5?$AAo?$AAf?$AA?5?$AAu?$AAn?$AAe?$AAx?$AAp?$AAe?$AAc?$AAt?$AAe?$AAd?$AA?5?$AAt?$AAy@ 000000018003b270     _nodert_generated.obj
 0002:000012b8       ??_C@_0N@NLJDLIOJ@IPropertySet?$AA@ 000000018003b2b8     _nodert_generated.obj
 0002:000012c8       ??_C@_0BP@NPACGCBE@Windows?4Foundation?4Collections?$AA@ 000000018003b2c8     _nodert_generated.obj
 0002:000012e8       ??_C@_0O@MAAHGMAI@PasswordVault?$AA@ 000000018003b2e8     _nodert_generated.obj
 0002:000012f8       ??_C@_03BDGOHNNK@add?$AA@  000000018003b2f8     _nodert_generated.obj
 0002:000012fc       ??_C@_06LEMKAMD@remove?$AA@ 000000018003b2fc     _nodert_generated.obj
 0002:00001308       ??_C@_08NBEJGPCC@retrieve?$AA@ 000000018003b308     _nodert_generated.obj
 0002:00001318       ??_C@_0BC@BBMMMLOK@findAllByResource?$AA@ 000000018003b318     _nodert_generated.obj
 0002:00001330       ??_C@_0BC@OKPMHKNC@findAllByUserName?$AA@ 000000018003b330     _nodert_generated.obj
 0002:00001348       ??_C@_0M@HNIBDFLE@retrieveAll?$AA@ 000000018003b348     _nodert_generated.obj
 0002:00001358       ??_C@_0CA@JFBGJDFE@PasswordCredentialPropertyStore?$AA@ 000000018003b358     _nodert_generated.obj
 0002:00001378       ??_C@_06FNGHPIEM@lookup?$AA@ 000000018003b378     _nodert_generated.obj
 0002:00001380       ??_C@_06FLOEHAKL@hasKey?$AA@ 000000018003b380     _nodert_generated.obj
 0002:00001388       ??_C@_07NGNBMBLJ@getView?$AA@ 000000018003b388     _nodert_generated.obj
 0002:00001390       ??_C@_06OAOPNKHP@insert?$AA@ 000000018003b390     _nodert_generated.obj
 0002:00001398       ??_C@_05MEHLAELG@clear?$AA@ 000000018003b398     _nodert_generated.obj
 0002:000013a0       ??_C@_05NIGAKFML@first?$AA@ 000000018003b3a0     _nodert_generated.obj
 0002:000013a8       ??_C@_0M@GMNDPMBH@addListener?$AA@ 000000018003b3a8     _nodert_generated.obj
 0002:000013b4       ??_C@_02LIELOMNJ@on?$AA@   000000018003b3b4     _nodert_generated.obj
 0002:000013b8       ??_C@_0P@NPMHMMOM@removeListener?$AA@ 000000018003b3b8     _nodert_generated.obj
 0002:000013c8       ??_C@_03MCADLMAF@off?$AA@  000000018003b3c8     _nodert_generated.obj
 0002:000013d0       ??_C@_0BB@NAIOJKIJ@IObservableMap?$GA2?$AA@ 000000018003b3d0     _nodert_generated.obj
 0002:000013e8       ??_C@_0BH@LJADDBLK@IMapChangedEventArgs?$GA1?$AA@ 000000018003b3e8     _nodert_generated.obj
 0002:00001400       ??_C@_1JK@DNJLCGHE@?$AAw?$AAr?$AAo?$AAn?$AAg?$AA?5?$AAa?$AAr?$AAg?$AAu?$AAm?$AAe?$AAn?$AAt?$AAs?$AA?0?$AA?5?$AAe?$AAx?$AAp?$AAe?$AAc?$AAt?$AAe?$AAd?$AA?5?$AAa?$AAr?$AAg?$AAu?$AAm?$AAe@ 000000018003b400     _nodert_generated.obj
 0002:000014a0       ??_C@_1BG@JGHOOBGE@?$AAm?$AAa?$AAp?$AAC?$AAh?$AAa?$AAn?$AAg?$AAe?$AAd?$AA?$AA@ 000000018003b4a0     _nodert_generated.obj
 0002:000014c0       ??_C@_1LG@DAHPAPIM@?$AAT?$AAh?$AAe?$AA?5?$AAc?$AAa?$AAl?$AAl?$AAe?$AAr?$AA?5?$AAo?$AAf?$AA?5?$AAt?$AAh?$AAi?$AAs?$AA?5?$AAm?$AAe?$AAt?$AAh?$AAo?$AAd?$AA?5?$AAi?$AAs?$AAn?$AA?8?$AAt?$AA?5@ 000000018003b4c0     _nodert_generated.obj
 0002:00001580       ??_C@_1EG@KBCEIIBD@?$AAg?$AAi?$AAv?$AAe?$AAn?$AA?5?$AAe?$AAv?$AAe?$AAn?$AAt?$AA?5?$AAn?$AAa?$AAm?$AAe?$AA?5?$AAi?$AAs?$AAn?$AA?8?$AAt?$AA?5?$AAs?$AAu?$AAp?$AAp?$AAo?$AAr?$AAt?$AAe?$AAd@ 000000018003b580     _nodert_generated.obj
 0002:000015d0       ??_C@_1GE@DOIICCMG@?$AAw?$AAr?$AAo?$AAn?$AAg?$AA?5?$AAa?$AAr?$AAg?$AAu?$AAm?$AAe?$AAn?$AAt?$AAs?$AA?0?$AA?5?$AAe?$AAx?$AAp?$AAe?$AAc?$AAt?$AAe?$AAd?$AA?5?$AAa?$AA?5?$AAs?$AAt?$AAr?$AAi@ 000000018003b5d0     _nodert_generated.obj
 0002:00001638       ??_C@_0BN@EKJKFDKJ@Windows?4Security?4Credentials?$AA@ 000000018003b638     _nodert_generated.obj
 0002:00001658       ??_C@_0BJ@CIOFOAKP@?4?4?2_nodert_generated?4cpp?$AA@ 000000018003b658     _nodert_generated.obj
 0002:00001678       ??_C@_07GGKKJCAC@binding?$AA@ 000000018003b678     _nodert_generated.obj
 0002:00001680       ??_C@_1HG@EMHIMOFK@?$AAC?$AAo?$AAn?$AAc?$AAu?$AAr?$AAr?$AAe?$AAn?$AAc?$AAy?$AA?4?$AAd?$AAe?$AAt?$AAa?$AAi?$AAl?$AAs?$AA?4?$AA_?$AAI?$AAA?$AAs?$AAy?$AAn?$AAc?$AAA?$AAc?$AAt?$AAi?$AAo@ 000000018003b680     _nodert_generated.obj
 0002:00001700       ??_C@_1GE@MIPBINIF@?$AAW?$AAi?$AAn?$AAd?$AAo?$AAw?$AAs?$AA?4?$AAS?$AAe?$AAc?$AAu?$AAr?$AAi?$AAt?$AAy?$AA?4?$AAC?$AAr?$AAe?$AAd?$AAe?$AAn?$AAt?$AAi?$AAa?$AAl?$AAs?$AA?4?$AAK?$AAe?$AAy@ 000000018003b700     _nodert_generated.obj
 0002:00001770       ??_C@_1GA@EDCINH@?$AAW?$AAi?$AAn?$AAd?$AAo?$AAw?$AAs?$AA?4?$AAS?$AAe?$AAc?$AAu?$AAr?$AAi?$AAt?$AAy?$AA?4?$AAC?$AAr?$AAe?$AAd?$AAe?$AAn?$AAt?$AAi?$AAa?$AAl?$AAs?$AA?4?$AAW?$AAe?$AAb@ 000000018003b770     _nodert_generated.obj
 0002:000017d0       ??_C@_1FA@KDOOIIHN@?$AAW?$AAi?$AAn?$AAd?$AAo?$AAw?$AAs?$AA?4?$AAS?$AAe?$AAc?$AAu?$AAr?$AAi?$AAt?$AAy?$AA?4?$AAC?$AAr?$AAe?$AAd?$AAe?$AAn?$AAt?$AAi?$AAa?$AAl?$AAs?$AA?4?$AAW?$AAe?$AAb@ 000000018003b7d0     _nodert_generated.obj
 0002:00001820       ??_C@_1GA@BAAELLDH@?$AAW?$AAi?$AAn?$AAd?$AAo?$AAw?$AAs?$AA?4?$AAS?$AAe?$AAc?$AAu?$AAr?$AAi?$AAt?$AAy?$AA?4?$AAC?$AAr?$AAe?$AAd?$AAe?$AAn?$AAt?$AAi?$AAa?$AAl?$AAs?$AA?4?$AAP?$AAa?$AAs@ 000000018003b820     _nodert_generated.obj
 0002:00001880       ??_C@_1FG@OCEKLAI@?$AAW?$AAi?$AAn?$AAd?$AAo?$AAw?$AAs?$AA?4?$AAS?$AAe?$AAc?$AAu?$AAr?$AAi?$AAt?$AAy?$AA?4?$AAC?$AAr?$AAe?$AAd?$AAe?$AAn?$AAt?$AAi?$AAa?$AAl?$AAs?$AA?4?$AAP?$AAa?$AAs@ 000000018003b880     _nodert_generated.obj
 0002:000018e0       ??_C@_1JA@PGELEHKN@?$AAW?$AAi?$AAn?$AAd?$AAo?$AAw?$AAs?$AA?4?$AAF?$AAo?$AAu?$AAn?$AAd?$AAa?$AAt?$AAi?$AAo?$AAn?$AA?4?$AAC?$AAo?$AAl?$AAl?$AAe?$AAc?$AAt?$AAi?$AAo?$AAn?$AAs?$AA?4?$AAM@ 000000018003b8e0     _nodert_generated.obj
 0002:00001970       ??_C@_1HK@OLAJIIOP@?$AAW?$AAi?$AAn?$AAd?$AAo?$AAw?$AAs?$AA?4?$AAS?$AAe?$AAc?$AAu?$AAr?$AAi?$AAt?$AAy?$AA?4?$AAC?$AAr?$AAe?$AAd?$AAe?$AAn?$AAt?$AAi?$AAa?$AAl?$AAs?$AA?4?$AAP?$AAa?$AAs@ 000000018003b970     _nodert_generated.obj
 0002:000019f0       ??_C@_1EC@HNHEILEH@?$AAW?$AAi?$AAn?$AAd?$AAo?$AAw?$AAs?$AA?4?$AAF?$AAo?$AAu?$AAn?$AAd?$AAa?$AAt?$AAi?$AAo?$AAn?$AA?4?$AAP?$AAr?$AAo?$AAp?$AAe?$AAr?$AAt?$AAy?$AAV?$AAa?$AAl?$AAu?$AAe@ 000000018003b9f0     _nodert_generated.obj
 0002:00001a40       ??_C@_1FO@BJPPPDOI@?$AAW?$AAi?$AAn?$AAd?$AAo?$AAw?$AAs?$AA?4?$AAF?$AAo?$AAu?$AAn?$AAd?$AAa?$AAt?$AAi?$AAo?$AAn?$AA?4?$AAA?$AAs?$AAy?$AAn?$AAc?$AAA?$AAc?$AAt?$AAi?$AAo?$AAn?$AAC?$AAo@ 000000018003ba40     _nodert_generated.obj
 0002:00001aa0       ??_C@_1HG@EOHCBGNB@?$AAW?$AAi?$AAn?$AAd?$AAo?$AAw?$AAs?$AA?4?$AAF?$AAo?$AAu?$AAn?$AAd?$AAa?$AAt?$AAi?$AAo?$AAn?$AA?4?$AAA?$AAs?$AAy?$AAn?$AAc?$AAO?$AAp?$AAe?$AAr?$AAa?$AAt?$AAi?$AAo@ 000000018003baa0     _nodert_generated.obj
 0002:00001b18       ??_C@_0BN@MNEGDHPD@derived?5class?5must?5implement?$AA@ 000000018003bb18     _nodert_generated.obj
 0002:00001b38       ??_C@_0CP@BMLFNKNO@Windows?3?3Foundation?3?3Collections@ 000000018003bb38     _nodert_generated.obj
 0002:00001b68       ??_C@_0CL@EPAAJAFM@Windows?3?3Foundation?3?3Collections@ 000000018003bb68     _nodert_generated.obj
 0002:00001b98       ??_C@_07JGIDINKK@getMany?$AA@ 000000018003bb98     _nodert_generated.obj
 0002:00001ba0       ??_C@_08JABKCAEO@moveNext?$AA@ 000000018003bba0     _nodert_generated.obj
 0002:00001bb0       ??_C@_07LKPDDKMO@current?$AA@ 000000018003bbb0     _nodert_generated.obj
 0002:00001bb8       ??_C@_0L@FADMNBDO@hasCurrent?$AA@ 000000018003bbb8     _nodert_generated.obj
 0002:00001bc8       ??_C@_0CK@ONNEMADN@Windows?3?3Foundation?3?3Collections@ 000000018003bbc8     _nodert_generated.obj
 0002:00001bf4       ??_C@_05EHPMMFBK@split?$AA@ 000000018003bbf4     _nodert_generated.obj
 0002:00001bfc       ??_C@_04IAGNFIBA@size?$AA@ 000000018003bbfc     _nodert_generated.obj
 0002:00001c04       ??_C@_06IJDLPEM@length?$AA@ 000000018003bc04     _nodert_generated.obj
 0002:00001c10       ??_C@_0CN@CFDLBABJ@Windows?3?3Foundation?3?3Collections@ 000000018003bc10     _nodert_generated.obj
 0002:00001c40       ??_C@_05NEEIPFEN@getAt?$AA@ 000000018003bc40     _nodert_generated.obj
 0002:00001c48       ??_C@_07KKKNJHGA@indexOf?$AA@ 000000018003bc48     _nodert_generated.obj
 0002:00001c50       ??_C@_1CA@EIFFEMAD@?$AAN?$AAo?$AAt?$AA?5?$AAi?$AAm?$AAp?$AAl?$AAe?$AAm?$AAe?$AAn?$AAt?$AAe?$AAd?$AA?$AA@ 000000018003bc50     _nodert_generated.obj
 0002:00001c70       ??_C@_06BJCFNGJP@second?$AA@ 000000018003bc70     _nodert_generated.obj
 0002:00001c78       ??_C@_1CO@CKJHFEP@?$AAM?$AAe?$AAt?$AAh?$AAo?$AAd?$AA?5?$AAi?$AAs?$AAn?$AA?8?$AAt?$AA?5?$AAs?$AAu?$AAp?$AAp?$AAo?$AAr?$AAt?$AAe?$AAd?$AA?$AA@ 000000018003bc78     _nodert_generated.obj
 0002:00001ca8       ??_C@_07GOBOHMJA@boolean?$AA@ 000000018003bca8     _nodert_generated.obj
 0002:00001cb0       ??_C@_05FKHKFDID@index?$AA@ 000000018003bcb0     _nodert_generated.obj
 0002:00001cb8       ??_C@_0BD@OLBABOEK@vector?$DMT?$DO?5too?5long?$AA@ 000000018003bcb8     _nodert_generated.obj
 0002:00001cd0       ??_C@_1CE@LNAGEONJ@?$AA?$CB?$AAo?$AAb?$AAj?$AAe?$AAc?$AAt?$AA?4?$AAI?$AAs?$AAE?$AAm?$AAp?$AAt?$AAy?$AA?$CI?$AA?$CJ?$AA?$AA@ 000000018003bcd0     _nodert_generated.obj
 0002:00001d00       ??_C@_1HK@PEPAEFGG@?$AAW?$AAi?$AAn?$AAd?$AAo?$AAw?$AAs?$AA?4?$AAF?$AAo?$AAu?$AAn?$AAd?$AAa?$AAt?$AAi?$AAo?$AAn?$AA?4?$AAA?$AAs?$AAy?$AAn?$AAc?$AAO?$AAp?$AAe?$AAr?$AAa?$AAt?$AAi?$AAo@ 000000018003bd00     _nodert_generated.obj
 0002:00001d80       ??_C@_1MC@DGANCOCB@?$AAW?$AAi?$AAn?$AAd?$AAo?$AAw?$AAs?$AA?4?$AAF?$AAo?$AAu?$AAn?$AAd?$AAa?$AAt?$AAi?$AAo?$AAn?$AA?4?$AAA?$AAs?$AAy?$AAn?$AAc?$AAO?$AAp?$AAe?$AAr?$AAa?$AAt?$AAi?$AAo@ 000000018003bd80     _nodert_generated.obj
 0002:00001e50       ??_C@_1NO@OHDOAPIM@?$AAW?$AAi?$AAn?$AAd?$AAo?$AAw?$AAs?$AA?4?$AAF?$AAo?$AAu?$AAn?$AAd?$AAa?$AAt?$AAi?$AAo?$AAn?$AA?4?$AAA?$AAs?$AAy?$AAn?$AAc?$AAO?$AAp?$AAe?$AAr?$AAa?$AAt?$AAi?$AAo@ 000000018003be50     _nodert_generated.obj
 0002:00001f30       ??_C@_1OC@BGGNPFIC@?$AAW?$AAi?$AAn?$AAd?$AAo?$AAw?$AAs?$AA?4?$AAF?$AAo?$AAu?$AAn?$AAd?$AAa?$AAt?$AAi?$AAo?$AAn?$AA?4?$AAA?$AAs?$AAy?$AAn?$AAc?$AAO?$AAp?$AAe?$AAr?$AAa?$AAt?$AAi?$AAo@ 000000018003bf30     _nodert_generated.obj
 0002:00002020       ??_C@_1NO@JIMDGHBA@?$AAW?$AAi?$AAn?$AAd?$AAo?$AAw?$AAs?$AA?4?$AAF?$AAo?$AAu?$AAn?$AAd?$AAa?$AAt?$AAi?$AAo?$AAn?$AA?4?$AAA?$AAs?$AAy?$AAn?$AAc?$AAO?$AAp?$AAe?$AAr?$AAa?$AAt?$AAi?$AAo@ 000000018003c020     _nodert_generated.obj
 0002:00002100       __uuidof_?AU?$IObservableMap@PE$AAVString@Platform@@PE$AAVObject@2@@Collections@Foundation@Windows@@ 000000018003c100     _nodert_generated.obj
 0002:00002110       __uuidof_?AV?$MapChangedEventHandler@PE$AAVString@Platform@@PE$AAVObject@2@@Collections@Foundation@Windows@@ 000000018003c110     _nodert_generated.obj
 0002:00002120       __uuidof_?AUIWebAccountProvider2@Credentials@Security@Windows@@ 000000018003c120     _nodert_generated.obj
 0002:00002130       __uuidof_?AU__abi_IDelegate@?$AsyncOperationCompletedHandler@PE$AAVKeyCredentialRetrievalResult@Credentials@Security@Windows@@@Foundation@Windows@@ 000000018003c130     _nodert_generated.obj
 0002:00002130       __uuidof_?AU__abi_IDelegate@?$AsyncOperationCompletedHandler@E@Foundation@Windows@@ 000000018003c130     _nodert_generated.obj
 0002:00002130       __uuidof_?AU__abi_IDelegate@?$AsyncOperationCompletedHandler@_N@Foundation@Windows@@ 000000018003c130     _nodert_generated.obj
 0002:00002130       __uuidof_?AU__abi_IDelegate@?$AsyncOperationCompletedHandler@PE$AAUIRandomAccessStream@Streams@Storage@Windows@@@Foundation@Windows@@ 000000018003c130     _nodert_generated.obj
 0002:00002130       __uuidof_?AU__abi_IDelegate@?$AsyncOperationCompletedHandler@PE$AAVKeyCredentialAttestationResult@Credentials@Security@Windows@@@Foundation@Windows@@ 000000018003c130     _nodert_generated.obj
 0002:00002130       __uuidof_?AU__abi_IDelegate@?$AsyncOperationCompletedHandler@PE$AAVKeyCredentialOperationResult@Credentials@Security@Windows@@@Foundation@Windows@@ 000000018003c130     _nodert_generated.obj
 0002:00002140       __uuidof_?AU?$IIterable@PE$AAU?$IKeyValuePair@PE$AAVString@Platform@@PE$AAV12@@Collections@Foundation@Windows@@@Collections@Foundation@Windows@@ 000000018003c140     _nodert_generated.obj
 0002:00002150       __uuidof_?AU?$IIterable@PE$AAVPasswordCredential@Credentials@Security@Windows@@@Collections@Foundation@Windows@@ 000000018003c150     _nodert_generated.obj
 0002:00002160       ?REGISTRATION_TOKEN_MAP_PROPERTY_NAME@@3PEBDEB 000000018003c160     _nodert_generated.obj
 0002:00002168       __uuidof_?AUIWebAccount2@Credentials@Security@Windows@@ 000000018003c168     _nodert_generated.obj
 0002:00002178       __uuidof_?AVKeyCredential@Credentials@Security@Windows@@ 000000018003c178     _nodert_generated.obj
 0002:00002188       __uuidof_?AU?$IIterator@PE$AAU?$IKeyValuePair@PE$AAVString@Platform@@PE$AAVObject@2@@Collections@Foundation@Windows@@@Collections@Foundation@Windows@@ 000000018003c188     _nodert_generated.obj
 0002:00002198       __uuidof_?AU?$IMapView@PE$AAVString@Platform@@PE$AAV12@@Collections@Foundation@Windows@@ 000000018003c198     _nodert_generated.obj
 0002:000021a8       __uuidof_?AU?$IIterable@PE$AAU?$IKeyValuePair@PE$AAVString@Platform@@PE$AAVObject@2@@Collections@Foundation@Windows@@@Collections@Foundation@Windows@@ 000000018003c1a8     _nodert_generated.obj
 0002:000021b8       __uuidof_?AV?$Box@_J@Platform@@ 000000018003c1b8     _nodert_generated.obj
 0002:000021b8       __uuidof_?AU?$IBox@_J@Platform@@ 000000018003c1b8     _nodert_generated.obj
 0002:000021c8       __uuidof_?AU__I?$_AsyncInfoImpl@PE$AAUIAsyncAction@Foundation@Windows@@VAsyncActionCompletedHandler@23@EPublicNonVirtuals@details@Concurrency@@ 000000018003c1c8     _nodert_generated.obj
 0002:000021d8       __uuidof_?AVUri@Foundation@Windows@@ 000000018003c1d8     _nodert_generated.obj
 0002:000021e8       __uuidof_?AU?$IIterator@PE$AAVPasswordCredential@Credentials@Security@Windows@@@Collections@Foundation@Windows@@ 000000018003c1e8     _nodert_generated.obj
 0002:000021f8       __uuidof_?AUIWebAccountProvider3@Credentials@Security@Windows@@ 000000018003c1f8     _nodert_generated.obj
 0002:00002208       __uuidof_?AVKeyCredentialOperationResult@Credentials@Security@Windows@@ 000000018003c208     _nodert_generated.obj
 0002:00002218       __uuidof_?AUIWeakReferenceSource@Details@Platform@@ 000000018003c218     _nodert_generated.obj
 0002:00002228       __uuidof_?AVPasswordCredentialPropertyStore@Credentials@Security@Windows@@ 000000018003c228     _nodert_generated.obj
 0002:00002238       __uuidof_?AV?$AsyncOperationCompletedHandler@E@Foundation@Windows@@ 000000018003c238     _nodert_generated.obj
 0002:00002248       __uuidof_?AU?$IKeyValuePair@PE$AAVString@Platform@@PE$AAV12@@Collections@Foundation@Windows@@ 000000018003c248     _nodert_generated.obj
 0002:00002258       __uuidof_?AUIAgileObject@Details@Platform@@ 000000018003c258     _nodert_generated.obj
 0002:00002258       _GUID_94ea2b94_e9cc_49e0_c0ff_ee64ca8f5b90 000000018003c258     _nodert_generated.obj
 0002:00002268       __uuidof_?AUIAsyncAction@Foundation@Windows@@ 000000018003c268     _nodert_generated.obj
 0002:00002278       _GUID_00000003_0000_0000_c000_000000000046 000000018003c278     _nodert_generated.obj
 0002:00002288       _GUID_00000000_0000_0000_c000_000000000046 000000018003c288     _nodert_generated.obj
 0002:00002288       __uuidof_?AVKeyCredentialManager@Credentials@Security@Windows@@ 000000018003c288     _nodert_generated.obj
 0002:00002298       __uuidof_?AVKeyCredentialAttestationResult@Credentials@Security@Windows@@ 000000018003c298     _nodert_generated.obj
 0002:000022a8       __uuidof_?AU?$IKeyValuePair@PE$AAVString@Platform@@PE$AAVObject@2@@Collections@Foundation@Windows@@ 000000018003c2a8     _nodert_generated.obj
 0002:000022b8       __uuidof_?AUIRandomAccessStream@Streams@Storage@Windows@@ 000000018003c2b8     _nodert_generated.obj
 0002:000022c8       __uuidof_?AVPasswordVault@Credentials@Security@Windows@@ 000000018003c2c8     _nodert_generated.obj
 0002:000022d8       __uuidof_?AU?$IMapView@PE$AAVString@Platform@@PE$AAVObject@2@@Collections@Foundation@Windows@@ 000000018003c2d8     _nodert_generated.obj
 0002:000022e8       __uuidof_?AU?$IMap@PE$AAVString@Platform@@PE$AAVObject@2@@Collections@Foundation@Windows@@ 000000018003c2e8     _nodert_generated.obj
 0002:000022f8       __uuidof_?AVPasswordCredential@Credentials@Security@Windows@@ 000000018003c2f8     _nodert_generated.obj
 0002:00002308       __uuidof_?AU?$IAsyncOperation@E@Foundation@Windows@@ 000000018003c308     _nodert_generated.obj
 0002:00002318       __uuidof_?AV?$AsyncOperationCompletedHandler@PE$AAVKeyCredentialAttestationResult@Credentials@Security@Windows@@@Foundation@Windows@@ 000000018003c318     _nodert_generated.obj
 0002:00002328       __uuidof_?AUIAsyncInfo@Foundation@Windows@@ 000000018003c328     _nodert_generated.obj
 0002:00002338       __uuidof_?AU__abi_IDelegate@?$MapChangedEventHandler@PE$AAVString@Platform@@PE$AAVObject@2@@Collections@Foundation@Windows@@ 000000018003c338     _nodert_generated.obj
 0002:00002348       _GUID_af86e2e0_b12d_4c6a_9c5a_d7aa65101e90 000000018003c348     _nodert_generated.obj
 0002:00002358       __uuidof_?AUIBuffer@Streams@Storage@Windows@@ 000000018003c358     _nodert_generated.obj
 0002:00002368       __uuidof_?AU?$IVectorView@PE$AAVPasswordCredential@Credentials@Security@Windows@@@Collections@Foundation@Windows@@ 000000018003c368     _nodert_generated.obj
 0002:00002378       __uuidof_?AVWebAccount@Credentials@Security@Windows@@ 000000018003c378     _nodert_generated.obj
 0002:00002378       __uuidof_?AUIWebAccount@Credentials@Security@Windows@@ 000000018003c378     _nodert_generated.obj
 0002:00002388       __uuidof_?AVAsyncActionCompletedHandler@Foundation@Windows@@ 000000018003c388     _nodert_generated.obj
 0002:00002388       __uuidof_?AU__abi_IDelegate@AsyncActionCompletedHandler@Foundation@Windows@@ 000000018003c388     _nodert_generated.obj
 0002:00002398       __uuidof_?AV?$AsyncOperationCompletedHandler@PE$AAUIRandomAccessStream@Streams@Storage@Windows@@@Foundation@Windows@@ 000000018003c398     _nodert_generated.obj
 0002:000023a8       __uuidof_?AV?$AsyncOperationCompletedHandler@_N@Foundation@Windows@@ 000000018003c3a8     _nodert_generated.obj
 0002:000023b8       __uuidof_?AVWebAccountProvider@Credentials@Security@Windows@@ 000000018003c3b8     _nodert_generated.obj
 0002:000023c8       __uuidof_?AU?$IIterator@PE$AAU?$IKeyValuePair@PE$AAVString@Platform@@PE$AAV12@@Collections@Foundation@Windows@@@Collections@Foundation@Windows@@ 000000018003c3c8     _nodert_generated.obj
 0002:000023d8       __uuidof_?AU__I_IAsyncActionToAsyncOperationConverterPublicNonVirtuals@details@Concurrency@@ 000000018003c3d8     _nodert_generated.obj
 0002:000023e8       __uuidof_?AV?$AsyncOperationCompletedHandler@PE$AAVKeyCredentialOperationResult@Credentials@Security@Windows@@@Foundation@Windows@@ 000000018003c3e8     _nodert_generated.obj
 0002:000023f8       __uuidof_?AVKeyCredentialRetrievalResult@Credentials@Security@Windows@@ 000000018003c3f8     _nodert_generated.obj
 0002:00002408       __uuidof_?AV?$AsyncOperationCompletedHandler@PE$AAVKeyCredentialRetrievalResult@Credentials@Security@Windows@@@Foundation@Windows@@ 000000018003c408     _nodert_generated.obj
 0002:00002418       ??_C@_07KPENDMPA@HRESULT?$AA@ 000000018003c418     NodeRtUtils.obj
 0002:00002420       ??_C@_0BE@FOACCDKJ@__winRtNamespaces__?$AA@ 000000018003c420     NodeRtUtils.obj
 0002:00002440       ??_C@_1FG@NEAKPMBB@?$AAF?$AAa?$AAi?$AAl?$AAe?$AAd?$AA?5?$AAt?$AAo?$AA?5?$AAo?$AAb?$AAt?$AAa?$AAi?$AAn?$AA?5?$AAe?$AAx?$AAt?$AAe?$AAr?$AAn?$AAa?$AAl?$AA?5?$AAn?$AAa?$AAm?$AAe?$AAs?$AAp@ 000000018003c440     NodeRtUtils.obj
 0002:00002498       ??_C@_0O@CPBGCLBG@OpaqueWrapper?$AA@ 000000018003c498     OpaqueWrapper.obj
 0002:000024a8       ??_C@_08HCOMDCCD@iojs?4exe?$AA@ 000000018003c4a8     win_delay_load_hook.obj
 0002:000024b8       ??_C@_08JDDNMFDB@node?4exe?$AA@ 000000018003c4b8     win_delay_load_hook.obj
 0002:000081a8       _tls_used                  00000001800421a8     MSVCRT:tlssup.obj
 0002:000081d0       ??_R3ModuleBase@Details@WRL@Microsoft@@8 00000001800421d0     vccorlib:init.obj
 0002:000081e8       ??_R2ModuleBase@Details@WRL@Microsoft@@8 00000001800421e8     vccorlib:init.obj
 0002:000081f8       ??_R1A@?0A@EA@ModuleBase@Details@WRL@Microsoft@@8 00000001800421f8     vccorlib:init.obj
 0002:00008220       ??_R4InProcModule@Details@Platform@@6B?$Module@$04VInProcModule@Details@Platform@@@WRL@Microsoft@@@ 0000000180042220     vccorlib:init.obj
 0002:00008248       ??_R3InProcModule@Details@Platform@@8 0000000180042248     vccorlib:init.obj
 0002:00008260       ??_R2InProcModule@Details@Platform@@8 0000000180042260     vccorlib:init.obj
 0002:00008290       ??_R1A@?0A@EA@InProcModule@Details@Platform@@8 0000000180042290     vccorlib:init.obj
 0002:000082b8       ??_R1A@?0A@EA@?$Module@$04VInProcModule@Details@Platform@@@WRL@Microsoft@@8 00000001800422b8     vccorlib:init.obj
 0002:000082e0       ??_R3?$Module@$04VInProcModule@Details@Platform@@@WRL@Microsoft@@8 00000001800422e0     vccorlib:init.obj
 0002:000082f8       ??_R2?$Module@$04VInProcModule@Details@Platform@@@WRL@Microsoft@@8 00000001800422f8     vccorlib:init.obj
 0002:00008318       ??_R1A@?0A@EA@?$Module@$00VInProcModule@Details@Platform@@@WRL@Microsoft@@8 0000000180042318     vccorlib:init.obj
 0002:00008340       ??_R3?$Module@$00VInProcModule@Details@Platform@@@WRL@Microsoft@@8 0000000180042340     vccorlib:init.obj
 0002:00008358       ??_R2?$Module@$00VInProcModule@Details@Platform@@@WRL@Microsoft@@8 0000000180042358     vccorlib:init.obj
 0002:00008370       ??_R17?0A@EA@__abi_Module@@8 0000000180042370     vccorlib:init.obj
 0002:00008398       ??_R3__abi_Module@@8       0000000180042398     vccorlib:init.obj
 0002:000083b0       ??_R2__abi_Module@@8       00000001800423b0     vccorlib:init.obj
 0002:000083c0       ??_R1A@?0A@EA@__abi_Module@@8 00000001800423c0     vccorlib:init.obj
 0002:000083e8       ??_R4InProcModule@Details@Platform@@6B__abi_Module@@@ 00000001800423e8     vccorlib:init.obj
 0002:00008410       ??_R4?$Module@$00VInProcModule@Details@Platform@@@WRL@Microsoft@@6B@ 0000000180042410     vccorlib:init.obj
 0002:00008438       ??_R4type_info@@6B@        0000000180042438     MSVCRT:std_type_info_static.obj
 0002:00008460       ??_R3type_info@@8          0000000180042460     MSVCRT:std_type_info_static.obj
 0002:00008478       ??_R2type_info@@8          0000000180042478     MSVCRT:std_type_info_static.obj
 0002:00008488       ??_R1A@?0A@EA@type_info@@8 0000000180042488     MSVCRT:std_type_info_static.obj
 0002:000084b0       ??_R4exception@std@@6B@    00000001800424b0     MSVCRT:throw_bad_alloc.obj
 0002:000084d8       ??_R3exception@std@@8      00000001800424d8     MSVCRT:throw_bad_alloc.obj
 0002:000084f0       ??_R2exception@std@@8      00000001800424f0     MSVCRT:throw_bad_alloc.obj
 0002:00008500       ??_R1A@?0A@EA@exception@std@@8 0000000180042500     MSVCRT:throw_bad_alloc.obj
 0002:00008528       ??_R4bad_alloc@std@@6B@    0000000180042528     MSVCRT:throw_bad_alloc.obj
 0002:00008550       ??_R3bad_alloc@std@@8      0000000180042550     MSVCRT:throw_bad_alloc.obj
 0002:00008568       ??_R2bad_alloc@std@@8      0000000180042568     MSVCRT:throw_bad_alloc.obj
 0002:00008580       ??_R1A@?0A@EA@bad_alloc@std@@8 0000000180042580     MSVCRT:throw_bad_alloc.obj
 0002:000085a8       ??_R4bad_array_new_length@std@@6B@ 00000001800425a8     MSVCRT:throw_bad_alloc.obj
 0002:000085d0       ??_R3bad_array_new_length@std@@8 00000001800425d0     MSVCRT:throw_bad_alloc.obj
 0002:000085e8       ??_R2bad_array_new_length@std@@8 00000001800425e8     MSVCRT:throw_bad_alloc.obj
 0002:00008608       ??_R1A@?0A@EA@bad_array_new_length@std@@8 0000000180042608     MSVCRT:throw_bad_alloc.obj
 0002:00008ae8       __rtc_iaa                  0000000180042ae8     MSVCRT:_initsect_.obj
 0002:00008af0       __rtc_izz                  0000000180042af0     MSVCRT:_initsect_.obj
 0002:00008af8       __rtc_taa                  0000000180042af8     MSVCRT:_initsect_.obj
 0002:00008b00       __rtc_tzz                  0000000180042b00     MSVCRT:_initsect_.obj
 0002:000197d0       _TI2?AVbad_alloc@std@@     00000001800537d0     MSVCRT:throw_bad_alloc.obj
 0002:000197f0       _CTA2?AVbad_alloc@std@@    00000001800537f0     MSVCRT:throw_bad_alloc.obj
 0002:00019808       _CT??_R0?AVbad_alloc@std@@@8??0bad_alloc@std@@QEAA@AEBV01@@Z24 0000000180053808     MSVCRT:throw_bad_alloc.obj
 0002:00019830       _CT??_R0?AVexception@std@@@8??0exception@std@@QEAA@AEBV01@@Z24 0000000180053830     MSVCRT:throw_bad_alloc.obj
 0002:00019858       _TI3?AVbad_array_new_length@std@@ 0000000180053858     MSVCRT:throw_bad_alloc.obj
 0002:00019878       _CTA3?AVbad_array_new_length@std@@ 0000000180053878     MSVCRT:throw_bad_alloc.obj
 0002:00019898       _CT??_R0?AVbad_array_new_length@std@@@8??0bad_array_new_length@std@@QEAA@AEBV01@@Z24 0000000180053898     MSVCRT:throw_bad_alloc.obj
 0002:000198c0       _TI9PE$AAVException@Platform@@ 00000001800538c0     _nodert_generated.obj
 0002:000198e0       _CT??_R0PE$AAUIEquatable@Details@Platform@@@8816 00000001800538e0     _nodert_generated.obj
 0002:00019910       _CTA9PE$AAVException@Platform@@ 0000000180053910     _nodert_generated.obj
 0002:00019960       _CTA11PE$AAVNullReferenceException@Platform@@ 0000000180053960     _nodert_generated.obj
 0002:000199c0       _CT??_R0PE$AAVObject@Platform@@@888 00000001800539c0     _nodert_generated.obj
 0002:000199e8       _TI11PE$AAVNullReferenceException@Platform@@ 00000001800539e8     _nodert_generated.obj
 0002:00019a08       _CT??_R0PE$AAVException@Platform@@@88 0000000180053a08     _nodert_generated.obj
 0002:00019a30       _TI2?AVruntime_error@std@@ 0000000180053a30     _nodert_generated.obj
 0002:00019a50       _CT??_R0PE$AAUIPrintable@Details@Platform@@@888 0000000180053a50     _nodert_generated.obj
 0002:00019a78       _CT??_R0PE$AAVObject@Platform@@@8816 0000000180053a78     _nodert_generated.obj
 0002:00019aa0       _CT??_R0PE$AAVNullReferenceException@Platform@@@88 0000000180053aa0     _nodert_generated.obj
 0002:00019ac8       _CT??_R0PE$AAVObject@Platform@@@88 0000000180053ac8     _nodert_generated.obj
 0002:00019af0       _CT??_R0PE$AAUIDisposable@Platform@@@8824 0000000180053af0     _nodert_generated.obj
 0002:00019b18       _CT??_R0PE$AAVCOMException@Platform@@@88 0000000180053b18     _nodert_generated.obj
 0002:00019b40       _CTA2?AVruntime_error@std@@ 0000000180053b40     _nodert_generated.obj
 0002:00019b58       _CT??_R0PEAX@88            0000000180053b58     _nodert_generated.obj
 0002:00019b80       _CT??_R0?AVexception@stdext@@@816 0000000180053b80     _nodert_generated.obj
 0002:00019ba8       _CT??_R0?AVruntime_error@std@@@816 0000000180053ba8     _nodert_generated.obj
 0002:00019bd0       _CT??_R0PE$AAVObject@Platform@@@8824 0000000180053bd0     _nodert_generated.obj
 0002:00019bf4       __DELAY_IMPORT_DESCRIPTOR_node_exe 0000000180053bf4     node:node.exe
 0002:00019c14       __NULL_DELAY_IMPORT_DESCRIPTOR 0000000180053c14     node:node.exe
 0002:00019ea0       \177node_NULL_THUNK_DATA_DLN 0000000180053ea0     node:node.exe
 0002:0001b358       \177node_NULL_THUNK_DATA_DLB 0000000180055358     node:node.exe
 0002:0001b614       __IMPORT_DESCRIPTOR_KERNEL32 0000000180055614     kernel32:KERNEL32.dll
 0002:0001b628       __IMPORT_DESCRIPTOR_ole32  0000000180055628     ole32:ole32.dll
 0002:0001b63c       __IMPORT_DESCRIPTOR_vccorlib140 000000018005563c     vccorlib:vccorlib140.DLL
 0002:0001b650       __IMPORT_DESCRIPTOR_MSVCP140 0000000180055650     msvcprt:MSVCP140.dll
 0002:0001b664       __IMPORT_DESCRIPTOR_VCRUNTIME140 0000000180055664     vcruntime:VCRUNTIME140.dll
 0002:0001b678       __IMPORT_DESCRIPTOR_api-ms-win-crt-runtime-l1-1-0 0000000180055678     ucrt:api-ms-win-crt-runtime-l1-1-0.dll
 0002:0001b68c       __IMPORT_DESCRIPTOR_api-ms-win-crt-string-l1-1-0 000000018005568c     ucrt:api-ms-win-crt-string-l1-1-0.dll
 0002:0001b6a0       __IMPORT_DESCRIPTOR_api-ms-win-crt-heap-l1-1-0 00000001800556a0     ucrt:api-ms-win-crt-heap-l1-1-0.dll
 0002:0001b6b4       __IMPORT_DESCRIPTOR_api-ms-win-core-winrt-string-l1-1-0 00000001800556b4     runtimeobject:api-ms-win-core-winrt-string-l1-1-0.dll
 0002:0001b6c8       __NULL_IMPORT_DESCRIPTOR   00000001800556c8     kernel32:KERNEL32.dll
 0003:00000008       ??_7?$Module@$00VInProcModule@Details@Platform@@@WRL@Microsoft@@6B@ 0000000180057008     vccorlib:init.obj
 0003:00000070       ??_7InProcModule@Details@Platform@@6B?$Module@$04VInProcModule@Details@Platform@@@WRL@Microsoft@@@ 0000000180057070     vccorlib:init.obj
 0003:000000d8       ??_7InProcModule@Details@Platform@@6B__abi_Module@@@ 00000001800570d8     vccorlib:init.obj
 0003:000000f0       _Init_global_epoch         00000001800570f0     MSVCRT:thread_safe_statics.obj
 0003:000000f4       __scrt_native_dllmain_reason 00000001800570f4     MSVCRT:utility.obj
 0003:000000f8       __security_cookie          00000001800570f8     MSVCRT:gs_cookie.obj
 0003:00000100       __security_cookie_complement 0000000180057100     MSVCRT:gs_cookie.obj
 0003:00000108       __isa_available            0000000180057108     MSVCRT:_cpu_disp_.obj
 0003:0000010c       __isa_enabled              000000018005710c     MSVCRT:_cpu_disp_.obj
 0003:00000110       __memcpy_nt_iters          0000000180057110     MSVCRT:_cpu_disp_.obj
 0003:00000120       __scrt_ucrt_dll_is_in_use  0000000180057120     MSVCRT:ucrt_stubs.obj
 0003:00000128       ??_7?$_Func_impl@V<lambda_5acfe61f3b4ae200150b963d3f33cedd>@@V?$allocator@H@std@@XV?$function@$$A6AXHPEAV?$Local@VValue@v8@@@v8@@@Z@3@@std@@6B@ 0000000180057128     _nodert_generated.obj
 0003:00000158       ??_7?$_Func_impl@V<lambda_279101090ce1881c12ef39046e07b27f>@@V?$allocator@H@std@@XV?$function@$$A6AXHPEAV?$Local@VValue@v8@@@v8@@@Z@3@@std@@6B@ 0000000180057158     _nodert_generated.obj
 0003:00000188       ??_7?$_Func_impl@V<lambda_74825967637e2960b17843ec2f8e7440>@@V?$allocator@H@std@@X$$V@std@@6B@ 0000000180057188     _nodert_generated.obj
 0003:000001b8       ??_7_IAsyncActionToAsyncOperationConverter@details@Concurrency@@6B__abi_IUnknown@@@ 00000001800571b8     _nodert_generated.obj
 0003:000001e0       ??_7KeyCredentialAttestationResult@Credentials@Security@Windows@NodeRT@@6B@ 00000001800571e0     _nodert_generated.obj
 0003:00000200       ??_7?$AsyncOperationCompletedHandler@E@Foundation@Windows@@6B@ 0000000180057200     _nodert_generated.obj
 0003:00000230       ??_7?$_Func_base@V?$Local@VValue@v8@@@v8@@PE$AAVObject@Platform@@@std@@6B@ 0000000180057230     _nodert_generated.obj
 0003:00000260       ??_7AsyncActionCompletedHandler@Foundation@Windows@@6B__abi_IUnknown@@@ 0000000180057260     _nodert_generated.obj
 0003:00000288       ??_7?$_Func_impl@V<lambda_bb3ea35c7a129712676a4a6472ecdc6a>@@V?$allocator@H@std@@X$$V@std@@6B@ 0000000180057288     _nodert_generated.obj
 0003:000002b8       ??_7?$_Func_impl@V<lambda_565eee52b22ad36964fd06183f970011>@@V?$allocator@H@std@@X$$V@std@@6B@ 00000001800572b8     _nodert_generated.obj
 0003:000002e8       ??_7?$_Func_impl@V<lambda_b8e671108c61d14db13f18bcf080d2fc>@@V?$allocator@H@std@@XV?$function@$$A6AXHPEAV?$Local@VValue@v8@@@v8@@@Z@3@@std@@6B@ 00000001800572e8     _nodert_generated.obj
 0003:00000318       ??_7?$AsyncOperationCompletedHandler@E@Foundation@Windows@@6BObject@Platform@@@ 0000000180057318     _nodert_generated.obj
 0003:00000348       ??_7?$_Func_base@EV?$task@PE$AAVKeyCredentialAttestationResult@Credentials@Security@Windows@@@Concurrency@@@std@@6B@ 0000000180057348     _nodert_generated.obj
 0003:00000378       ??_7?$_Func_impl@V<lambda_894a72664415ba88315eb1ec400df9cb>@@V?$allocator@H@std@@_NV?$Local@VValue@v8@@@v8@@@std@@6B@ 0000000180057378     _nodert_generated.obj
 0003:000003a8       ??_7?$AsyncOperationCompletedHandler@PE$AAVKeyCredentialRetrievalResult@Credentials@Security@Windows@@@Foundation@Windows@@6BObject@Platform@@@ 00000001800573a8     _nodert_generated.obj
 0003:000003d8       ??_7?$_Func_impl@V<lambda_b5018d04d4e39eb5f75ec04d69f7427c>@@V?$allocator@H@std@@XV?$function@$$A6AXHPEAV?$Local@VValue@v8@@@v8@@@Z@3@@std@@6B@ 00000001800573d8     _nodert_generated.obj
 0003:00000408       ??_7?$_Func_base@XV?$task@_N@Concurrency@@@std@@6B@ 0000000180057408     _nodert_generated.obj
 0003:00000438       ??_7?$KeyValuePairWrapper@PE$AAVString@Platform@@PE$AAV12@@Collections@NodeRT@@6B@ 0000000180057438     _nodert_generated.obj
 0003:00000458       ??_7?$_AsyncInfoImpl@PE$AAUIAsyncAction@Foundation@Windows@@VAsyncActionCompletedHandler@23@E@details@Concurrency@@6BObject@Platform@@?$IAsyncOperation@E@Foundation@Windows@@@ 0000000180057458     _nodert_generated.obj
 0003:000004b8       ??_7?$AsyncOperationCompletedHandler@_N@Foundation@Windows@@6BObject@Platform@@@ 00000001800574b8     _nodert_generated.obj
 0003:000004e8       ??_7?$AsyncOperationCompletedHandler@PE$AAVKeyCredentialRetrievalResult@Credentials@Security@Windows@@@Foundation@Windows@@6B@ 00000001800574e8     _nodert_generated.obj
 0003:00000518       ??_7?$_Func_impl@V<lambda_62960d9191954ca6d0aa9d8074ddd588>@@V?$allocator@H@std@@X$$V@std@@6B@ 0000000180057518     _nodert_generated.obj
 0003:00000548       ??_7_DefaultPPLTaskScheduler@details@Concurrency@@6B@ 0000000180057548     _nodert_generated.obj
 0003:00000550       ??_7?$AsyncOperationCompletedHandler@PE$AAVKeyCredentialAttestationResult@Credentials@Security@Windows@@@Foundation@Windows@@6BObject@Platform@@@ 0000000180057550     _nodert_generated.obj
 0003:00000580       ??_7?$_Func_base@V?$Local@VValue@v8@@@v8@@PE$AAVString@Platform@@@std@@6B@ 0000000180057580     _nodert_generated.obj
 0003:000005b0       ??_7TokenData@Async@NodeUtils@@6B@ 00000001800575b0     _nodert_generated.obj
 0003:000005b8       ??_7?$_Func_impl@V<lambda_f0a5acfc950c43e1fbbb5ee2eed03371>@@V?$allocator@H@std@@XV?$function@$$A6AXHPEAV?$Local@VValue@v8@@@v8@@@Z@3@@std@@6B@ 00000001800575b8     _nodert_generated.obj
 0003:000005e8       ??_7?$AsyncOperationCompletedHandler@PE$AAVKeyCredentialOperationResult@Credentials@Security@Windows@@@Foundation@Windows@@6BObject@Platform@@@ 00000001800575e8     _nodert_generated.obj
 0003:00000618       ??_7PasswordCredential@Credentials@Security@Windows@NodeRT@@6B@ 0000000180057618     _nodert_generated.obj
 0003:00000638       ??_7?$_Ref_count_obj@U?$_Task_impl@_N@details@Concurrency@@@std@@6B@ 0000000180057638     _nodert_generated.obj
 0003:00000658       ??_7?$_Func_impl@V<lambda_a88ba152e427f8c2aef19e30e230b579>@@V?$allocator@H@std@@V?$Local@VValue@v8@@@v8@@PE$AAVObject@Platform@@@std@@6B@ 0000000180057658     _nodert_generated.obj
 0003:00000688       ??_7?$_Func_impl@V<lambda_c5918b628fcce4ef3413db30e465b55f>@@V?$allocator@H@std@@PE$AAVPasswordCredential@Credentials@Security@Windows@@V?$Local@VValue@v8@@@v8@@@std@@6B@ 0000000180057688     _nodert_generated.obj
 0003:000006b8       ??_7?$_Ref_count_obj@U?$_Task_impl@PE$AAVKeyCredentialRetrievalResult@Credentials@Security@Windows@@@details@Concurrency@@@std@@6B@ 00000001800576b8     _nodert_generated.obj
 0003:000006d8       ??_7?$_Func_impl@V<lambda_238a318ebb7e5433e50faddafa53240b>@@V?$allocator@H@std@@X$$V@std@@6B@ 00000001800576d8     _nodert_generated.obj
 0003:00000708       ??_7?$_Func_impl@V<lambda_0a2bdc002657507cd74ae718c4dfbbbd>@@V?$allocator@H@std@@XV?$task@PE$AAUIRandomAccessStream@Streams@Storage@Windows@@@Concurrency@@@std@@6B@ 0000000180057708     _nodert_generated.obj
 0003:00000738       ??_7?$_Ref_count_obj@U?$_Task_impl@PE$AAVKeyCredentialOperationResult@Credentials@Security@Windows@@@details@Concurrency@@@std@@6B@ 0000000180057738     _nodert_generated.obj
 0003:00000758       ??_7?$_Func_base@EV?$task@PE$AAVKeyCredentialRetrievalResult@Credentials@Security@Windows@@@Concurrency@@@std@@6B@ 0000000180057758     _nodert_generated.obj
 0003:00000788       ??_7?$MapChangedEventHandler@PE$AAVString@Platform@@PE$AAVObject@2@@Collections@Foundation@Windows@@6BObject@Platform@@@ 0000000180057788     _nodert_generated.obj
 0003:000007b8       ??_7_CancellationTokenRegistration@details@Concurrency@@6B@ 00000001800577b8     _nodert_generated.obj
 0003:000007d0       ??_7?$KeyValuePairWrapper@PE$AAVString@Platform@@PE$AAVObject@2@@Collections@NodeRT@@6B@ 00000001800577d0     _nodert_generated.obj
 0003:000007f0       ??_7?$AsyncOperationCompletedHandler@PE$AAUIRandomAccessStream@Streams@Storage@Windows@@@Foundation@Windows@@6B__abi_IUnknown@@@ 00000001800577f0     _nodert_generated.obj
 0003:00000818       ??_7?$MapChangedEventHandler@PE$AAVString@Platform@@PE$AAVObject@2@@Collections@Foundation@Windows@@6B__abi_IUnknown@@@ 0000000180057818     _nodert_generated.obj
 0003:00000840       ??_7?$_Func_base@XV?$task@PE$AAVKeyCredentialAttestationResult@Credentials@Security@Windows@@@Concurrency@@@std@@6B@ 0000000180057840     _nodert_generated.obj
 0003:00000870       ??_7?$_ContinuationTaskHandle@PE$AAVKeyCredentialOperationResult@Credentials@Security@Windows@@XV?$function@$$A6AXV?$task@PE$AAVKeyCredentialOperationResult@Credentials@Security@Windows@@@Concurrency@@@Z@std@@U?$integral_constant@_N$00@6@U_TypeSelectorNoAsync@details@Concurrency@@@?$task@PE$AAVKeyCredentialOperationResult@Credentials@Security@Windows@@@Concurrency@@6B@ 0000000180057870     _nodert_generated.obj
 0003:00000888       ??_7?$_Func_impl@V<lambda_2898c1f942da5bb07e9851962fe02557>@@V?$allocator@H@std@@PE$AAVString@Platform@@V?$Local@VValue@v8@@@v8@@@std@@6B@ 0000000180057888     _nodert_generated.obj
 0003:000008b8       ??_7?$_Task_impl@PE$AAVKeyCredentialRetrievalResult@Credentials@Security@Windows@@@details@Concurrency@@6B@ 00000001800578b8     _nodert_generated.obj
 0003:000008c8       ??_7?$_Func_impl@V<lambda_cf258e217e1de5665a08cbbb30d6b9d5>@@V?$allocator@H@std@@_NV?$Local@VValue@v8@@@v8@@@std@@6B@ 00000001800578c8     _nodert_generated.obj
 0003:000008f8       ??_7?$_Ref_count_obj@U_ExceptionHolder@details@Concurrency@@@std@@6B@ 00000001800578f8     _nodert_generated.obj
 0003:00000918       ??_7_RefCounter@details@Concurrency@@6B@ 0000000180057918     _nodert_generated.obj
 0003:00000928       ??_7?$IteratorWrapper@PE$AAU?$IKeyValuePair@PE$AAVString@Platform@@PE$AAV12@@Collections@Foundation@Windows@@@Collections@NodeRT@@6B@ 0000000180057928     _nodert_generated.obj
 0003:00000948       ??_7_IAsyncActionToAsyncOperationConverter@details@Concurrency@@6B@ 0000000180057948     _nodert_generated.obj
 0003:00000978       ??_7?$_PPLTaskHandle@EU?$_ContinuationTaskHandle@PE$AAVKeyCredentialAttestationResult@Credentials@Security@Windows@@XV?$function@$$A6AXV?$task@PE$AAVKeyCredentialAttestationResult@Credentials@Security@Windows@@@Concurrency@@@Z@std@@U?$integral_constant@_N$00@6@U_TypeSelectorNoAsync@details@Concurrency@@@?$task@PE$AAVKeyCredentialAttestationResult@Credentials@Security@Windows@@@Concurrency@@U_ContinuationTaskHandleBase@details@3@@details@Concurrency@@6B@ 0000000180057978     _nodert_generated.obj
 0003:00000990       ??_7?$_Func_impl@V<lambda_54a3ae4835dd5cf44f02a0eeadada84b>@@V?$allocator@H@std@@XV?$task@PE$AAVKeyCredentialAttestationResult@Credentials@Security@Windows@@@Concurrency@@@std@@6B@ 0000000180057990     _nodert_generated.obj
 0003:000009c0       ??_7?$_Func_impl@V<lambda_763529b0c7473cbc215a52d189ac9b18>@@V?$allocator@H@std@@X$$V@std@@6B@ 00000001800579c0     _nodert_generated.obj
 0003:000009f0       ??_7?$_Task_impl@_N@details@Concurrency@@6B@ 00000001800579f0     _nodert_generated.obj
 0003:00000a00       ??_7?$_Func_impl@V<lambda_9236e82175b1e8f0c25554990d6ee763>@@V?$allocator@H@std@@XV?$function@$$A6AXHPEAV?$Local@VValue@v8@@@v8@@@Z@3@@std@@6B@ 0000000180057a00     _nodert_generated.obj
 0003:00000a30       ??_7?$_Task_impl@PE$AAVKeyCredentialOperationResult@Credentials@Security@Windows@@@details@Concurrency@@6B@ 0000000180057a30     _nodert_generated.obj
 0003:00000a40       ??_7?$_ContinuationTaskHandle@PE$AAVKeyCredentialAttestationResult@Credentials@Security@Windows@@XV?$function@$$A6AXV?$task@PE$AAVKeyCredentialAttestationResult@Credentials@Security@Windows@@@Concurrency@@@Z@std@@U?$integral_constant@_N$00@6@U_TypeSelectorNoAsync@details@Concurrency@@@?$task@PE$AAVKeyCredentialAttestationResult@Credentials@Security@Windows@@@Concurrency@@6B@ 0000000180057a40     _nodert_generated.obj
 0003:00000a58       ??_7?$_Func_impl@V<lambda_90430bfa44bd46a48b7e1e4e5d6cf197>@@V?$allocator@H@std@@_NV?$Local@VValue@v8@@@v8@@@std@@6B@ 0000000180057a58     _nodert_generated.obj
 0003:00000a88       ??_7?$_Func_impl@V<lambda_1af583cf6945007177c61d87505abd8e>@@V?$allocator@H@std@@XHPEAV?$Local@VValue@v8@@@v8@@@std@@6B@ 0000000180057a88     _nodert_generated.obj
 0003:00000ab8       ??_7?$_Func_impl@V<lambda_11ef064afb8153978348c7ae537beec7>@@V?$allocator@H@std@@_NV?$Local@VValue@v8@@@v8@@@std@@6B@ 0000000180057ab8     _nodert_generated.obj
 0003:00000ae8       ??_7?$__abi_FunctorCapture@V<lambda_af8508c7722addee579d0ffcec46034b>@@XPE$AAUIAsyncAction@Foundation@Windows@@W4AsyncStatus@34@@Details@Platform@@6B@ 0000000180057ae8     _nodert_generated.obj
 0003:00000af8       ??_7?$_Func_impl@V<lambda_c8cb0b9408af423b3d444d18815ef67e>@@V?$allocator@H@std@@PE$AAVPasswordCredential@Credentials@Security@Windows@@V?$Local@VValue@v8@@@v8@@@std@@6B@ 0000000180057af8     _nodert_generated.obj
 0003:00000b28       ??_7?$_Func_base@XV?$task@X@Concurrency@@@std@@6B@ 0000000180057b28     _nodert_generated.obj
 0003:00000b58       ??_7?$_Func_base@_NV?$Local@VValue@v8@@@v8@@@std@@6B@ 0000000180057b58     _nodert_generated.obj
 0003:00000b88       ??_7?$__abi_FunctorCapture@V<lambda_622dcd01706df0ad4e9faa2cac78f8d3>@@XPE$AAU?$IAsyncOperation@PE$AAVKeyCredentialOperationResult@Credentials@Security@Windows@@@Foundation@Windows@@W4AsyncStatus@34@@Details@Platform@@6B@ 0000000180057b88     _nodert_generated.obj
 0003:00000b98       ??_7?$_Func_impl@V<lambda_1de5d7763f0249f029274f13d652e2bc>@@V?$allocator@H@std@@_NV?$Local@VValue@v8@@@v8@@@std@@6B@ 0000000180057b98     _nodert_generated.obj
 0003:00000bc8       ??_7?$_Func_impl@V<lambda_fcddfbb588d6d178324b6e9cbb1f8253>@@V?$allocator@H@std@@X$$V@std@@6B@ 0000000180057bc8     _nodert_generated.obj
 0003:00000bf8       ??_7?$_Func_base@V?$Local@VValue@v8@@@v8@@PE$AAU?$IKeyValuePair@PE$AAVString@Platform@@PE$AAVObject@2@@Collections@Foundation@Windows@@@std@@6B@ 0000000180057bf8     _nodert_generated.obj
 0003:00000c28       ??_7?$_Ref_count_obj@U?$_Task_impl@PE$AAVKeyCredentialAttestationResult@Credentials@Security@Windows@@@details@Concurrency@@@std@@6B@ 0000000180057c28     _nodert_generated.obj
 0003:00000c48       ??_7?$AsyncOperationCompletedHandler@PE$AAVKeyCredentialOperationResult@Credentials@Security@Windows@@@Foundation@Windows@@6B@ 0000000180057c48     _nodert_generated.obj
 0003:00000c78       ??_7?$_Func_impl@V<lambda_c40472a1a0562fc548f4647b082fe665>@@V?$allocator@H@std@@_NV?$Local@VValue@v8@@@v8@@@std@@6B@ 0000000180057c78     _nodert_generated.obj
 0003:00000ca8       ??_7?$_Func_base@EV?$task@X@Concurrency@@@std@@6B@ 0000000180057ca8     _nodert_generated.obj
 0003:00000cd8       ??_7?$_Func_impl@V<lambda_482f13ff60dffa567295a33f4fa5f717>@@V?$allocator@H@std@@XV?$function@$$A6AXHPEAV?$Local@VValue@v8@@@v8@@@Z@3@@std@@6B@ 0000000180057cd8     _nodert_generated.obj
 0003:00000d08       ??_7PasswordVault@Credentials@Security@Windows@NodeRT@@6B@ 0000000180057d08     _nodert_generated.obj
 0003:00000d28       ??_7?$VectorViewWrapper@PE$AAVPasswordCredential@Credentials@Security@Windows@@@Collections@NodeRT@@6B@ 0000000180057d28     _nodert_generated.obj
 0003:00000d48       ??_7?$_Func_impl@V<lambda_2cdc3f7620d18cd97fbfc9d2d4690fa9>@@V?$allocator@H@std@@V?$Local@VValue@v8@@@v8@@PE$AAVString@Platform@@@std@@6B@ 0000000180057d48     _nodert_generated.obj
 0003:00000d78       ??_7?$_Func_impl@V<lambda_0eab81cc34bebf16b98183cb52515b9a>@@V?$allocator@H@std@@XV?$task@PE$AAVKeyCredentialOperationResult@Credentials@Security@Windows@@@Concurrency@@@std@@6B@ 0000000180057d78     _nodert_generated.obj
 0003:00000da8       ??_7?$_Func_impl@V<lambda_7c85cdcc7b722a73124a4747dd95cece>@@V?$allocator@H@std@@V?$Local@VValue@v8@@@v8@@PE$AAU?$IKeyValuePair@PE$AAVString@Platform@@PE$AAVObject@2@@Collections@Foundation@Windows@@@std@@6B@ 0000000180057da8     _nodert_generated.obj
 0003:00000dd8       ??_7?$_Func_impl@V<lambda_b07158aeb02b1c6d05124a961921958e>@@V?$allocator@H@std@@XV?$function@$$A6AXHPEAV?$Local@VValue@v8@@@v8@@@Z@3@@std@@6B@ 0000000180057dd8     _nodert_generated.obj
 0003:00000e08       ??_7?$_Func_impl@V<lambda_5a1c437f17fa466aabaf7b0153a0ecc3>@@V?$allocator@H@std@@EV?$task@_N@Concurrency@@@std@@6B@ 0000000180057e08     _nodert_generated.obj
 0003:00000e38       ??_7_IAsyncActionToAsyncOperationConverter@details@Concurrency@@6BIAsyncInfo@Foundation@Windows@@@ 0000000180057e38     _nodert_generated.obj
 0003:00000eb8       ??_7?$_Func_impl@V<lambda_f8722d1b632f83f58f7ddae40deccbd6>@@V?$allocator@H@std@@X$$V@std@@6B@ 0000000180057eb8     _nodert_generated.obj
 0003:00000ee8       ??_7?$_Func_impl@V<lambda_96e3cb59543c51283fb296f13d4d1869>@@V?$allocator@H@std@@XV?$task@X@Concurrency@@@std@@6B@ 0000000180057ee8     _nodert_generated.obj
 0003:00000f18       ??_7?$_Func_impl@V<lambda_cbae3cbe999e6f44f1e055d9bfc9ed60>@@V?$allocator@H@std@@V?$Local@VValue@v8@@@v8@@PE$AAVString@Platform@@@std@@6B@ 0000000180057f18     _nodert_generated.obj
 0003:00000f48       ??_7?$_Func_impl@V<lambda_0cda8732cc934001c51aae542286f6ed>@@V?$allocator@H@std@@XV?$task@X@Concurrency@@@std@@6B@ 0000000180057f48     _nodert_generated.obj
 0003:00000f78       ??_7?$_Func_base@X$$V@std@@6B@ 0000000180057f78     _nodert_generated.obj
 0003:00000fa8       ??_7_Ref_count_base@std@@6B@ 0000000180057fa8     _nodert_generated.obj
 0003:00000fc8       ??_7?$__abi_FunctorCapture@V<lambda_9c267cdafd8e064f323ec4e1c7ae30d4>@@XPE$AAU?$IAsyncOperation@_N@Foundation@Windows@@W4AsyncStatus@34@@Details@Platform@@6B@ 0000000180057fc8     _nodert_generated.obj
 0003:00000fd8       ??_7exception@stdext@@6B@  0000000180057fd8     _nodert_generated.obj
 0003:00000ff0       ??_7?$AsyncOperationCompletedHandler@PE$AAVKeyCredentialAttestationResult@Credentials@Security@Windows@@@Foundation@Windows@@6B__abi_IUnknown@@@ 0000000180057ff0     _nodert_generated.obj
 0003:00001018       ??_7?$_Func_base@V?$Local@VValue@v8@@@v8@@PE$AAVPasswordCredential@Credentials@Security@Windows@@@std@@6B@ 0000000180058018     _nodert_generated.obj
 0003:00001048       ??_7?$_Func_impl@V<lambda_a6dafb187171873a34e5daaeebf06488>@@V?$allocator@H@std@@X$$V@std@@6B@ 0000000180058048     _nodert_generated.obj
 0003:00001078       ??_7?$_Func_impl@V<lambda_b96afc2058126c8419999d664580aa66>@@V?$allocator@H@std@@PE$AAVPasswordCredential@Credentials@Security@Windows@@V?$Local@VValue@v8@@@v8@@@std@@6B@ 0000000180058078     _nodert_generated.obj
 0003:000010a8       ??_7__abi_CaptureBase@Details@Platform@@6B@ 00000001800580a8     _nodert_generated.obj
 0003:000010b0       ??_7?$_ContinuationTaskHandle@PE$AAUIRandomAccessStream@Streams@Storage@Windows@@XV?$function@$$A6AXV?$task@PE$AAUIRandomAccessStream@Streams@Storage@Windows@@@Concurrency@@@Z@std@@U?$integral_constant@_N$00@6@U_TypeSelectorNoAsync@details@Concurrency@@@?$task@PE$AAUIRandomAccessStream@Streams@Storage@Windows@@@Concurrency@@6B@ 00000001800580b0     _nodert_generated.obj
 0003:000010c8       ??_7?$_Func_impl@V<lambda_4eec289ec0f4deac3a510f156040991f>@@V?$allocator@H@std@@V?$Local@VValue@v8@@@v8@@PE$AAVString@Platform@@@std@@6B@ 00000001800580c8     _nodert_generated.obj
 0003:000010f8       ??_7?$_AsyncInfoImpl@PE$AAUIAsyncAction@Foundation@Windows@@VAsyncActionCompletedHandler@23@E@details@Concurrency@@6BObject@Platform@@@ 00000001800580f8     _nodert_generated.obj
 0003:00001128       ??_7?$AsyncOperationCompletedHandler@PE$AAUIRandomAccessStream@Streams@Storage@Windows@@@Foundation@Windows@@6BObject@Platform@@@ 0000000180058128     _nodert_generated.obj
 0003:00001158       ??_7?$_Ref_count_obj@U?$_Task_impl@PE$AAUIRandomAccessStream@Streams@Storage@Windows@@@details@Concurrency@@@std@@6B@ 0000000180058158     _nodert_generated.obj
 0003:00001178       ??_7?$_Func_impl@V<lambda_a4bb01c3bfce7d486672a1a98d0662e5>@@V?$allocator@H@std@@XV?$function@$$A6AXHPEAV?$Local@VValue@v8@@@v8@@@Z@3@@std@@6B@ 0000000180058178     _nodert_generated.obj
 0003:000011a8       ??_7?$__abi_FunctorCapture@V<lambda_db80035d952e9a216ce91aaae9489895>@@XPE$AAU?$IAsyncOperation@E@Foundation@Windows@@W4AsyncStatus@34@@Details@Platform@@6B@ 00000001800581a8     _nodert_generated.obj
 0003:000011b8       ??_7?$_Func_impl@V<lambda_d0cf62236daec0328959214a2f29896a>@@V?$allocator@H@std@@X$$V@std@@6B@ 00000001800581b8     _nodert_generated.obj
 0003:00001230       __pfnDliNotifyHook2        0000000180058230     win_delay_load_hook.obj
 0003:00001238       ??_7KeyCredentialRetrievalResult@Credentials@Security@Windows@NodeRT@@6B@ 0000000180058238     _nodert_generated.obj
 0003:00001258       ??_7AsyncActionCompletedHandler@Foundation@Windows@@6B@ 0000000180058258     _nodert_generated.obj
 0003:00001288       ??_7KeyCredential@Credentials@Security@Windows@NodeRT@@6B@ 0000000180058288     _nodert_generated.obj
 0003:000012a8       ??_7?$__abi_FunctorCapture@V<lambda_2b98d90c94c1151452b829038abfb7b9>@@XPE$AAU?$IAsyncOperation@PE$AAVKeyCredentialRetrievalResult@Credentials@Security@Windows@@@Foundation@Windows@@W4AsyncStatus@34@@Details@Platform@@6B@ 00000001800582a8     _nodert_generated.obj
 0003:000012b8       ??_7?$_ContinuationTaskHandle@PE$AAVKeyCredentialRetrievalResult@Credentials@Security@Windows@@XV?$function@$$A6AXV?$task@PE$AAVKeyCredentialRetrievalResult@Credentials@Security@Windows@@@Concurrency@@@Z@std@@U?$integral_constant@_N$00@6@U_TypeSelectorNoAsync@details@Concurrency@@@?$task@PE$AAVKeyCredentialRetrievalResult@Credentials@Security@Windows@@@Concurrency@@6B@ 00000001800582b8     _nodert_generated.obj
 0003:000012d0       ??_7?$_AsyncInfoImpl@PE$AAUIAsyncAction@Foundation@Windows@@VAsyncActionCompletedHandler@23@E@details@Concurrency@@6BIAsyncInfo@Foundation@Windows@@@ 00000001800582d0     _nodert_generated.obj
 0003:00001350       ??_7PasswordCredentialPropertyStore@Credentials@Security@Windows@NodeRT@@6B@ 0000000180058350     _nodert_generated.obj
 0003:00001370       ??_7?$_Func_base@PE$AAVPasswordCredential@Credentials@Security@Windows@@V?$Local@VValue@v8@@@v8@@@std@@6B@ 0000000180058370     _nodert_generated.obj
 0003:000013a0       ??_7_TaskProcHandle@details@Concurrency@@6B@ 00000001800583a0     _nodert_generated.obj
 0003:000013b0       ??_7runtime_error@std@@6B@ 00000001800583b0     _nodert_generated.obj
 0003:000013c8       ??_7?$_Func_impl@V<lambda_d77f911d074d0f8d27a0b7999255def9>@@V?$allocator@H@std@@V?$Local@VValue@v8@@@v8@@PE$AAVString@Platform@@@std@@6B@ 00000001800583c8     _nodert_generated.obj
 0003:000013f8       ??_7?$_Func_base@EV?$task@PE$AAVKeyCredentialOperationResult@Credentials@Security@Windows@@@Concurrency@@@std@@6B@ 00000001800583f8     _nodert_generated.obj
 0003:00001428       ??_7?$_PPLTaskHandle@EU?$_ContinuationTaskHandle@PE$AAVKeyCredentialOperationResult@Credentials@Security@Windows@@XV?$function@$$A6AXV?$task@PE$AAVKeyCredentialOperationResult@Credentials@Security@Windows@@@Concurrency@@@Z@std@@U?$integral_constant@_N$00@6@U_TypeSelectorNoAsync@details@Concurrency@@@?$task@PE$AAVKeyCredentialOperationResult@Credentials@Security@Windows@@@Concurrency@@U_ContinuationTaskHandleBase@details@3@@details@Concurrency@@6B@ 0000000180058428     _nodert_generated.obj
 0003:00001440       ??_7?$_Func_impl@V<lambda_c52071c61d3bfc4666f01eb279077e47>@@V?$allocator@H@std@@V?$Local@VValue@v8@@@v8@@PE$AAVPasswordCredential@Credentials@Security@Windows@@@std@@6B@ 0000000180058440     _nodert_generated.obj
 0003:00001470       ??_7_IAsyncActionToAsyncOperationConverter@details@Concurrency@@6BObject@Platform@@?$IAsyncOperation@E@Foundation@Windows@@@ 0000000180058470     _nodert_generated.obj
 0003:000014d0       ??_7?$__abi_FunctorCapture@V<lambda_43ab25c1adb7f0973938ee962788b436>@@XPE$AAU?$IAsyncOperation@PE$AAVKeyCredentialAttestationResult@Credentials@Security@Windows@@@Foundation@Windows@@W4AsyncStatus@34@@Details@Platform@@6B@ 00000001800584d0     _nodert_generated.obj
 0003:000014e0       ??_7?$_Func_impl@V<lambda_4547bc666ca5e819e2f94520da23e0f5>@@V?$allocator@H@std@@XV?$function@$$A6AXHPEAV?$Local@VValue@v8@@@v8@@@Z@3@@std@@6B@ 00000001800584e0     _nodert_generated.obj
 0003:00001510       ??_7?$_Func_impl@V<lambda_000a9465ab1c2d38e4219958767cbf46>@@V?$allocator@H@std@@XV?$function@$$A6AXHPEAV?$Local@VValue@v8@@@v8@@@Z@3@@std@@6B@ 0000000180058510     _nodert_generated.obj
 0003:00001540       ??_7?$MapViewWrapper@PE$AAVString@Platform@@PE$AAVObject@2@@Collections@NodeRT@@6B@ 0000000180058540     _nodert_generated.obj
 0003:00001560       ??_7task_canceled@Concurrency@@6B@ 0000000180058560     _nodert_generated.obj
 0003:00001578       ??_7?$_Func_impl@V<lambda_31e5d09106ba1b018eab84dd43293d09>@@V?$allocator@H@std@@V?$Local@VValue@v8@@@v8@@PE$AAU?$IKeyValuePair@PE$AAVString@Platform@@PE$AAV12@@Collections@Foundation@Windows@@@std@@6B@ 0000000180058578     _nodert_generated.obj
 0003:000015a8       ??_7?$_Func_impl@V<lambda_4e1e53d2c2d9ec5bbf3872e34247ab49>@@V?$allocator@H@std@@X$$V@std@@6B@ 00000001800585a8     _nodert_generated.obj
 0003:000015d8       ??_7?$_Func_impl@V<lambda_4c26654467069cc6eb8c50b38bff689e>@@V?$allocator@H@std@@EV?$task@PE$AAVKeyCredentialOperationResult@Credentials@Security@Windows@@@Concurrency@@@std@@6B@ 00000001800585d8     _nodert_generated.obj
 0003:00001608       ??_7?$_ContinuationTaskHandle@_NXV?$function@$$A6AXV?$task@_N@Concurrency@@@Z@std@@U?$integral_constant@_N$00@2@U_TypeSelectorNoAsync@details@Concurrency@@@?$task@_N@Concurrency@@6B@ 0000000180058608     _nodert_generated.obj
 0003:00001620       ??_7KeyCredentialManager@Credentials@Security@Windows@NodeRT@@6B@ 0000000180058620     _nodert_generated.obj
 0003:00001640       ??_7?$_Func_impl@V<lambda_0c35f08fa008bd0bd75f4471027a7740>@@V?$allocator@H@std@@X$$V@std@@6B@ 0000000180058640     _nodert_generated.obj
 0003:00001670       ??_7?$__abi_FunctorCapture@V<lambda_8678a9e0aeb3c1994638923b376d2aa1>@@XPE$AAU?$IObservableMap@PE$AAVString@Platform@@PE$AAVObject@2@@Collections@Foundation@Windows@@PE$AAU?$IMapChangedEventArgs@PE$AAVString@Platform@@@345@@Details@Platform@@6B@ 0000000180058670     _nodert_generated.obj
 0003:00001680       ??_7?$IteratorWrapper@PE$AAVPasswordCredential@Credentials@Security@Windows@@@Collections@NodeRT@@6B@ 0000000180058680     _nodert_generated.obj
 0003:000016a0       ??_7?$_Func_base@XV?$function@$$A6AXHPEAV?$Local@VValue@v8@@@v8@@@Z@std@@@std@@6B@ 00000001800586a0     _nodert_generated.obj
 0003:000016d0       ??_7?$MapChangedEventHandler@PE$AAVString@Platform@@PE$AAVObject@2@@Collections@Foundation@Windows@@6B@ 00000001800586d0     _nodert_generated.obj
 0003:00001700       ??_7?$_Func_impl@V<lambda_bc7991a92a1c32ef2be42f4896124f6c>@@V?$allocator@H@std@@XV?$task@X@Concurrency@@@std@@6B@ 0000000180058700     _nodert_generated.obj
 0003:00001730       ??_7?$_Func_impl@V<lambda_06afde9e14e9caafbc5fb4341b3d2c63>@@V?$allocator@H@std@@EV?$task@PE$AAVKeyCredentialAttestationResult@Credentials@Security@Windows@@@Concurrency@@@std@@6B@ 0000000180058730     _nodert_generated.obj
 0003:00001760       ??_7ObjectWrap@Nan@@6B@    0000000180058760     _nodert_generated.obj
 0003:00001778       ??_7WebAccount@Credentials@Security@Windows@NodeRT@@6B@ 0000000180058778     _nodert_generated.obj
 0003:00001798       ??_7_IAsyncActionToAsyncOperationConverter@details@Concurrency@@6BObject@Platform@@?$_AsyncInfoImpl@PE$AAUIAsyncAction@Foundation@Windows@@VAsyncActionCompletedHandler@23@E@12@@ 0000000180058798     _nodert_generated.obj
 0003:000017c8       ??_7?$_Func_impl@V<lambda_9d079450eaf16b73597a4dc875594ea3>@@V?$allocator@H@std@@X$$V@std@@6B@ 00000001800587c8     _nodert_generated.obj
 0003:000017f8       ??_7?$_Func_impl@V<lambda_242a2332dc3f1b4ea74cd4d02a1c6efe>@@V?$allocator@H@std@@V?$Local@VValue@v8@@@v8@@PE$AAVPasswordCredential@Credentials@Security@Windows@@@std@@6B@ 00000001800587f8     _nodert_generated.obj
 0003:00001828       ??_7?$AsyncOperationCompletedHandler@_N@Foundation@Windows@@6B@ 0000000180058828     _nodert_generated.obj
 0003:00001858       ??_7?$_Func_impl@V<lambda_fb18f48fd1b9342714bb64f8d4fd3c4c>@@V?$allocator@H@std@@XV?$function@$$A6AXHPEAV?$Local@VValue@v8@@@v8@@@Z@3@@std@@6B@ 0000000180058858     _nodert_generated.obj
 0003:00001888       ??_7?$_Func_impl@V<lambda_c4cafe4fdaee96e19a280e8ee0fbeed9>@@V?$allocator@H@std@@XV?$function@$$A6AXHPEAV?$Local@VValue@v8@@@v8@@@Z@3@@std@@6B@ 0000000180058888     _nodert_generated.obj
 0003:000018b8       ??_7?$_Func_base@V?$Local@VValue@v8@@@v8@@PE$AAU?$IKeyValuePair@PE$AAVString@Platform@@PE$AAV12@@Collections@Foundation@Windows@@@std@@6B@ 00000001800588b8     _nodert_generated.obj
 0003:000018e8       ??_7?$_Func_impl@V<lambda_74ae016dfde5e451a517e9bd4d394eaf>@@V?$allocator@H@std@@EV?$task@PE$AAUIRandomAccessStream@Streams@Storage@Windows@@@Concurrency@@@std@@6B@ 00000001800588e8     _nodert_generated.obj
 0003:00001918       ??_7?$_Func_impl@V<lambda_5a75c12d63d0c3728b9cf388a8587909>@@V?$allocator@H@std@@EV?$task@PE$AAVKeyCredentialRetrievalResult@Credentials@Security@Windows@@@Concurrency@@@std@@6B@ 0000000180058918     _nodert_generated.obj
 0003:00001948       ??_7?$_Func_impl@V<lambda_4c6397284cf12c71bb896defe34c667b>@@V?$allocator@H@std@@XV?$function@$$A6AXHPEAV?$Local@VValue@v8@@@v8@@@Z@3@@std@@6B@ 0000000180058948     _nodert_generated.obj
 0003:00001978       ??_7WebAccountProvider@Credentials@Security@Windows@NodeRT@@6B@ 0000000180058978     _nodert_generated.obj
 0003:00001998       ??_7?$_Func_impl@V<lambda_45b1e61327eaea63582b9eff8eb2000c>@@V?$allocator@H@std@@XV?$function@$$A6AXHPEAV?$Local@VValue@v8@@@v8@@@Z@3@@std@@6B@ 0000000180058998     _nodert_generated.obj
 0003:000019c8       ??_7_IAsyncActionToAsyncOperationConverter@details@Concurrency@@6B__I?$_AsyncInfoImpl@PE$AAUIAsyncAction@Foundation@Windows@@VAsyncActionCompletedHandler@23@EPublicNonVirtuals@12@@ 00000001800589c8     _nodert_generated.obj
 0003:000019f8       ??_7?$_Func_base@XV?$task@PE$AAVKeyCredentialRetrievalResult@Credentials@Security@Windows@@@Concurrency@@@std@@6B@ 00000001800589f8     _nodert_generated.obj
 0003:00001a28       ??_7?$_Func_base@PE$AAVString@Platform@@V?$Local@VValue@v8@@@v8@@@std@@6B@ 0000000180058a28     _nodert_generated.obj
 0003:00001a58       ??_7?$_Func_impl@V<lambda_f25c37099038263181b5186a3fa41b37>@@V?$allocator@H@std@@X$$V@std@@6B@ 0000000180058a58     _nodert_generated.obj
 0003:00001a88       ??_7?$_Func_impl@V<lambda_4d0f0461deb482ea0af5799ff4c0acbf>@@V?$allocator@H@std@@XV?$function@$$A6AXHPEAV?$Local@VValue@v8@@@v8@@@Z@3@@std@@6B@ 0000000180058a88     _nodert_generated.obj
 0003:00001ab8       ??_7?$_Task_impl@PE$AAUIRandomAccessStream@Streams@Storage@Windows@@@details@Concurrency@@6B@ 0000000180058ab8     _nodert_generated.obj
 0003:00001ac8       ??_7?$_Task_impl@E@details@Concurrency@@6B@ 0000000180058ac8     _nodert_generated.obj
 0003:00001ad8       ??_7?$_Ref_count_obj@U?$_Task_impl@E@details@Concurrency@@@std@@6B@ 0000000180058ad8     _nodert_generated.obj
 0003:00001af8       ??_7?$_Func_impl@V<lambda_9f0d7c63b31eb243109d420dd2c7387b>@@V?$allocator@H@std@@XV?$function@$$A6AXHPEAV?$Local@VValue@v8@@@v8@@@Z@3@@std@@6B@ 0000000180058af8     _nodert_generated.obj
 0003:00001b28       ??_7?$_Task_impl@PE$AAVKeyCredentialAttestationResult@Credentials@Security@Windows@@@details@Concurrency@@6B@ 0000000180058b28     _nodert_generated.obj
 0003:00001b38       ??_7?$_Func_impl@V<lambda_2b88f7f64ad9eedeacf2546afbf6e3c4>@@V?$allocator@H@std@@XV?$task@_N@Concurrency@@@std@@6B@ 0000000180058b38     _nodert_generated.obj
 0003:00001b68       ??_7?$AsyncOperationCompletedHandler@PE$AAUIRandomAccessStream@Streams@Storage@Windows@@@Foundation@Windows@@6B@ 0000000180058b68     _nodert_generated.obj
 0003:00001b98       ??_7?$_Func_base@EV?$task@PE$AAUIRandomAccessStream@Streams@Storage@Windows@@@Concurrency@@@std@@6B@ 0000000180058b98     _nodert_generated.obj
 0003:00001bc8       ??_7AsyncActionCompletedHandler@Foundation@Windows@@6BObject@Platform@@@ 0000000180058bc8     _nodert_generated.obj
 0003:00001bf8       ??_7?$_Func_impl@V<lambda_d4a8bb1d3b7ec2bea7766c2745f0ce11>@@V?$allocator@H@std@@EV?$task@X@Concurrency@@@std@@6B@ 0000000180058bf8     _nodert_generated.obj
 0003:00001c28       ??_7?$_Func_base@XV?$task@PE$AAVKeyCredentialOperationResult@Credentials@Security@Windows@@@Concurrency@@@std@@6B@ 0000000180058c28     _nodert_generated.obj
 0003:00001c58       ??_7?$AsyncOperationCompletedHandler@PE$AAVKeyCredentialRetrievalResult@Credentials@Security@Windows@@@Foundation@Windows@@6B__abi_IUnknown@@@ 0000000180058c58     _nodert_generated.obj
 0003:00001c80       ??_7?$AsyncOperationCompletedHandler@_N@Foundation@Windows@@6B__abi_IUnknown@@@ 0000000180058c80     _nodert_generated.obj
 0003:00001ca8       ??_7?$_ContinuationTaskHandle@XXV?$function@$$A6AXV?$task@X@Concurrency@@@Z@std@@U?$integral_constant@_N$00@2@U_TypeSelectorNoAsync@details@Concurrency@@@?$task@E@Concurrency@@6B@ 0000000180058ca8     _nodert_generated.obj
 0003:00001cc0       ??_7?$MapViewWrapper@PE$AAVString@Platform@@PE$AAV12@@Collections@NodeRT@@6B@ 0000000180058cc0     _nodert_generated.obj
 0003:00001ce0       ??_7?$_Func_base@XV?$task@PE$AAUIRandomAccessStream@Streams@Storage@Windows@@@Concurrency@@@std@@6B@ 0000000180058ce0     _nodert_generated.obj
 0003:00001d10       ??_7?$_AsyncInfoImpl@PE$AAUIAsyncAction@Foundation@Windows@@VAsyncActionCompletedHandler@23@E@details@Concurrency@@6B__I?$_AsyncInfoImpl@PE$AAUIAsyncAction@Foundation@Windows@@VAsyncActionCompletedHandler@23@EPublicNonVirtuals@12@@ 0000000180058d10     _nodert_generated.obj
 0003:00001d40       ??_7?$AsyncOperationCompletedHandler@E@Foundation@Windows@@6B__abi_IUnknown@@@ 0000000180058d40     _nodert_generated.obj
 0003:00001d68       ??_7KeyCredentialOperationResult@Credentials@Security@Windows@NodeRT@@6B@ 0000000180058d68     _nodert_generated.obj
 0003:00001d88       ??_7?$AsyncOperationCompletedHandler@PE$AAVKeyCredentialAttestationResult@Credentials@Security@Windows@@@Foundation@Windows@@6B@ 0000000180058d88     _nodert_generated.obj
 0003:00001db8       ??_7?$_Func_impl@V<lambda_bb67c431194e1c455a3fe0f8878e740c>@@V?$allocator@H@std@@XV?$function@$$A6AXHPEAV?$Local@VValue@v8@@@v8@@@Z@3@@std@@6B@ 0000000180058db8     _nodert_generated.obj
 0003:00001de8       ??_7invalid_operation@Concurrency@@6B@ 0000000180058de8     _nodert_generated.obj
 0003:00001e00       ??_7?$_Func_impl@V<lambda_a5363457c4d466f90c086109afe11dcf>@@V?$allocator@H@std@@X$$V@std@@6B@ 0000000180058e00     _nodert_generated.obj
 0003:00001e30       ??_7?$_Func_impl@V<lambda_e4093e3535e756778c15aedef34d51e2>@@V?$allocator@H@std@@XV?$task@PE$AAVKeyCredentialRetrievalResult@Credentials@Security@Windows@@@Concurrency@@@std@@6B@ 0000000180058e30     _nodert_generated.obj
 0003:00001e60       ??_7?$_PPLTaskHandle@EU?$_ContinuationTaskHandle@XXV?$function@$$A6AXV?$task@X@Concurrency@@@Z@std@@U?$integral_constant@_N$00@2@U_TypeSelectorNoAsync@details@Concurrency@@@?$task@E@Concurrency@@U_ContinuationTaskHandleBase@details@3@@details@Concurrency@@6B@ 0000000180058e60     _nodert_generated.obj
 0003:00001e78       ??_7?$AsyncOperationCompletedHandler@PE$AAVKeyCredentialOperationResult@Credentials@Security@Windows@@@Foundation@Windows@@6B__abi_IUnknown@@@ 0000000180058e78     _nodert_generated.obj
 0003:00001ea0       ??_7?$_Func_impl@V<lambda_949d2347ed2e144726609cfa5ee5b5bb>@@V?$allocator@H@std@@XV?$task@PE$AAVKeyCredentialRetrievalResult@Credentials@Security@Windows@@@Concurrency@@@std@@6B@ 0000000180058ea0     _nodert_generated.obj
 0003:00001ed0       ??_7?$_Ref_count_del@V?$Persistent@VObject@v8@@V?$NonCopyablePersistentTraits@VObject@v8@@@2@@Nan@@V<lambda_2faf0822b5cc46d5dceecb0ebfe022d1>@@@std@@6B@ 0000000180058ed0     _nodert_generated.obj
 0003:00001ef0       ??_7?$_Func_impl@V<lambda_6c4ca31976c4ddd1031340f2696b2738>@@V?$allocator@H@std@@V?$Local@VValue@v8@@@v8@@PE$AAVPasswordCredential@Credentials@Security@Windows@@@std@@6B@ 0000000180058ef0     _nodert_generated.obj
 0003:00001f20       ??_7?$IteratorWrapper@PE$AAU?$IKeyValuePair@PE$AAVString@Platform@@PE$AAVObject@2@@Collections@Foundation@Windows@@@Collections@NodeRT@@6B@ 0000000180058f20     _nodert_generated.obj
 0003:00001f40       ??_7?$_PPLTaskHandle@EU?$_ContinuationTaskHandle@PE$AAUIRandomAccessStream@Streams@Storage@Windows@@XV?$function@$$A6AXV?$task@PE$AAUIRandomAccessStream@Streams@Storage@Windows@@@Concurrency@@@Z@std@@U?$integral_constant@_N$00@6@U_TypeSelectorNoAsync@details@Concurrency@@@?$task@PE$AAUIRandomAccessStream@Streams@Storage@Windows@@@Concurrency@@U_ContinuationTaskHandleBase@details@3@@details@Concurrency@@6B@ 0000000180058f40     _nodert_generated.obj
 0003:00001f58       ??_7?$_Func_impl@V<lambda_9992f129c8f6c76835a04b2eb18f630d>@@V?$allocator@H@std@@V?$Local@VValue@v8@@@v8@@PE$AAU?$IKeyValuePair@PE$AAVString@Platform@@PE$AAVObject@2@@Collections@Foundation@Windows@@@std@@6B@ 0000000180058f58     _nodert_generated.obj
 0003:00001f88       ??_7?$_Func_base@XHPEAV?$Local@VValue@v8@@@v8@@@std@@6B@ 0000000180058f88     _nodert_generated.obj
 0003:00001fb8       ??_7?$_Func_impl@V<lambda_ee2800ccd2b011420c5de0c63356449b>@@V?$allocator@H@std@@X$$V@std@@6B@ 0000000180058fb8     _nodert_generated.obj
 0003:00001fe8       ??_7?$_PPLTaskHandle@EU?$_ContinuationTaskHandle@PE$AAVKeyCredentialRetrievalResult@Credentials@Security@Windows@@XV?$function@$$A6AXV?$task@PE$AAVKeyCredentialRetrievalResult@Credentials@Security@Windows@@@Concurrency@@@Z@std@@U?$integral_constant@_N$00@6@U_TypeSelectorNoAsync@details@Concurrency@@@?$task@PE$AAVKeyCredentialRetrievalResult@Credentials@Security@Windows@@@Concurrency@@U_ContinuationTaskHandleBase@details@3@@details@Concurrency@@6B@ 0000000180058fe8     _nodert_generated.obj
 0003:00002000       ??_7?$_Func_impl@V<lambda_fc55a96778b695da9907353a9fdacbca>@@V?$allocator@H@std@@X$$V@std@@6B@ 0000000180059000     _nodert_generated.obj
 0003:00002030       ??_7?$_Func_impl@V<lambda_bc24d93c4ae52aa761b3a50bef053f9e>@@V?$allocator@H@std@@PE$AAVString@Platform@@V?$Local@VValue@v8@@@v8@@@std@@6B@ 0000000180059030     _nodert_generated.obj
 0003:00002060       ??_7?$_Func_base@EV?$task@_N@Concurrency@@@std@@6B@ 0000000180059060     _nodert_generated.obj
 0003:00002090       ??_7?$_PPLTaskHandle@EU?$_ContinuationTaskHandle@_NXV?$function@$$A6AXV?$task@_N@Concurrency@@@Z@std@@U?$integral_constant@_N$00@2@U_TypeSelectorNoAsync@details@Concurrency@@@?$task@_N@Concurrency@@U_ContinuationTaskHandleBase@details@3@@details@Concurrency@@6B@ 0000000180059090     _nodert_generated.obj
 0003:000020a8       ??_7IWebAccount@Credentials@Security@Windows@NodeRT@@6B@ 00000001800590a8     _nodert_generated.obj
 0003:000020c8       ??_7?$_Func_impl@V<lambda_a04c7c9eaa4231a1dbbdd77e6ef06b31>@@V?$allocator@H@std@@V?$Local@VValue@v8@@@v8@@PE$AAVObject@Platform@@@std@@6B@ 00000001800590c8     _nodert_generated.obj
 0003:000020f8       ??_7?$_CancellationTokenCallback@V<lambda_be3e5d9dce35d2c8dbfa8485373731d5>@@@details@Concurrency@@6B@ 00000001800590f8     _nodert_generated.obj
 0003:00002110       ??_7_IAsyncActionToAsyncOperationConverter@details@Concurrency@@6BObject@Platform@@IWeakReferenceSource@Details@4@@ 0000000180059110     _nodert_generated.obj
 0003:00002140       ??_7?$__abi_FunctorCapture@V<lambda_fd18366eea5f0418880043da18fa5bb0>@@XPE$AAU?$IAsyncOperation@PE$AAUIRandomAccessStream@Streams@Storage@Windows@@@Foundation@Windows@@W4AsyncStatus@34@@Details@Platform@@6B@ 0000000180059140     _nodert_generated.obj
 0003:00002150       ??_7_ContinuationTaskHandleBase@details@Concurrency@@6B@ 0000000180059150     _nodert_generated.obj
 0003:00002168       ??_7_Task_impl_base@details@Concurrency@@6B@ 0000000180059168     _nodert_generated.obj
 0003:00002178       ??_7OpaqueWrapper@NodeRT@@6B@ 0000000180059178     OpaqueWrapper.obj
 0003:000021a0       ??_R0?AVModuleBase@Details@WRL@Microsoft@@@8 00000001800591a0     vccorlib:init.obj
 0003:000021d8       ??_R0?AVInProcModule@Details@Platform@@@8 00000001800591d8     vccorlib:init.obj
 0003:00002210       ??_R0?AV?$Module@$04VInProcModule@Details@Platform@@@WRL@Microsoft@@@8 0000000180059210     vccorlib:init.obj
 0003:00002270       ??_R0?AV?$Module@$00VInProcModule@Details@Platform@@@WRL@Microsoft@@@8 0000000180059270     vccorlib:init.obj
 0003:000022c8       ??_R0?AU__abi_Module@@@8   00000001800592c8     vccorlib:init.obj
 0003:000022f0       ??_R0?AVtype_info@@@8      00000001800592f0     MSVCRT:std_type_info_static.obj
 0003:00002310       ??_R0?AVbad_alloc@std@@@8  0000000180059310     MSVCRT:throw_bad_alloc.obj
 0003:00002338       ??_R0?AVexception@std@@@8  0000000180059338     MSVCRT:throw_bad_alloc.obj
 0003:00002360       ??_R0?AVbad_array_new_length@std@@@8 0000000180059360     MSVCRT:throw_bad_alloc.obj
 0003:00002390       ??_R0?AV<lambda_a88ba152e427f8c2aef19e30e230b579>@@@8 0000000180059390     _nodert_generated.obj
 0003:000023d0       ??_R0?AVruntime_error@std@@@8 00000001800593d0     _nodert_generated.obj
 0003:00002400       ??_R0?AV<lambda_2cdc3f7620d18cd97fbfc9d2d4690fa9>@@@8 0000000180059400     _nodert_generated.obj
 0003:00002440       ??_R0?AVexception@stdext@@@8 0000000180059440     _nodert_generated.obj
 0003:00002470       ??_R0?AV<lambda_a4bb01c3bfce7d486672a1a98d0662e5>@@@8 0000000180059470     _nodert_generated.obj
 0003:000024b0       ??_R0?AV<lambda_0eab81cc34bebf16b98183cb52515b9a>@@@8 00000001800594b0     _nodert_generated.obj
 0003:000024f0       ??_R0?AV<lambda_c5918b628fcce4ef3413db30e465b55f>@@@8 00000001800594f0     _nodert_generated.obj
 0003:00002530       ??_R0PE$AAUIDisposable@Platform@@@8 0000000180059530     _nodert_generated.obj
 0003:00002560       ??_R0?AV<lambda_90430bfa44bd46a48b7e1e4e5d6cf197>@@@8 0000000180059560     _nodert_generated.obj
 0003:000025a0       ??_R0?AV<lambda_b96afc2058126c8419999d664580aa66>@@@8 00000001800595a0     _nodert_generated.obj
 0003:000025e0       ??_R0?AV<lambda_06afde9e14e9caafbc5fb4341b3d2c63>@@@8 00000001800595e0     _nodert_generated.obj
 0003:00002620       ??_R0PE$AAUIEquatable@Details@Platform@@@8 0000000180059620     _nodert_generated.obj
 0003:00002660       ??_R0?AV<lambda_0a2bdc002657507cd74ae718c4dfbbbd>@@@8 0000000180059660     _nodert_generated.obj
 0003:000026a0       ??_R0?AV<lambda_45b1e61327eaea63582b9eff8eb2000c>@@@8 00000001800596a0     _nodert_generated.obj
 0003:000026e0       ??_R0?AV<lambda_a6dafb187171873a34e5daaeebf06488>@@@8 00000001800596e0     _nodert_generated.obj
 0003:00002720       ??_R0?AV<lambda_54a3ae4835dd5cf44f02a0eeadada84b>@@@8 0000000180059720     _nodert_generated.obj
 0003:00002760       ??_R0?AV<lambda_b8e671108c61d14db13f18bcf080d2fc>@@@8 0000000180059760     _nodert_generated.obj
 0003:000027a0       ??_R0?AV<lambda_238a318ebb7e5433e50faddafa53240b>@@@8 00000001800597a0     _nodert_generated.obj
 0003:000027e0       ??_R0?AV<lambda_c52071c61d3bfc4666f01eb279077e47>@@@8 00000001800597e0     _nodert_generated.obj
 0003:00002820       ??_R0?AV<lambda_31e5d09106ba1b018eab84dd43293d09>@@@8 0000000180059820     _nodert_generated.obj
